
out.elf:     file format elf32-tradlittlemips


Disassembly of section .reset:

bd007000 <_reset>:
bd007000:	0f401c02 	jal	bd007008 <_startup>
bd007004:	00000000 	nop

bd007008 <_startup>:
bd007008:	401a6000 	mfc0	k0,c0_status
bd00700c:	7f5a04c0 	ext	k0,k0,0x13,0x1
bd007010:	13400005 	beqz	k0,bd007028 <_no_nmi>
bd007014:	00000000 	nop
bd007018:	3c1a9d01 	lui	k0,0x9d01
bd00701c:	275a4900 	addiu	k0,k0,18688
bd007020:	03400008 	jr	k0
bd007024:	00000000 	nop

bd007028 <_no_nmi>:
bd007028:	3c1da001 	lui	sp,0xa001
bd00702c:	27bdfff8 	addiu	sp,sp,-8
bd007030:	3c1ca000 	lui	gp,0xa000
bd007034:	279c7ff0 	addiu	gp,gp,32752
bd007038:	3c089d01 	lui	t0,0x9d01
bd00703c:	25084998 	addiu	t0,t0,18840
bd007040:	0100f809 	jalr	t0
bd007044:	00000000 	nop

bd007048 <_start_bss_init>:
bd007048:	3c08a000 	lui	t0,0xa000
bd00704c:	2508000c 	addiu	t0,t0,12
bd007050:	3c09a000 	lui	t1,0xa000
bd007054:	25290d34 	addiu	t1,t1,3380
bd007058:	10000003 	b	bd007068 <_bss_check>
bd00705c:	00000000 	nop

bd007060 <_bss_init>:
bd007060:	ad000000 	sw	zero,0(t0)
bd007064:	25080004 	addiu	t0,t0,4

bd007068 <_bss_check>:
bd007068:	0109082b 	sltu	at,t0,t1
bd00706c:	1420fffc 	bnez	at,bd007060 <_bss_init>
bd007070:	00000000 	nop
bd007074:	3c089d01 	lui	t0,0x9d01
bd007078:	2508466c 	addiu	t0,t0,18028
bd00707c:	0100f809 	jalr	t0
bd007080:	00000000 	nop
bd007084:	3c090000 	lui	t1,0x0
bd007088:	25290000 	addiu	t1,t1,0
bd00708c:	11200010 	beqz	t1,bd0070d0 <_ramfunc_done>
bd007090:	00000000 	nop
bd007094:	3c090001 	lui	t1,0x1
bd007098:	25290000 	addiu	t1,t1,0
bd00709c:	3c0abf88 	lui	t2,0xbf88
bd0070a0:	254a2010 	addiu	t2,t2,8208
bd0070a4:	ad490000 	sw	t1,0(t2)
bd0070a8:	3c090001 	lui	t1,0x1
bd0070ac:	25290000 	addiu	t1,t1,0
bd0070b0:	3c0abf88 	lui	t2,0xbf88
bd0070b4:	254a2020 	addiu	t2,t2,8224
bd0070b8:	ad490000 	sw	t1,0(t2)
bd0070bc:	3c090001 	lui	t1,0x1
bd0070c0:	25290000 	addiu	t1,t1,0
bd0070c4:	3c0abf88 	lui	t2,0xbf88
bd0070c8:	254a2030 	addiu	t2,t2,8240
bd0070cc:	ad490000 	sw	t1,0(t2)

bd0070d0 <_ramfunc_done>:
bd0070d0:	40804800 	mtc0	zero,c0_count
bd0070d4:	240affff 	li	t2,-1
bd0070d8:	408a5800 	mtc0	t2,c0_compare
bd0070dc:	3c080040 	lui	t0,0x40
bd0070e0:	400a6000 	mfc0	t2,c0_status
bd0070e4:	010a5025 	or	t2,t0,t2
bd0070e8:	408a6000 	mtc0	t2,c0_status
bd0070ec:	3c099d00 	lui	t1,0x9d00
bd0070f0:	25296000 	addiu	t1,t1,24576
bd0070f4:	000000c0 	ehb
bd0070f8:	40897801 	mtc0	t1,c0_ebase
bd0070fc:	3c090000 	lui	t1,0x0
bd007100:	25290001 	addiu	t1,t1,1
bd007104:	240a0000 	li	t2,0
bd007108:	7d2a4944 	ins	t2,t1,0x5,0x5
bd00710c:	408a6001 	mtc0	t2,c0_intctl
bd007110:	3c090080 	lui	t1,0x80
bd007114:	40896800 	mtc0	t1,c0_cause
bd007118:	40088000 	mfc0	t0,c0_config
bd00711c:	7d090580 	ext	t1,t0,0x16,0x1
bd007120:	00094c40 	sll	t1,t1,0x11
bd007124:	40086000 	mfc0	t0,c0_status
bd007128:	3c010058 	lui	at,0x58
bd00712c:	01014024 	and	t0,t0,at
bd007130:	01284025 	or	t0,t1,t0
bd007134:	40886000 	mtc0	t0,c0_status
bd007138:	000000c0 	ehb
bd00713c:	3c089d01 	lui	t0,0x9d01
bd007140:	250849a0 	addiu	t0,t0,18848
bd007144:	0100f809 	jalr	t0
bd007148:	00000000 	nop
bd00714c:	40086000 	mfc0	t0,c0_status
bd007150:	3c01ffbf 	lui	at,0xffbf
bd007154:	3421ffff 	ori	at,at,0xffff
bd007158:	01014024 	and	t0,t0,at
bd00715c:	40886000 	mtc0	t0,c0_status
bd007160:	30840000 	andi	a0,a0,0x0
bd007164:	30a50000 	andi	a1,a1,0x0
bd007168:	3c089d01 	lui	t0,0x9d01
bd00716c:	25083be8 	addiu	t0,t0,15336
bd007170:	01000008 	jr	t0
bd007174:	00000000 	nop

Disassembly of section .bev_excpt:

bfc07380 <_bev_exception>:
bfc07380:	3c1a9d01 	lui	k0,0x9d01
bfc07384:	275a3dc8 	addiu	k0,k0,15816
bfc07388:	03400008 	jr	k0
bfc0738c:	00000000 	nop

Disassembly of section .app_excpt:

9d006180 <_gen_exception>:
9d006180:	3c1a9d01 	lui	k0,0x9d01
9d006184:	275a1ed0 	addiu	k0,k0,7888
9d006188:	03400008 	jr	k0
9d00618c:	00000000 	nop

Disassembly of section .vector_0:

9d006200 <__vector_dispatch_0>:
9d006200:	0b404f96 	j	9d013e58 <_DefaultInterrupt>
9d006204:	00000000 	nop

Disassembly of section .vector_1:

9d006220 <__vector_dispatch_1>:
9d006220:	0b404f96 	j	9d013e58 <_DefaultInterrupt>
9d006224:	00000000 	nop

Disassembly of section .vector_2:

9d006240 <__vector_dispatch_2>:
9d006240:	0b404f96 	j	9d013e58 <_DefaultInterrupt>
9d006244:	00000000 	nop

Disassembly of section .vector_3:

9d006260 <__vector_dispatch_3>:
9d006260:	0b404f96 	j	9d013e58 <_DefaultInterrupt>
9d006264:	00000000 	nop

Disassembly of section .vector_4:

9d006280 <__vector_dispatch_4>:
9d006280:	0b404f96 	j	9d013e58 <_DefaultInterrupt>
9d006284:	00000000 	nop

Disassembly of section .vector_5:

9d0062a0 <__vector_dispatch_5>:
9d0062a0:	0b404f96 	j	9d013e58 <_DefaultInterrupt>
9d0062a4:	00000000 	nop

Disassembly of section .vector_6:

9d0062c0 <__vector_dispatch_6>:
9d0062c0:	0b404f96 	j	9d013e58 <_DefaultInterrupt>
9d0062c4:	00000000 	nop

Disassembly of section .vector_7:

9d0062e0 <__vector_dispatch_7>:
9d0062e0:	0b404f96 	j	9d013e58 <_DefaultInterrupt>
9d0062e4:	00000000 	nop

Disassembly of section .vector_8:

9d006300 <__vector_dispatch_8>:
9d006300:	0b402d8a 	j	9d00b628 <icontroller>
9d006304:	00000000 	nop

Disassembly of section .vector_9:

9d006320 <__vector_dispatch_9>:
9d006320:	0b404f96 	j	9d013e58 <_DefaultInterrupt>
9d006324:	00000000 	nop

Disassembly of section .vector_10:

9d006340 <__vector_dispatch_10>:
9d006340:	0b404f96 	j	9d013e58 <_DefaultInterrupt>
9d006344:	00000000 	nop

Disassembly of section .vector_11:

9d006360 <__vector_dispatch_11>:
9d006360:	0b404f96 	j	9d013e58 <_DefaultInterrupt>
9d006364:	00000000 	nop

Disassembly of section .vector_12:

9d006380 <__vector_dispatch_12>:
9d006380:	0b404f96 	j	9d013e58 <_DefaultInterrupt>
9d006384:	00000000 	nop

Disassembly of section .vector_13:

9d0063a0 <__vector_dispatch_13>:
9d0063a0:	0b404f96 	j	9d013e58 <_DefaultInterrupt>
9d0063a4:	00000000 	nop

Disassembly of section .vector_14:

9d0063c0 <__vector_dispatch_14>:
9d0063c0:	0b404f96 	j	9d013e58 <_DefaultInterrupt>
9d0063c4:	00000000 	nop

Disassembly of section .vector_15:

9d0063e0 <__vector_dispatch_15>:
9d0063e0:	0b404f96 	j	9d013e58 <_DefaultInterrupt>
9d0063e4:	00000000 	nop

Disassembly of section .vector_16:

9d006400 <__vector_dispatch_16>:
9d006400:	0b404f96 	j	9d013e58 <_DefaultInterrupt>
9d006404:	00000000 	nop

Disassembly of section .vector_17:

9d006420 <__vector_dispatch_17>:
9d006420:	0b404f96 	j	9d013e58 <_DefaultInterrupt>
9d006424:	00000000 	nop

Disassembly of section .vector_18:

9d006440 <__vector_dispatch_18>:
9d006440:	0b404f96 	j	9d013e58 <_DefaultInterrupt>
9d006444:	00000000 	nop

Disassembly of section .vector_19:

9d006460 <__vector_dispatch_19>:
9d006460:	0b404f96 	j	9d013e58 <_DefaultInterrupt>
9d006464:	00000000 	nop

Disassembly of section .vector_20:

9d006480 <__vector_dispatch_20>:
9d006480:	0b404f96 	j	9d013e58 <_DefaultInterrupt>
9d006484:	00000000 	nop

Disassembly of section .vector_21:

9d0064a0 <__vector_dispatch_21>:
9d0064a0:	0b404f96 	j	9d013e58 <_DefaultInterrupt>
9d0064a4:	00000000 	nop

Disassembly of section .vector_22:

9d0064c0 <__vector_dispatch_22>:
9d0064c0:	0b404f96 	j	9d013e58 <_DefaultInterrupt>
9d0064c4:	00000000 	nop

Disassembly of section .vector_23:

9d0064e0 <__vector_dispatch_23>:
9d0064e0:	0b404f96 	j	9d013e58 <_DefaultInterrupt>
9d0064e4:	00000000 	nop

Disassembly of section .vector_24:

9d006500 <__vector_dispatch_24>:
9d006500:	0b404f96 	j	9d013e58 <_DefaultInterrupt>
9d006504:	00000000 	nop

Disassembly of section .vector_25:

9d006520 <__vector_dispatch_25>:
9d006520:	0b404f96 	j	9d013e58 <_DefaultInterrupt>
9d006524:	00000000 	nop

Disassembly of section .vector_26:

9d006540 <__vector_dispatch_26>:
9d006540:	0b404f96 	j	9d013e58 <_DefaultInterrupt>
9d006544:	00000000 	nop

Disassembly of section .vector_27:

9d006560 <__vector_dispatch_27>:
9d006560:	0b404f96 	j	9d013e58 <_DefaultInterrupt>
9d006564:	00000000 	nop

Disassembly of section .vector_28:

9d006580 <__vector_dispatch_28>:
9d006580:	0b404f96 	j	9d013e58 <_DefaultInterrupt>
9d006584:	00000000 	nop

Disassembly of section .vector_29:

9d0065a0 <__vector_dispatch_29>:
9d0065a0:	0b404f96 	j	9d013e58 <_DefaultInterrupt>
9d0065a4:	00000000 	nop

Disassembly of section .vector_30:

9d0065c0 <__vector_dispatch_30>:
9d0065c0:	0b404f96 	j	9d013e58 <_DefaultInterrupt>
9d0065c4:	00000000 	nop

Disassembly of section .vector_31:

9d0065e0 <__vector_dispatch_31>:
9d0065e0:	0b404f96 	j	9d013e58 <_DefaultInterrupt>
9d0065e4:	00000000 	nop

Disassembly of section .vector_32:

9d006600 <__vector_dispatch_32>:
9d006600:	0b404f96 	j	9d013e58 <_DefaultInterrupt>
9d006604:	00000000 	nop

Disassembly of section .vector_33:

9d006620 <__vector_dispatch_33>:
9d006620:	0b404f96 	j	9d013e58 <_DefaultInterrupt>
9d006624:	00000000 	nop

Disassembly of section .vector_34:

9d006640 <__vector_dispatch_34>:
9d006640:	0b404f96 	j	9d013e58 <_DefaultInterrupt>
9d006644:	00000000 	nop

Disassembly of section .vector_35:

9d006660 <__vector_dispatch_35>:
9d006660:	0b404f96 	j	9d013e58 <_DefaultInterrupt>
9d006664:	00000000 	nop

Disassembly of section .vector_36:

9d006680 <__vector_dispatch_36>:
9d006680:	0b404f96 	j	9d013e58 <_DefaultInterrupt>
9d006684:	00000000 	nop

Disassembly of section .vector_37:

9d0066a0 <__vector_dispatch_37>:
9d0066a0:	0b403980 	j	9d00e600 <U2ISR>
9d0066a4:	00000000 	nop

Disassembly of section .vector_38:

9d0066c0 <__vector_dispatch_38>:
9d0066c0:	0b404f96 	j	9d013e58 <_DefaultInterrupt>
9d0066c4:	00000000 	nop

Disassembly of section .vector_39:

9d0066e0 <__vector_dispatch_39>:
9d0066e0:	0b404f96 	j	9d013e58 <_DefaultInterrupt>
9d0066e4:	00000000 	nop

Disassembly of section .vector_40:

9d006700 <__vector_dispatch_40>:
9d006700:	0b404f96 	j	9d013e58 <_DefaultInterrupt>
9d006704:	00000000 	nop

Disassembly of section .vector_41:

9d006720 <__vector_dispatch_41>:
9d006720:	0b404f96 	j	9d013e58 <_DefaultInterrupt>
9d006724:	00000000 	nop

Disassembly of section .vector_42:

9d006740 <__vector_dispatch_42>:
9d006740:	0b404f96 	j	9d013e58 <_DefaultInterrupt>
9d006744:	00000000 	nop

Disassembly of section .vector_43:

9d006760 <__vector_dispatch_43>:
9d006760:	0b404f96 	j	9d013e58 <_DefaultInterrupt>
9d006764:	00000000 	nop

Disassembly of section .rodata:

9d007490 <.rodata>:
9d007490:	00006425 	0x6425
9d007494:	32433249 	andi	v1,s2,0x3249
9d007498:	73614d20 	0x73614d20
9d00749c:	3a726574 	xori	s2,s3,0x6574
9d0074a0:	69616620 	0x69616620
9d0074a4:	2064656c 	addi	a0,v1,25964
9d0074a8:	72206f74 	0x72206f74
9d0074ac:	69656365 	0x69656365
9d0074b0:	41206576 	0x41206576
9d0074b4:	0a0d4b43 	j	98352d0c <_bmxdudba_address+0x98342d0c>
9d0074b8:	00000000 	nop
9d0074bc:	42c80000 	c0	0xc80000
9d0074c0:	c2c80000 	ll	t0,0(s6)
	...
9d0074cc:	40590000 	cfc0	t9,c0_index
9d0074d0:	00000000 	nop
9d0074d4:	40080000 	mfc0	t0,c0_index
9d0074d8:	0a0d6625 	j	98359894 <_bmxdudba_address+0x98349894>
9d0074dc:	0c000000 	jal	90000000 <_bmxdudba_address+0x8fff0000>
9d0074e0:	0c000061 	jal	90000184 <_bmxdudba_address+0x8fff0184>
9d0074e4:	0a0d6425 	j	98359094 <_bmxdudba_address+0x98349094>
9d0074e8:	0c000000 	jal	90000000 <_bmxdudba_address+0x8fff0000>
9d0074ec:	0c000062 	jal	90000188 <_bmxdudba_address+0x8fff0188>
9d0074f0:	00006425 	0x6425
9d0074f4:	25206625 	addiu	zero,t1,26149
9d0074f8:	0c000066 	jal	90000198 <_bmxdudba_address+0x8fff0198>
9d0074fc:	646e6553 	0x646e6553
9d007500:	20676e69 	addi	a3,v1,28265
9d007504:	3d20704b 	0x3d20704b
9d007508:	20662520 	addi	a2,v1,9504
9d00750c:	20646e61 	addi	a0,v1,28257
9d007510:	3d20694b 	0x3d20694b
9d007514:	20662520 	addi	a2,v1,9504
9d007518:	74206f74 	jalx	9081bdd0 <_bmxdudba_address+0x9080bdd0>
9d00751c:	63206568 	0x63206568
9d007520:	65727275 	0x65727275
9d007524:	6320746e 	0x6320746e
9d007528:	72746e6f 	0x72746e6f
9d00752c:	656c6c6f 	0x656c6c6f
9d007530:	0a0d2e72 	j	9834b9c8 <_bmxdudba_address+0x9833b9c8>
9d007534:	0c000000 	jal	90000000 <_bmxdudba_address+0x8fff0000>
9d007538:	20656854 	addi	a1,v1,26708
9d00753c:	72727563 	0x72727563
9d007540:	20746e65 	addi	s4,v1,28261
9d007544:	746e6f63 	jalx	91b9bd8c <_bmxdudba_address+0x91b8bd8c>
9d007548:	6c6c6f72 	0x6c6c6f72
9d00754c:	69207265 	0x69207265
9d007550:	73752073 	0x73752073
9d007554:	20676e69 	addi	a3,v1,28265
9d007558:	3d20704b 	0x3d20704b
9d00755c:	20662520 	addi	a2,v1,9504
9d007560:	20646e61 	addi	a0,v1,28257
9d007564:	3d20694b 	0x3d20694b
9d007568:	2e662520 	sltiu	a2,s3,9504
9d00756c:	00000a0d 	break	0x0,0x28
9d007570:	25206625 	addiu	zero,t1,26149
9d007574:	66252066 	0x66252066
9d007578:	0c000000 	jal	90000000 <_bmxdudba_address+0x8fff0000>
9d00757c:	646e6553 	0x646e6553
9d007580:	20676e69 	addi	a3,v1,28265
9d007584:	3d20704b 	0x3d20704b
9d007588:	20662520 	addi	a2,v1,9504
9d00758c:	20646e61 	addi	a0,v1,28257
9d007590:	3d20694b 	0x3d20694b
9d007594:	20662520 	addi	a2,v1,9504
9d007598:	20646e61 	addi	a0,v1,28257
9d00759c:	3d20694b 	0x3d20694b
9d0075a0:	20662520 	addi	a2,v1,9504
9d0075a4:	74206f74 	jalx	9081bdd0 <_bmxdudba_address+0x9080bdd0>
9d0075a8:	70206568 	0x70206568
9d0075ac:	7469736f 	jalx	91a5cdbc <_bmxdudba_address+0x91a4cdbc>
9d0075b0:	206e6f69 	addi	t6,v1,28521
9d0075b4:	746e6f63 	jalx	91b9bd8c <_bmxdudba_address+0x91b8bd8c>
9d0075b8:	6c6c6f72 	0x6c6c6f72
9d0075bc:	0d2e7265 	jal	94b9c994 <_bmxdudba_address+0x94b8c994>
9d0075c0:	0c00000a 	jal	90000028 <_bmxdudba_address+0x8fff0028>
9d0075c4:	20656854 	addi	a1,v1,26708
9d0075c8:	69736f70 	0x69736f70
9d0075cc:	6e6f6974 	0x6e6f6974
9d0075d0:	6e6f6320 	0x6e6f6320
9d0075d4:	6c6f7274 	0x6c6f7274
9d0075d8:	2072656c 	addi	s2,v1,25964
9d0075dc:	75207369 	jalx	9481cda4 <_bmxdudba_address+0x9480cda4>
9d0075e0:	676e6973 	0x676e6973
9d0075e4:	20704b20 	addi	s0,v1,19232
9d0075e8:	6625203d 	0x6625203d
9d0075ec:	646e6120 	0x646e6120
9d0075f0:	20694b20 	addi	t1,v1,19232
9d0075f4:	6625203d 	0x6625203d
9d0075f8:	000a0d2e 	0xa0d2e
9d0075fc:	25206625 	addiu	zero,t1,26149
9d007600:	000a0d66 	0xa0d66
9d007604:	454c4449 	bc1any4f	$fcc3,9d01872c <close+0x3d14>
9d007608:	00000a0d 	break	0x0,0x28
9d00760c:	0d4d5750 	jal	95355d40 <_bmxdudba_address+0x95345d40>
9d007610:	0c00000a 	jal	90000028 <_bmxdudba_address+0x8fff0028>
9d007614:	53455449 	beql	k0,a1,9d01c73c <close+0x7d24>
9d007618:	000a0d54 	0xa0d54
9d00761c:	444c4f48 	0x444c4f48
9d007620:	00000a0d 	break	0x0,0x28
9d007624:	43415254 	c0	0x1415254
9d007628:	000a0d4b 	0xa0d4b
9d00762c:	00000000 	nop
9d007630:	1cac0831 	0x1cac0831
9d007634:	3fbb645a 	0x3fbb645a
9d007638:	00000000 	nop
9d00763c:	41f00000 	0x41f00000
9d007640:	00464e49 	0x464e49
9d007644:	00666e69 	0x666e69
9d007648:	004e414e 	0x4e414e
9d00764c:	006e616e 	0x6e616e
9d007650:	00000000 	nop
9d007654:	3ff00000 	0x3ff00000
9d007658:	00000000 	nop
9d00765c:	40240000 	0x40240000
9d007660:	00000000 	nop
9d007664:	43500000 	c0	0x1500000
9d007668:	00000000 	nop
9d00766c:	40140000 	mfc0	s4,c0_index
9d007670:	6c696e28 	0x6c696e28
9d007674:	00000029 	0x29
9d007678:	00666e69 	0x666e69
9d00767c:	006e616e 	0x6e616e
9d007680:	69666e69 	0x69666e69
9d007684:	7974696e 	0x7974696e
9d007688:	00000000 	nop
9d00768c:	006e616e 	0x6e616e
9d007690:	ffffffff 	sdc3	$31,-1(ra)
9d007694:	7fefffff 	0x7fefffff
9d007698:	00000000 	nop
9d00769c:	00100000 	sll	zero,s0,0x0
9d0076a0:	00000000 	nop
9d0076a4:	41cdcd65 	0x41cdcd65
9d0076a8:	00000000 	nop
9d0076ac:	3ff00000 	0x3ff00000
9d0076b0:	00000000 	nop
9d0076b4:	3fd00000 	0x3fd00000
9d0076b8:	00000000 	nop
9d0076bc:	3fe80000 	0x3fe80000
9d0076c0:	00000000 	nop
9d0076c4:	3fe00000 	0x3fe00000
9d0076c8:	00000000 	nop
9d0076cc:	43400000 	c0	0x1400000
9d0076d0:	00000000 	nop
9d0076d4:	fff00000 	sdc3	$16,0(ra)
9d0076d8:	ffffffff 	sdc3	$31,-1(ra)
9d0076dc:	7ff7ffff 	0x7ff7ffff
9d0076e0:	00000000 	nop
9d0076e4:	7ff00000 	ext	s0,ra,0x0,0x1
9d0076e8:	00000000 	nop
9d0076ec:	3fb00000 	0x3fb00000
9d0076f0:	00000000 	nop
9d0076f4:	c08ff000 	ll	t7,-4096(a0)
9d0076f8:	00000000 	nop
9d0076fc:	3ff00000 	0x3ff00000
9d007700:	00000000 	nop
9d007704:	3fe00000 	0x3fe00000
9d007708:	30773b76 	andi	s7,v1,0x3b76
9d00770c:	7fde42d1 	pick.ph	t0,s8,s8
9d007710:	00000000 	nop
9d007714:	43e00000 	c0	0x1e00000
9d007718:	00000000 	nop
9d00771c:	c3e00000 	ll	zero,0(ra)
9d007720:	f0000000 	0xf0000000
9d007724:	341fffff 	li	ra,0xffff
9d007728:	00000000 	nop
9d00772c:	07f00000 	bltzal	ra,9d007730 <__vector_dispatch_43+0xfd0>
9d007730:	00000000 	nop
9d007734:	7fe00000 	ext	zero,ra,0x0,0x1
9d007738:	00000000 	nop
9d00773c:	03600000 	0x3600000
9d007740:	00000000 	nop
9d007744:	41f00000 	0x41f00000

Disassembly of section ._debug_exception:

bfc00480 <__DbgExecReturn>:
bfc00480:	409bf800 	mtc0	k1,c0_desave
bfc00484:	000000c0 	ehb
bfc00488:	3c1b9d01 	lui	k1,0x9d01
bfc0048c:	277b3f30 	addiu	k1,k1,16176
bfc00490:	13600002 	beqz	k1,bfc0049c <__DbgExecReturn+0x1c>
bfc00494:	00000000 	nop
bfc00498:	409bc000 	mtc0	k1,c0_depc
bfc0049c:	401bf800 	mfc0	k1,c0_desave
bfc004a0:	000000c0 	ehb
bfc004a4:	4200001f 	deret
bfc004a8:	00000000 	nop

Disassembly of section .text.decfloat:

9d007748 <decfloat>:
9d007748:	27bdfdb0 	addiu	sp,sp,-592
9d00774c:	afb30234 	sw	s3,564(sp)
9d007750:	afb1022c 	sw	s1,556(sp)
9d007754:	afb00228 	sw	s0,552(sp)
9d007758:	afbf024c 	sw	ra,588(sp)
9d00775c:	afbe0248 	sw	s8,584(sp)
9d007760:	afb70244 	sw	s7,580(sp)
9d007764:	afb60240 	sw	s6,576(sp)
9d007768:	afb5023c 	sw	s5,572(sp)
9d00776c:	afb40238 	sw	s4,568(sp)
9d007770:	afb20230 	sw	s2,560(sp)
9d007774:	00808825 	move	s1,a0
9d007778:	00a01025 	move	v0,a1
9d00777c:	afa60258 	sw	a2,600(sp)
9d007780:	afa7025c 	sw	a3,604(sp)
9d007784:	00009825 	move	s3,zero
9d007788:	24100030 	li	s0,48
9d00778c:	1050004c 	beq	v0,s0,9d0078c0 <decfloat+0x178>
9d007790:	2403002e 	li	v1,46
9d007794:	1443006d 	bne	v0,v1,9d00794c <decfloat+0x204>
9d007798:	00009025 	move	s2,zero
9d00779c:	8e22003c 	lw	v0,60(s1)
9d0077a0:	8e23004c 	lw	v1,76(s1)
9d0077a4:	0043182b 	sltu	v1,v0,v1
9d0077a8:	10600052 	beqz	v1,9d0078f4 <decfloat+0x1ac>
9d0077ac:	24430001 	addiu	v1,v0,1
9d0077b0:	ae23003c 	sw	v1,60(s1)
9d0077b4:	90420000 	lbu	v0,0(v0)
9d0077b8:	00008025 	move	s0,zero
9d0077bc:	0000a025 	move	s4,zero
9d0077c0:	24150030 	li	s5,48
9d0077c4:	1055004f 	beq	v0,s5,9d007904 <decfloat+0x1bc>
9d0077c8:	24120001 	li	s2,1
9d0077cc:	afa00010 	sw	zero,16(sp)
9d0077d0:	0000b825 	move	s7,zero
9d0077d4:	0000f025 	move	s8,zero
9d0077d8:	00003025 	move	a2,zero
9d0077dc:	0000b025 	move	s6,zero
9d0077e0:	0000a825 	move	s5,zero
9d0077e4:	2407002e 	li	a3,46
9d0077e8:	24090030 	li	t1,48
9d0077ec:	240a0009 	li	t2,9
9d0077f0:	244bffd0 	addiu	t3,v0,-48
9d0077f4:	2d64000a 	sltiu	a0,t3,10
9d0077f8:	14800057 	bnez	a0,9d007958 <decfloat+0x210>
9d0077fc:	00000000 	nop
9d007800:	10470057 	beq	v0,a3,9d007960 <decfloat+0x218>
9d007804:	00000000 	nop
9d007808:	03d2800a 	movz	s0,s8,s2
9d00780c:	00d2a00a 	movz	s4,a2,s2
9d007810:	1260030c 	beqz	s3,9d008444 <decfloat+0xcfc>
9d007814:	34430020 	ori	v1,v0,0x20
9d007818:	24040065 	li	a0,101
9d00781c:	14640326 	bne	v1,a0,9d0084b8 <decfloat+0xd70>
9d007820:	8fa50264 	lw	a1,612(sp)
9d007824:	02202025 	move	a0,s1
9d007828:	0f403ae3 	jal	9d00eb8c <scanexp>
9d00782c:	afa60210 	sw	a2,528(sp)
9d007830:	1440000e 	bnez	v0,9d00786c <decfloat+0x124>
9d007834:	8fa60210 	lw	a2,528(sp)
9d007838:	3c048000 	lui	a0,0x8000
9d00783c:	5464000c 	bnel	v1,a0,9d007870 <decfloat+0x128>
9d007840:	02021021 	addu	v0,s0,v0
9d007844:	8fa30264 	lw	v1,612(sp)
9d007848:	1060030b 	beqz	v1,9d008478 <decfloat+0xd30>
9d00784c:	00002825 	move	a1,zero
9d007850:	8e24004c 	lw	a0,76(s1)
9d007854:	10800005 	beqz	a0,9d00786c <decfloat+0x124>
9d007858:	00001825 	move	v1,zero
9d00785c:	8e23003c 	lw	v1,60(s1)
9d007860:	2463ffff 	addiu	v1,v1,-1
9d007864:	ae23003c 	sw	v1,60(s1)
9d007868:	00401825 	move	v1,v0
9d00786c:	02021021 	addu	v0,s0,v0
9d007870:	0050202b 	sltu	a0,v0,s0
9d007874:	0283a021 	addu	s4,s4,v1
9d007878:	00408025 	move	s0,v0
9d00787c:	0094a021 	addu	s4,a0,s4
9d007880:	8fa40260 	lw	a0,608(sp)
9d007884:	8fb10010 	lw	s1,16(sp)
9d007888:	0f404cf9 	jal	9d0133e4 <__floatsidf>
9d00788c:	afa60210 	sw	a2,528(sp)
9d007890:	00409025 	move	s2,v0
9d007894:	00609825 	move	s3,v1
9d007898:	16200065 	bnez	s1,9d007a30 <decfloat+0x2e8>
9d00789c:	8fa60210 	lw	a2,528(sp)
9d0078a0:	00003025 	move	a2,zero
9d0078a4:	00003825 	move	a3,zero
9d0078a8:	00402025 	move	a0,v0
9d0078ac:	00602825 	move	a1,v1
9d0078b0:	0f4038ac 	jal	9d00e2b0 <__muldf3>
9d0078b4:	00000000 	nop
9d0078b8:	100002f4 	b	9d00848c <decfloat+0xd44>
9d0078bc:	8fbf024c 	lw	ra,588(sp)
9d0078c0:	8e22003c 	lw	v0,60(s1)
9d0078c4:	8e23004c 	lw	v1,76(s1)
9d0078c8:	0043182b 	sltu	v1,v0,v1
9d0078cc:	10600005 	beqz	v1,9d0078e4 <decfloat+0x19c>
9d0078d0:	24430001 	addiu	v1,v0,1
9d0078d4:	ae23003c 	sw	v1,60(s1)
9d0078d8:	90420000 	lbu	v0,0(v0)
9d0078dc:	1000ffab 	b	9d00778c <decfloat+0x44>
9d0078e0:	24130001 	li	s3,1
9d0078e4:	0f4048dc 	jal	9d012370 <__shgetc>
9d0078e8:	02202025 	move	a0,s1
9d0078ec:	1000ffa7 	b	9d00778c <decfloat+0x44>
9d0078f0:	24130001 	li	s3,1
9d0078f4:	0f4048dc 	jal	9d012370 <__shgetc>
9d0078f8:	02202025 	move	a0,s1
9d0078fc:	1000ffaf 	b	9d0077bc <decfloat+0x74>
9d007900:	00008025 	move	s0,zero
9d007904:	8e22003c 	lw	v0,60(s1)
9d007908:	8e23004c 	lw	v1,76(s1)
9d00790c:	0043182b 	sltu	v1,v0,v1
9d007910:	1060000a 	beqz	v1,9d00793c <decfloat+0x1f4>
9d007914:	24430001 	addiu	v1,v0,1
9d007918:	ae23003c 	sw	v1,60(s1)
9d00791c:	90420000 	lbu	v0,0(v0)
9d007920:	2604ffff 	addiu	a0,s0,-1
9d007924:	0090182b 	sltu	v1,a0,s0
9d007928:	2694ffff 	addiu	s4,s4,-1
9d00792c:	00808025 	move	s0,a0
9d007930:	0074a021 	addu	s4,v1,s4
9d007934:	1000ffa3 	b	9d0077c4 <decfloat+0x7c>
9d007938:	24130001 	li	s3,1
9d00793c:	0f4048dc 	jal	9d012370 <__shgetc>
9d007940:	02202025 	move	a0,s1
9d007944:	1000fff7 	b	9d007924 <decfloat+0x1dc>
9d007948:	2604ffff 	addiu	a0,s0,-1
9d00794c:	00008025 	move	s0,zero
9d007950:	1000ff9e 	b	9d0077cc <decfloat+0x84>
9d007954:	0000a025 	move	s4,zero
9d007958:	1447000d 	bne	v0,a3,9d007990 <decfloat+0x248>
9d00795c:	27c40001 	addiu	a0,s8,1
9d007960:	16400031 	bnez	s2,9d007a28 <decfloat+0x2e0>
9d007964:	24120001 	li	s2,1
9d007968:	03c08025 	move	s0,s8
9d00796c:	00c0a025 	move	s4,a2
9d007970:	8e22003c 	lw	v0,60(s1)
9d007974:	8e24004c 	lw	a0,76(s1)
9d007978:	0044202b 	sltu	a0,v0,a0
9d00797c:	10800022 	beqz	a0,9d007a08 <decfloat+0x2c0>
9d007980:	24440001 	addiu	a0,v0,1
9d007984:	ae24003c 	sw	a0,60(s1)
9d007988:	1000ff99 	b	9d0077f0 <decfloat+0xa8>
9d00798c:	90420000 	lbu	v0,0(v0)
9d007990:	009e282b 	sltu	a1,a0,s8
9d007994:	0080f025 	move	s8,a0
9d007998:	2ac4007d 	slti	a0,s6,125
9d00799c:	10800014 	beqz	a0,9d0079f0 <decfloat+0x2a8>
9d0079a0:	00a63021 	addu	a2,a1,a2
9d0079a4:	38420030 	xori	v0,v0,0x30
9d0079a8:	03c2b80b 	movn	s7,s8,v0
9d0079ac:	12a00007 	beqz	s5,9d0079cc <decfloat+0x284>
9d0079b0:	00161080 	sll	v0,s6,0x2
9d0079b4:	27a30010 	addiu	v1,sp,16
9d0079b8:	00622021 	addu	a0,v1,v0
9d0079bc:	8c840000 	lw	a0,0(a0)
9d0079c0:	2405000a 	li	a1,10
9d0079c4:	70a41802 	mul	v1,a1,a0
9d0079c8:	006b5821 	addu	t3,v1,t3
9d0079cc:	27a30010 	addiu	v1,sp,16
9d0079d0:	00621021 	addu	v0,v1,v0
9d0079d4:	26b50001 	addiu	s5,s5,1
9d0079d8:	ac4b0000 	sw	t3,0(v0)
9d0079dc:	16aaffe4 	bne	s5,t2,9d007970 <decfloat+0x228>
9d0079e0:	24130001 	li	s3,1
9d0079e4:	26d60001 	addiu	s6,s6,1
9d0079e8:	1000ffe1 	b	9d007970 <decfloat+0x228>
9d0079ec:	0000a825 	move	s5,zero
9d0079f0:	1049ffdf 	beq	v0,t1,9d007970 <decfloat+0x228>
9d0079f4:	8fa20200 	lw	v0,512(sp)
9d0079f8:	2417045c 	li	s7,1116
9d0079fc:	34420001 	ori	v0,v0,0x1
9d007a00:	1000ffdb 	b	9d007970 <decfloat+0x228>
9d007a04:	afa20200 	sw	v0,512(sp)
9d007a08:	02202025 	move	a0,s1
9d007a0c:	0f4048dc 	jal	9d012370 <__shgetc>
9d007a10:	afa60210 	sw	a2,528(sp)
9d007a14:	240a0009 	li	t2,9
9d007a18:	24090030 	li	t1,48
9d007a1c:	2407002e 	li	a3,46
9d007a20:	1000ff73 	b	9d0077f0 <decfloat+0xa8>
9d007a24:	8fa60210 	lw	a2,528(sp)
9d007a28:	1000ff79 	b	9d007810 <decfloat+0xc8>
9d007a2c:	2402002e 	li	v0,46
9d007a30:	17d00016 	bne	s8,s0,9d007a8c <decfloat+0x344>
9d007a34:	8fa2025c 	lw	v0,604(sp)
9d007a38:	14d40015 	bne	a2,s4,9d007a90 <decfloat+0x348>
9d007a3c:	8fa3025c 	lw	v1,604(sp)
9d007a40:	1e800014 	bgtz	s4,9d007a94 <decfloat+0x34c>
9d007a44:	000217c2 	srl	v0,v0,0x1f
9d007a48:	16800003 	bnez	s4,9d007a58 <decfloat+0x310>
9d007a4c:	2e02000a 	sltiu	v0,s0,10
9d007a50:	1040000f 	beqz	v0,9d007a90 <decfloat+0x348>
9d007a54:	8fa2025c 	lw	v0,604(sp)
9d007a58:	8fa20258 	lw	v0,600(sp)
9d007a5c:	2842001f 	slti	v0,v0,31
9d007a60:	10400005 	beqz	v0,9d007a78 <decfloat+0x330>
9d007a64:	00000000 	nop
9d007a68:	8fa20258 	lw	v0,600(sp)
9d007a6c:	00511006 	srlv	v0,s1,v0
9d007a70:	54400006 	bnezl	v0,9d007a8c <decfloat+0x344>
9d007a74:	8fa2025c 	lw	v0,604(sp)
9d007a78:	0f404fff 	jal	9d013ffc <__floatunsidf>
9d007a7c:	02202025 	move	a0,s1
9d007a80:	02403025 	move	a2,s2
9d007a84:	1000ff88 	b	9d0078a8 <decfloat+0x160>
9d007a88:	02603825 	move	a3,s3
9d007a8c:	8fa3025c 	lw	v1,604(sp)
9d007a90:	000217c2 	srl	v0,v0,0x1f
9d007a94:	00431021 	addu	v0,v0,v1
9d007a98:	00021043 	sra	v0,v0,0x1
9d007a9c:	00021023 	negu	v0,v0
9d007aa0:	00021fc3 	sra	v1,v0,0x1f
9d007aa4:	0074202a 	slt	a0,v1,s4
9d007aa8:	54800006 	bnezl	a0,9d007ac4 <decfloat+0x37c>
9d007aac:	3c109d00 	lui	s0,0x9d00
9d007ab0:	1683000f 	bne	s4,v1,9d007af0 <decfloat+0x3a8>
9d007ab4:	0050102b 	sltu	v0,v0,s0
9d007ab8:	5040000e 	beqzl	v0,9d007af4 <decfloat+0x3ac>
9d007abc:	8fa2025c 	lw	v0,604(sp)
9d007ac0:	3c109d00 	lui	s0,0x9d00
9d007ac4:	8e067690 	lw	a2,30352(s0)
9d007ac8:	8e077694 	lw	a3,30356(s0)
9d007acc:	3c02a000 	lui	v0,0xa000
9d007ad0:	24030022 	li	v1,34
9d007ad4:	ac43107c 	sw	v1,4220(v0)
9d007ad8:	02402025 	move	a0,s2
9d007adc:	0f4038ac 	jal	9d00e2b0 <__muldf3>
9d007ae0:	02602825 	move	a1,s3
9d007ae4:	8e067690 	lw	a2,30352(s0)
9d007ae8:	1000ff6f 	b	9d0078a8 <decfloat+0x160>
9d007aec:	8e077694 	lw	a3,30356(s0)
9d007af0:	8fa2025c 	lw	v0,604(sp)
9d007af4:	2442ff96 	addiu	v0,v0,-106
9d007af8:	00021fc3 	sra	v1,v0,0x1f
9d007afc:	0283202a 	slt	a0,s4,v1
9d007b00:	54800006 	bnezl	a0,9d007b1c <decfloat+0x3d4>
9d007b04:	3c109d00 	lui	s0,0x9d00
9d007b08:	1474000f 	bne	v1,s4,9d007b48 <decfloat+0x400>
9d007b0c:	0202102b 	sltu	v0,s0,v0
9d007b10:	1040000d 	beqz	v0,9d007b48 <decfloat+0x400>
9d007b14:	00000000 	nop
9d007b18:	3c109d00 	lui	s0,0x9d00
9d007b1c:	8e067698 	lw	a2,30360(s0)
9d007b20:	8e07769c 	lw	a3,30364(s0)
9d007b24:	3c02a000 	lui	v0,0xa000
9d007b28:	24030022 	li	v1,34
9d007b2c:	ac43107c 	sw	v1,4220(v0)
9d007b30:	02402025 	move	a0,s2
9d007b34:	0f4038ac 	jal	9d00e2b0 <__muldf3>
9d007b38:	02602825 	move	a1,s3
9d007b3c:	8e067698 	lw	a2,30360(s0)
9d007b40:	1000ff59 	b	9d0078a8 <decfloat+0x160>
9d007b44:	8e07769c 	lw	a3,30364(s0)
9d007b48:	12a00008 	beqz	s5,9d007b6c <decfloat+0x424>
9d007b4c:	00161080 	sll	v0,s6,0x2
9d007b50:	27a30010 	addiu	v1,sp,16
9d007b54:	00621021 	addu	v0,v1,v0
9d007b58:	2404000a 	li	a0,10
9d007b5c:	2aa30009 	slti	v1,s5,9
9d007b60:	54600027 	bnezl	v1,9d007c00 <decfloat+0x4b8>
9d007b64:	8c430000 	lw	v1,0(v0)
9d007b68:	26d60001 	addiu	s6,s6,1
9d007b6c:	2ae20009 	slti	v0,s7,9
9d007b70:	10400047 	beqz	v0,9d007c90 <decfloat+0x548>
9d007b74:	0200a025 	move	s4,s0
9d007b78:	0217b82a 	slt	s7,s0,s7
9d007b7c:	16e00044 	bnez	s7,9d007c90 <decfloat+0x548>
9d007b80:	2a020012 	slti	v0,s0,18
9d007b84:	10400042 	beqz	v0,9d007c90 <decfloat+0x548>
9d007b88:	24020009 	li	v0,9
9d007b8c:	1202ffba 	beq	s0,v0,9d007a78 <decfloat+0x330>
9d007b90:	8fb10010 	lw	s1,16(sp)
9d007b94:	2a020009 	slti	v0,s0,9
9d007b98:	5040001d 	beqzl	v0,9d007c10 <decfloat+0x4c8>
9d007b9c:	2602fff7 	addiu	v0,s0,-9
9d007ba0:	0f404fff 	jal	9d013ffc <__floatunsidf>
9d007ba4:	02202025 	move	a0,s1
9d007ba8:	00602825 	move	a1,v1
9d007bac:	02403025 	move	a2,s2
9d007bb0:	02603825 	move	a3,s3
9d007bb4:	0f4038ac 	jal	9d00e2b0 <__muldf3>
9d007bb8:	00402025 	move	a0,v0
9d007bbc:	00409025 	move	s2,v0
9d007bc0:	24020008 	li	v0,8
9d007bc4:	00508023 	subu	s0,v0,s0
9d007bc8:	3c029d01 	lui	v0,0x9d01
9d007bcc:	24424438 	addiu	v0,v0,17464
9d007bd0:	00108080 	sll	s0,s0,0x2
9d007bd4:	02028021 	addu	s0,s0,v0
9d007bd8:	8e040000 	lw	a0,0(s0)
9d007bdc:	0f404cf9 	jal	9d0133e4 <__floatsidf>
9d007be0:	00609825 	move	s3,v1
9d007be4:	00403025 	move	a2,v0
9d007be8:	00603825 	move	a3,v1
9d007bec:	02402025 	move	a0,s2
9d007bf0:	0f403064 	jal	9d00c190 <__divdf3>
9d007bf4:	02602825 	move	a1,s3
9d007bf8:	10000224 	b	9d00848c <decfloat+0xd44>
9d007bfc:	8fbf024c 	lw	ra,588(sp)
9d007c00:	26b50001 	addiu	s5,s5,1
9d007c04:	70641802 	mul	v1,v1,a0
9d007c08:	1000ffd4 	b	9d007b5c <decfloat+0x414>
9d007c0c:	ac430000 	sw	v1,0(v0)
9d007c10:	00021880 	sll	v1,v0,0x2
9d007c14:	00431023 	subu	v0,v0,v1
9d007c18:	8fa30258 	lw	v1,600(sp)
9d007c1c:	00431021 	addu	v0,v0,v1
9d007c20:	2843001f 	slti	v1,v0,31
9d007c24:	50600005 	beqzl	v1,9d007c3c <decfloat+0x4f4>
9d007c28:	2610fff6 	addiu	s0,s0,-10
9d007c2c:	00511006 	srlv	v0,s1,v0
9d007c30:	54400018 	bnezl	v0,9d007c94 <decfloat+0x54c>
9d007c34:	26c3ffff 	addiu	v1,s6,-1
9d007c38:	2610fff6 	addiu	s0,s0,-10
9d007c3c:	3c029d01 	lui	v0,0x9d01
9d007c40:	24424438 	addiu	v0,v0,17464
9d007c44:	00108080 	sll	s0,s0,0x2
9d007c48:	02028021 	addu	s0,s0,v0
9d007c4c:	0f404cf9 	jal	9d0133e4 <__floatsidf>
9d007c50:	8e040000 	lw	a0,0(s0)
9d007c54:	02202025 	move	a0,s1
9d007c58:	0040a025 	move	s4,v0
9d007c5c:	0f404fff 	jal	9d013ffc <__floatunsidf>
9d007c60:	0060a825 	move	s5,v1
9d007c64:	00402025 	move	a0,v0
9d007c68:	02403025 	move	a2,s2
9d007c6c:	02603825 	move	a3,s3
9d007c70:	0f4038ac 	jal	9d00e2b0 <__muldf3>
9d007c74:	00602825 	move	a1,v1
9d007c78:	00403025 	move	a2,v0
9d007c7c:	00603825 	move	a3,v1
9d007c80:	02802025 	move	a0,s4
9d007c84:	1000ff0a 	b	9d0078b0 <decfloat+0x168>
9d007c88:	02a02825 	move	a1,s5
9d007c8c:	0060b025 	move	s6,v1
9d007c90:	26c3ffff 	addiu	v1,s6,-1
9d007c94:	00031080 	sll	v0,v1,0x2
9d007c98:	27a40010 	addiu	a0,sp,16
9d007c9c:	00821021 	addu	v0,a0,v0
9d007ca0:	8c420000 	lw	v0,0(v0)
9d007ca4:	1040fff9 	beqz	v0,9d007c8c <decfloat+0x544>
9d007ca8:	24090009 	li	t1,9
9d007cac:	0209001a 	div	zero,s0,t1
9d007cb0:	012001f4 	teq	t1,zero,0x7
9d007cb4:	00004810 	mfhi	t1
9d007cb8:	1120001c 	beqz	t1,9d007d2c <decfloat+0x5e4>
9d007cbc:	3c0c0089 	lui	t4,0x89
9d007cc0:	06020001 	bltzl	s0,9d007cc8 <decfloat+0x580>
9d007cc4:	25290009 	addiu	t1,t1,9
9d007cc8:	24020008 	li	v0,8
9d007ccc:	00491023 	subu	v0,v0,t1
9d007cd0:	3c039d01 	lui	v1,0x9d01
9d007cd4:	24634438 	addiu	v1,v1,17464
9d007cd8:	00021080 	sll	v0,v0,0x2
9d007cdc:	00431021 	addu	v0,v0,v1
9d007ce0:	8c460000 	lw	a2,0(v0)
9d007ce4:	3c073b9a 	lui	a3,0x3b9a
9d007ce8:	27a50010 	addiu	a1,sp,16
9d007cec:	00001825 	move	v1,zero
9d007cf0:	00005025 	move	t2,zero
9d007cf4:	00002025 	move	a0,zero
9d007cf8:	34e7ca00 	ori	a3,a3,0xca00
9d007cfc:	54960052 	bnel	a0,s6,9d007e48 <decfloat+0x700>
9d007d00:	8ca20000 	lw	v0,0(a1)
9d007d04:	10600005 	beqz	v1,9d007d1c <decfloat+0x5d4>
9d007d08:	00161080 	sll	v0,s6,0x2
9d007d0c:	27a40010 	addiu	a0,sp,16
9d007d10:	00821021 	addu	v0,a0,v0
9d007d14:	ac430000 	sw	v1,0(v0)
9d007d18:	26d60001 	addiu	s6,s6,1
9d007d1c:	0289a023 	subu	s4,s4,t1
9d007d20:	26940009 	addiu	s4,s4,9
9d007d24:	01404825 	move	t1,t2
9d007d28:	3c0c0089 	lui	t4,0x89
9d007d2c:	3c103b9a 	lui	s0,0x3b9a
9d007d30:	3c0d3b9a 	lui	t5,0x3b9a
9d007d34:	0000b825 	move	s7,zero
9d007d38:	240e0012 	li	t6,18
9d007d3c:	258c705f 	addiu	t4,t4,28767
9d007d40:	3610ca00 	ori	s0,s0,0xca00
9d007d44:	00008825 	move	s1,zero
9d007d48:	35adca01 	ori	t5,t5,0xca01
9d007d4c:	2a820012 	slti	v0,s4,18
9d007d50:	14400050 	bnez	v0,9d007e94 <decfloat+0x74c>
9d007d54:	26d5ffff 	addiu	s5,s6,-1
9d007d58:	168e0007 	bne	s4,t6,9d007d78 <decfloat+0x630>
9d007d5c:	00091080 	sll	v0,t1,0x2
9d007d60:	27a30010 	addiu	v1,sp,16
9d007d64:	00621021 	addu	v0,v1,v0
9d007d68:	8c420000 	lw	v0,0(v0)
9d007d6c:	004c102b 	sltu	v0,v0,t4
9d007d70:	14400049 	bnez	v0,9d007e98 <decfloat+0x750>
9d007d74:	32b5007f 	andi	s5,s5,0x7f
9d007d78:	3c040089 	lui	a0,0x89
9d007d7c:	3c050f2f 	lui	a1,0xf2f
9d007d80:	3c063b9a 	lui	a2,0x3b9a
9d007d84:	240a0012 	li	t2,18
9d007d88:	2484705f 	addiu	a0,a0,28767
9d007d8c:	24a50a00 	addiu	a1,a1,2560
9d007d90:	24070001 	li	a3,1
9d007d94:	240b0009 	li	t3,9
9d007d98:	34c6ca00 	ori	a2,a2,0xca00
9d007d9c:	11360012 	beq	t1,s6,9d007de8 <decfloat+0x6a0>
9d007da0:	27a30010 	addiu	v1,sp,16
9d007da4:	00091080 	sll	v0,t1,0x2
9d007da8:	00621021 	addu	v0,v1,v0
9d007dac:	8c420000 	lw	v0,0(v0)
9d007db0:	0044182b 	sltu	v1,v0,a0
9d007db4:	1460000c 	bnez	v1,9d007de8 <decfloat+0x6a0>
9d007db8:	00000000 	nop
9d007dbc:	1444000c 	bne	v0,a0,9d007df0 <decfloat+0x6a8>
9d007dc0:	25220001 	addiu	v0,t1,1
9d007dc4:	3042007f 	andi	v0,v0,0x7f
9d007dc8:	12c20007 	beq	s6,v0,9d007de8 <decfloat+0x6a0>
9d007dcc:	00021080 	sll	v0,v0,0x2
9d007dd0:	27a30010 	addiu	v1,sp,16
9d007dd4:	00621021 	addu	v0,v1,v0
9d007dd8:	8c420000 	lw	v0,0(v0)
9d007ddc:	0045102b 	sltu	v0,v0,a1
9d007de0:	10400004 	beqz	v0,9d007df4 <decfloat+0x6ac>
9d007de4:	2a83001c 	slti	v1,s4,28
9d007de8:	128a0093 	beq	s4,t2,9d008038 <decfloat+0x8f0>
9d007dec:	00000000 	nop
9d007df0:	2a83001c 	slti	v1,s4,28
9d007df4:	01601025 	move	v0,t3
9d007df8:	00e3100b 	movn	v0,a3,v1
9d007dfc:	0047c004 	sllv	t8,a3,v0
9d007e00:	00401825 	move	v1,v0
9d007e04:	0046c807 	srav	t9,a2,v0
9d007e08:	2718ffff 	addiu	t8,t8,-1
9d007e0c:	01201025 	move	v0,t1
9d007e10:	00006025 	move	t4,zero
9d007e14:	5456006d 	bnel	v0,s6,9d007fcc <decfloat+0x884>
9d007e18:	00027080 	sll	t6,v0,0x2
9d007e1c:	11800008 	beqz	t4,9d007e40 <decfloat+0x6f8>
9d007e20:	26c20001 	addiu	v0,s6,1
9d007e24:	3042007f 	andi	v0,v0,0x7f
9d007e28:	1049007a 	beq	v0,t1,9d008014 <decfloat+0x8cc>
9d007e2c:	00164080 	sll	t0,s6,0x2
9d007e30:	27ad0010 	addiu	t5,sp,16
9d007e34:	01a84021 	addu	t0,t5,t0
9d007e38:	ad0c0000 	sw	t4,0(t0)
9d007e3c:	0040b025 	move	s6,v0
9d007e40:	1000ffd6 	b	9d007d9c <decfloat+0x654>
9d007e44:	02e3b821 	addu	s7,s7,v1
9d007e48:	248b0001 	addiu	t3,a0,1
9d007e4c:	0046001b 	divu	zero,v0,a2
9d007e50:	00c001f4 	teq	a2,zero,0x7
9d007e54:	00001012 	mflo	v0
9d007e58:	00431021 	addu	v0,v0,v1
9d007e5c:	148a0005 	bne	a0,t2,9d007e74 <decfloat+0x72c>
9d007e60:	00006010 	mfhi	t4
9d007e64:	14400003 	bnez	v0,9d007e74 <decfloat+0x72c>
9d007e68:	00000000 	nop
9d007e6c:	316a007f 	andi	t2,t3,0x7f
9d007e70:	2694fff7 	addiu	s4,s4,-9
9d007e74:	00e6001a 	div	zero,a3,a2
9d007e78:	00c001f4 	teq	a2,zero,0x7
9d007e7c:	aca20000 	sw	v0,0(a1)
9d007e80:	01602025 	move	a0,t3
9d007e84:	24a50004 	addiu	a1,a1,4
9d007e88:	00001012 	mflo	v0
9d007e8c:	1000ff9b 	b	9d007cfc <decfloat+0x5b4>
9d007e90:	704c1802 	mul	v1,v0,t4
9d007e94:	32b5007f 	andi	s5,s5,0x7f
9d007e98:	00005025 	move	t2,zero
9d007e9c:	00155880 	sll	t3,s5,0x2
9d007ea0:	27a20010 	addiu	v0,sp,16
9d007ea4:	004b1021 	addu	v0,v0,t3
9d007ea8:	8c5e0000 	lw	s8,0(v0)
9d007eac:	001e10c2 	srl	v0,s8,0x3
9d007eb0:	001ef740 	sll	s8,s8,0x1d
9d007eb4:	03ca7821 	addu	t7,s8,t2
9d007eb8:	01fef02b 	sltu	s8,t7,s8
9d007ebc:	03c2f021 	addu	s8,s8,v0
9d007ec0:	17c00003 	bnez	s8,9d007ed0 <decfloat+0x788>
9d007ec4:	01ed102b 	sltu	v0,t7,t5
9d007ec8:	14400024 	bnez	v0,9d007f5c <decfloat+0x814>
9d007ecc:	01e01025 	move	v0,t7
9d007ed0:	01e02025 	move	a0,t7
9d007ed4:	02003025 	move	a2,s0
9d007ed8:	02203825 	move	a3,s1
9d007edc:	03c02825 	move	a1,s8
9d007ee0:	afab0220 	sw	t3,544(sp)
9d007ee4:	afa90218 	sw	t1,536(sp)
9d007ee8:	0f4036cf 	jal	9d00db3c <__udivdi3>
9d007eec:	afaf0214 	sw	t7,532(sp)
9d007ef0:	8faf0214 	lw	t7,532(sp)
9d007ef4:	02003025 	move	a2,s0
9d007ef8:	02203825 	move	a3,s1
9d007efc:	01e02025 	move	a0,t7
9d007f00:	03c02825 	move	a1,s8
9d007f04:	0f4037be 	jal	9d00def8 <__umoddi3>
9d007f08:	afa20210 	sw	v0,528(sp)
9d007f0c:	3c030089 	lui	v1,0x89
9d007f10:	8faa0210 	lw	t2,528(sp)
9d007f14:	8fa90218 	lw	t1,536(sp)
9d007f18:	8fab0220 	lw	t3,544(sp)
9d007f1c:	346c705f 	ori	t4,v1,0x705f
9d007f20:	3c033b9a 	lui	v1,0x3b9a
9d007f24:	240e0012 	li	t6,18
9d007f28:	346dca01 	ori	t5,v1,0xca01
9d007f2c:	27a30010 	addiu	v1,sp,16
9d007f30:	006b5821 	addu	t3,v1,t3
9d007f34:	26c3ffff 	addiu	v1,s6,-1
9d007f38:	3063007f 	andi	v1,v1,0x7f
9d007f3c:	14750009 	bne	v1,s5,9d007f64 <decfloat+0x81c>
9d007f40:	ad620000 	sw	v0,0(t3)
9d007f44:	52a90009 	beql	s5,t1,9d007f6c <decfloat+0x824>
9d007f48:	01201825 	move	v1,t1
9d007f4c:	02a2b00a 	movz	s6,s5,v0
9d007f50:	26b5ffff 	addiu	s5,s5,-1
9d007f54:	1000ffd1 	b	9d007e9c <decfloat+0x754>
9d007f58:	32b5007f 	andi	s5,s5,0x7f
9d007f5c:	1000fff3 	b	9d007f2c <decfloat+0x7e4>
9d007f60:	00005025 	move	t2,zero
9d007f64:	56a9fffb 	bnel	s5,t1,9d007f54 <decfloat+0x80c>
9d007f68:	26b5ffff 	addiu	s5,s5,-1
9d007f6c:	5140ff77 	beqzl	t2,9d007d4c <decfloat+0x604>
9d007f70:	26f7ffe3 	addiu	s7,s7,-29
9d007f74:	2529ffff 	addiu	t1,t1,-1
9d007f78:	3129007f 	andi	t1,t1,0x7f
9d007f7c:	16c9000c 	bne	s6,t1,9d007fb0 <decfloat+0x868>
9d007f80:	2462ffff 	addiu	v0,v1,-1
9d007f84:	3042007f 	andi	v0,v0,0x7f
9d007f88:	27a40010 	addiu	a0,sp,16
9d007f8c:	00021080 	sll	v0,v0,0x2
9d007f90:	00032880 	sll	a1,v1,0x2
9d007f94:	00821021 	addu	v0,a0,v0
9d007f98:	00852821 	addu	a1,a0,a1
9d007f9c:	8ca50000 	lw	a1,0(a1)
9d007fa0:	8c440000 	lw	a0,0(v0)
9d007fa4:	0060b025 	move	s6,v1
9d007fa8:	00852025 	or	a0,a0,a1
9d007fac:	ac440000 	sw	a0,0(v0)
9d007fb0:	00091080 	sll	v0,t1,0x2
9d007fb4:	27a30010 	addiu	v1,sp,16
9d007fb8:	00621021 	addu	v0,v1,v0
9d007fbc:	26940009 	addiu	s4,s4,9
9d007fc0:	ac4a0000 	sw	t2,0(v0)
9d007fc4:	1000ff61 	b	9d007d4c <decfloat+0x604>
9d007fc8:	26f7ffe3 	addiu	s7,s7,-29
9d007fcc:	27a80010 	addiu	t0,sp,16
9d007fd0:	010e6821 	addu	t5,t0,t6
9d007fd4:	8dad0000 	lw	t5,0(t5)
9d007fd8:	006d7806 	srlv	t7,t5,v1
9d007fdc:	01ec6021 	addu	t4,t7,t4
9d007fe0:	14490005 	bne	v0,t1,9d007ff8 <decfloat+0x8b0>
9d007fe4:	244f0001 	addiu	t7,v0,1
9d007fe8:	55800004 	bnezl	t4,9d007ffc <decfloat+0x8b4>
9d007fec:	27a20010 	addiu	v0,sp,16
9d007ff0:	31e9007f 	andi	t1,t7,0x7f
9d007ff4:	2694fff7 	addiu	s4,s4,-9
9d007ff8:	27a20010 	addiu	v0,sp,16
9d007ffc:	004e7021 	addu	t6,v0,t6
9d008000:	adcc0000 	sw	t4,0(t6)
9d008004:	030d6024 	and	t4,t8,t5
9d008008:	71996002 	mul	t4,t4,t9
9d00800c:	1000ff81 	b	9d007e14 <decfloat+0x6cc>
9d008010:	31e2007f 	andi	v0,t7,0x7f
9d008014:	26c2ffff 	addiu	v0,s6,-1
9d008018:	3042007f 	andi	v0,v0,0x7f
9d00801c:	00021080 	sll	v0,v0,0x2
9d008020:	27a80010 	addiu	t0,sp,16
9d008024:	01021021 	addu	v0,t0,v0
9d008028:	8c4c0000 	lw	t4,0(v0)
9d00802c:	358c0001 	ori	t4,t4,0x1
9d008030:	1000ff83 	b	9d007e40 <decfloat+0x6f8>
9d008034:	ac4c0000 	sw	t4,0(v0)
9d008038:	15360007 	bne	t1,s6,9d008058 <decfloat+0x910>
9d00803c:	25340001 	addiu	s4,t1,1
9d008040:	3296007f 	andi	s6,s4,0x7f
9d008044:	26c2ffff 	addiu	v0,s6,-1
9d008048:	00021080 	sll	v0,v0,0x2
9d00804c:	27a30010 	addiu	v1,sp,16
9d008050:	00621021 	addu	v0,v1,v0
9d008054:	ac400000 	sw	zero,0(v0)
9d008058:	00091080 	sll	v0,t1,0x2
9d00805c:	27a30010 	addiu	v1,sp,16
9d008060:	00621021 	addu	v0,v1,v0
9d008064:	8c440000 	lw	a0,0(v0)
9d008068:	afa90210 	sw	t1,528(sp)
9d00806c:	0f404fff 	jal	9d013ffc <__floatunsidf>
9d008070:	3294007f 	andi	s4,s4,0x7f
9d008074:	00402025 	move	a0,v0
9d008078:	00602825 	move	a1,v1
9d00807c:	00003025 	move	a2,zero
9d008080:	0f4034c7 	jal	9d00d31c <__adddf3>
9d008084:	00003825 	move	a3,zero
9d008088:	00402025 	move	a0,v0
9d00808c:	00602825 	move	a1,v1
9d008090:	16d40008 	bne	s6,s4,9d0080b4 <decfloat+0x96c>
9d008094:	8fa90210 	lw	t1,528(sp)
9d008098:	26c80001 	addiu	t0,s6,1
9d00809c:	3116007f 	andi	s6,t0,0x7f
9d0080a0:	26c3ffff 	addiu	v1,s6,-1
9d0080a4:	00031880 	sll	v1,v1,0x2
9d0080a8:	27a20010 	addiu	v0,sp,16
9d0080ac:	00431821 	addu	v1,v0,v1
9d0080b0:	ac600000 	sw	zero,0(v1)
9d0080b4:	3c029d00 	lui	v0,0x9d00
9d0080b8:	8c4676a0 	lw	a2,30368(v0)
9d0080bc:	8c4776a4 	lw	a3,30372(v0)
9d0080c0:	afa90210 	sw	t1,528(sp)
9d0080c4:	0f4038ac 	jal	9d00e2b0 <__muldf3>
9d0080c8:	0014a080 	sll	s4,s4,0x2
9d0080cc:	00408025 	move	s0,v0
9d0080d0:	27a20010 	addiu	v0,sp,16
9d0080d4:	0054a021 	addu	s4,v0,s4
9d0080d8:	8e840000 	lw	a0,0(s4)
9d0080dc:	0f404fff 	jal	9d013ffc <__floatunsidf>
9d0080e0:	00608825 	move	s1,v1
9d0080e4:	00402025 	move	a0,v0
9d0080e8:	02003025 	move	a2,s0
9d0080ec:	02203825 	move	a3,s1
9d0080f0:	0f4034c7 	jal	9d00d31c <__adddf3>
9d0080f4:	00602825 	move	a1,v1
9d0080f8:	00403025 	move	a2,v0
9d0080fc:	00603825 	move	a3,v1
9d008100:	02402025 	move	a0,s2
9d008104:	0f4038ac 	jal	9d00e2b0 <__muldf3>
9d008108:	02602825 	move	a1,s3
9d00810c:	0060a825 	move	s5,v1
9d008110:	8fa3025c 	lw	v1,604(sp)
9d008114:	0040a025 	move	s4,v0
9d008118:	26e20035 	addiu	v0,s7,53
9d00811c:	00431023 	subu	v0,v0,v1
9d008120:	8fa30258 	lw	v1,600(sp)
9d008124:	afa20214 	sw	v0,532(sp)
9d008128:	0043102a 	slt	v0,v0,v1
9d00812c:	104000b3 	beqz	v0,9d0083fc <decfloat+0xcb4>
9d008130:	8fa90210 	lw	t1,528(sp)
9d008134:	8fa20214 	lw	v0,532(sp)
9d008138:	044200b3 	bltzl	v0,9d008408 <decfloat+0xcc0>
9d00813c:	24020001 	li	v0,1
9d008140:	0040f025 	move	s8,v0
9d008144:	24020001 	li	v0,1
9d008148:	afa20210 	sw	v0,528(sp)
9d00814c:	2bc20035 	slti	v0,s8,53
9d008150:	afa00218 	sw	zero,536(sp)
9d008154:	afa0021c 	sw	zero,540(sp)
9d008158:	00008025 	move	s0,zero
9d00815c:	1040002a 	beqz	v0,9d008208 <decfloat+0xac0>
9d008160:	00008825 	move	s1,zero
9d008164:	3c029d00 	lui	v0,0x9d00
9d008168:	8c5076a8 	lw	s0,30376(v0)
9d00816c:	8c5176ac 	lw	s1,30380(v0)
9d008170:	24060069 	li	a2,105
9d008174:	02002025 	move	a0,s0
9d008178:	02202825 	move	a1,s1
9d00817c:	00de3023 	subu	a2,a2,s8
9d008180:	0f40473f 	jal	9d011cfc <scalbn>
9d008184:	afa90220 	sw	t1,544(sp)
9d008188:	00402025 	move	a0,v0
9d00818c:	02a03825 	move	a3,s5
9d008190:	02803025 	move	a2,s4
9d008194:	0f405137 	jal	9d0144dc <copysignl>
9d008198:	00602825 	move	a1,v1
9d00819c:	24060035 	li	a2,53
9d0081a0:	02002025 	move	a0,s0
9d0081a4:	02202825 	move	a1,s1
9d0081a8:	00de3023 	subu	a2,a2,s8
9d0081ac:	afa20218 	sw	v0,536(sp)
9d0081b0:	0f40473f 	jal	9d011cfc <scalbn>
9d0081b4:	afa3021c 	sw	v1,540(sp)
9d0081b8:	00403025 	move	a2,v0
9d0081bc:	02802025 	move	a0,s4
9d0081c0:	02a02825 	move	a1,s5
9d0081c4:	0f403b90 	jal	9d00ee40 <dpfmod>
9d0081c8:	00603825 	move	a3,v1
9d0081cc:	00403025 	move	a2,v0
9d0081d0:	02802025 	move	a0,s4
9d0081d4:	02a02825 	move	a1,s5
9d0081d8:	00603825 	move	a3,v1
9d0081dc:	00408025 	move	s0,v0
9d0081e0:	0f4034c5 	jal	9d00d314 <__subdf3>
9d0081e4:	00608825 	move	s1,v1
9d0081e8:	8fa40218 	lw	a0,536(sp)
9d0081ec:	8fa5021c 	lw	a1,540(sp)
9d0081f0:	00403025 	move	a2,v0
9d0081f4:	0f4034c7 	jal	9d00d31c <__adddf3>
9d0081f8:	00603825 	move	a3,v1
9d0081fc:	8fa90220 	lw	t1,544(sp)
9d008200:	0040a025 	move	s4,v0
9d008204:	0060a825 	move	s5,v1
9d008208:	25220002 	addiu	v0,t1,2
9d00820c:	3042007f 	andi	v0,v0,0x7f
9d008210:	10560034 	beq	v0,s6,9d0082e4 <decfloat+0xb9c>
9d008214:	27a30010 	addiu	v1,sp,16
9d008218:	00021080 	sll	v0,v0,0x2
9d00821c:	00621021 	addu	v0,v1,v0
9d008220:	8c430000 	lw	v1,0(v0)
9d008224:	3c021dcd 	lui	v0,0x1dcd
9d008228:	24426500 	addiu	v0,v0,25856
9d00822c:	0062202b 	sltu	a0,v1,v0
9d008230:	10800078 	beqz	a0,9d008414 <decfloat+0xccc>
9d008234:	00000000 	nop
9d008238:	14600004 	bnez	v1,9d00824c <decfloat+0xb04>
9d00823c:	25290003 	addiu	t1,t1,3
9d008240:	3129007f 	andi	t1,t1,0x7f
9d008244:	1136000f 	beq	t1,s6,9d008284 <decfloat+0xb3c>
9d008248:	24020035 	li	v0,53
9d00824c:	3c029d00 	lui	v0,0x9d00
9d008250:	8c4676b0 	lw	a2,30384(v0)
9d008254:	8c4776b4 	lw	a3,30388(v0)
9d008258:	02402025 	move	a0,s2
9d00825c:	0f4038ac 	jal	9d00e2b0 <__muldf3>
9d008260:	02602825 	move	a1,s3
9d008264:	00403025 	move	a2,v0
9d008268:	02002025 	move	a0,s0
9d00826c:	02202825 	move	a1,s1
9d008270:	0f4034c7 	jal	9d00d31c <__adddf3>
9d008274:	00603825 	move	a3,v1
9d008278:	00408025 	move	s0,v0
9d00827c:	00608825 	move	s1,v1
9d008280:	24020035 	li	v0,53
9d008284:	005e1023 	subu	v0,v0,s8
9d008288:	28420002 	slti	v0,v0,2
9d00828c:	14400015 	bnez	v0,9d0082e4 <decfloat+0xb9c>
9d008290:	3c029d00 	lui	v0,0x9d00
9d008294:	8c5276a8 	lw	s2,30376(v0)
9d008298:	8c5376ac 	lw	s3,30380(v0)
9d00829c:	02002025 	move	a0,s0
9d0082a0:	02403025 	move	a2,s2
9d0082a4:	02603825 	move	a3,s3
9d0082a8:	0f403b90 	jal	9d00ee40 <dpfmod>
9d0082ac:	02202825 	move	a1,s1
9d0082b0:	00402025 	move	a0,v0
9d0082b4:	00003025 	move	a2,zero
9d0082b8:	00003825 	move	a3,zero
9d0082bc:	0f40448e 	jal	9d011238 <__eqdf2>
9d0082c0:	00602825 	move	a1,v1
9d0082c4:	14400007 	bnez	v0,9d0082e4 <decfloat+0xb9c>
9d0082c8:	02002025 	move	a0,s0
9d0082cc:	02202825 	move	a1,s1
9d0082d0:	02403025 	move	a2,s2
9d0082d4:	0f4034c7 	jal	9d00d31c <__adddf3>
9d0082d8:	02603825 	move	a3,s3
9d0082dc:	00408025 	move	s0,v0
9d0082e0:	00608825 	move	s1,v1
9d0082e4:	8fa2025c 	lw	v0,604(sp)
9d0082e8:	8fa30258 	lw	v1,600(sp)
9d0082ec:	02003025 	move	a2,s0
9d0082f0:	00021023 	negu	v0,v0
9d0082f4:	02203825 	move	a3,s1
9d0082f8:	02802025 	move	a0,s4
9d0082fc:	02a02825 	move	a1,s5
9d008300:	0f4034c7 	jal	9d00d31c <__adddf3>
9d008304:	0043b023 	subu	s6,v0,v1
9d008308:	8fa60218 	lw	a2,536(sp)
9d00830c:	8fa7021c 	lw	a3,540(sp)
9d008310:	00402025 	move	a0,v0
9d008314:	0f4034c5 	jal	9d00d314 <__subdf3>
9d008318:	00602825 	move	a1,v1
9d00831c:	00409025 	move	s2,v0
9d008320:	26e20035 	addiu	v0,s7,53
9d008324:	00609825 	move	s3,v1
9d008328:	7c42f000 	ext	v0,v0,0x0,0x1f
9d00832c:	26c3ffff 	addiu	v1,s6,-1
9d008330:	0043102a 	slt	v0,v0,v1
9d008334:	1440002c 	bnez	v0,9d0083e8 <decfloat+0xca0>
9d008338:	02e03025 	move	a2,s7
9d00833c:	02402025 	move	a0,s2
9d008340:	0f40522b 	jal	9d0148ac <fabsl>
9d008344:	02602825 	move	a1,s3
9d008348:	3c049d00 	lui	a0,0x9d00
9d00834c:	8c8676c8 	lw	a2,30408(a0)
9d008350:	8c8776cc 	lw	a3,30412(a0)
9d008354:	00602825 	move	a1,v1
9d008358:	0f40448e 	jal	9d011238 <__eqdf2>
9d00835c:	00402025 	move	a0,v0
9d008360:	0440000f 	bltz	v0,9d0083a0 <decfloat+0xc58>
9d008364:	8fa20210 	lw	v0,528(sp)
9d008368:	10400004 	beqz	v0,9d00837c <decfloat+0xc34>
9d00836c:	8fa20214 	lw	v0,532(sp)
9d008370:	005ef026 	xor	s8,v0,s8
9d008374:	001e102b 	sltu	v0,zero,s8
9d008378:	afa20210 	sw	v0,528(sp)
9d00837c:	3c029d00 	lui	v0,0x9d00
9d008380:	8c4676c0 	lw	a2,30400(v0)
9d008384:	8c4776c4 	lw	a3,30404(v0)
9d008388:	02402025 	move	a0,s2
9d00838c:	0f4038ac 	jal	9d00e2b0 <__muldf3>
9d008390:	02602825 	move	a1,s3
9d008394:	00409025 	move	s2,v0
9d008398:	00609825 	move	s3,v1
9d00839c:	26f70001 	addiu	s7,s7,1
9d0083a0:	26e20034 	addiu	v0,s7,52
9d0083a4:	26d60003 	addiu	s6,s6,3
9d0083a8:	0056b02a 	slt	s6,v0,s6
9d0083ac:	12c0000b 	beqz	s6,9d0083dc <decfloat+0xc94>
9d0083b0:	3c02a000 	lui	v0,0xa000
9d0083b4:	8fa20210 	lw	v0,528(sp)
9d0083b8:	1040000a 	beqz	v0,9d0083e4 <decfloat+0xc9c>
9d0083bc:	00003025 	move	a2,zero
9d0083c0:	00003825 	move	a3,zero
9d0083c4:	02002025 	move	a0,s0
9d0083c8:	0f40448e 	jal	9d011238 <__eqdf2>
9d0083cc:	02202825 	move	a1,s1
9d0083d0:	10400005 	beqz	v0,9d0083e8 <decfloat+0xca0>
9d0083d4:	02e03025 	move	a2,s7
9d0083d8:	3c02a000 	lui	v0,0xa000
9d0083dc:	24030022 	li	v1,34
9d0083e0:	ac43107c 	sw	v1,4220(v0)
9d0083e4:	02e03025 	move	a2,s7
9d0083e8:	02402025 	move	a0,s2
9d0083ec:	0f405232 	jal	9d0148c8 <scalbnl>
9d0083f0:	02602825 	move	a1,s3
9d0083f4:	10000025 	b	9d00848c <decfloat+0xd44>
9d0083f8:	8fbf024c 	lw	ra,588(sp)
9d0083fc:	8fbe0258 	lw	s8,600(sp)
9d008400:	1000ff52 	b	9d00814c <decfloat+0xa04>
9d008404:	afa00210 	sw	zero,528(sp)
9d008408:	afa20210 	sw	v0,528(sp)
9d00840c:	1000ff55 	b	9d008164 <decfloat+0xa1c>
9d008410:	0000f025 	move	s8,zero
9d008414:	10620005 	beq	v1,v0,9d00842c <decfloat+0xce4>
9d008418:	25290003 	addiu	t1,t1,3
9d00841c:	3c029d00 	lui	v0,0x9d00
9d008420:	8c4676b8 	lw	a2,30392(v0)
9d008424:	1000ff8c 	b	9d008258 <decfloat+0xb10>
9d008428:	8c4776bc 	lw	a3,30396(v0)
9d00842c:	3129007f 	andi	t1,t1,0x7f
9d008430:	1536fffa 	bne	t1,s6,9d00841c <decfloat+0xcd4>
9d008434:	3c029d00 	lui	v0,0x9d00
9d008438:	8c4676c0 	lw	a2,30400(v0)
9d00843c:	1000ff86 	b	9d008258 <decfloat+0xb10>
9d008440:	8c4776c4 	lw	a3,30404(v0)
9d008444:	04400009 	bltz	v0,9d00846c <decfloat+0xd24>
9d008448:	3c02a000 	lui	v0,0xa000
9d00844c:	8e22004c 	lw	v0,76(s1)
9d008450:	10400004 	beqz	v0,9d008464 <decfloat+0xd1c>
9d008454:	00000000 	nop
9d008458:	8e22003c 	lw	v0,60(s1)
9d00845c:	2442ffff 	addiu	v0,v0,-1
9d008460:	ae22003c 	sw	v0,60(s1)
9d008464:	1660fd06 	bnez	s3,9d007880 <decfloat+0x138>
9d008468:	3c02a000 	lui	v0,0xa000
9d00846c:	24030016 	li	v1,22
9d008470:	ac43107c 	sw	v1,4220(v0)
9d008474:	00002825 	move	a1,zero
9d008478:	0f405116 	jal	9d014458 <__shlim>
9d00847c:	02202025 	move	a0,s1
9d008480:	00001025 	move	v0,zero
9d008484:	00001825 	move	v1,zero
9d008488:	8fbf024c 	lw	ra,588(sp)
9d00848c:	8fbe0248 	lw	s8,584(sp)
9d008490:	8fb70244 	lw	s7,580(sp)
9d008494:	8fb60240 	lw	s6,576(sp)
9d008498:	8fb5023c 	lw	s5,572(sp)
9d00849c:	8fb40238 	lw	s4,568(sp)
9d0084a0:	8fb30234 	lw	s3,564(sp)
9d0084a4:	8fb20230 	lw	s2,560(sp)
9d0084a8:	8fb1022c 	lw	s1,556(sp)
9d0084ac:	8fb00228 	lw	s0,552(sp)
9d0084b0:	03e00008 	jr	ra
9d0084b4:	27bd0250 	addiu	sp,sp,592
9d0084b8:	0441ffe4 	bgez	v0,9d00844c <decfloat+0xd04>
9d0084bc:	8fa40260 	lw	a0,608(sp)
9d0084c0:	1000fcf1 	b	9d007888 <decfloat+0x140>
9d0084c4:	8fb10010 	lw	s1,16(sp)

Disassembly of section .text.__floatscan:

9d0084c8 <__floatscan>:
9d0084c8:	2ca70003 	sltiu	a3,a1,3
9d0084cc:	00001025 	move	v0,zero
9d0084d0:	10e00302 	beqz	a3,9d0090dc <__floatscan+0xc14>
9d0084d4:	00001825 	move	v1,zero
9d0084d8:	3c029d01 	lui	v0,0x9d01
9d0084dc:	24424434 	addiu	v0,v0,17460
9d0084e0:	00a21021 	addu	v0,a1,v0
9d0084e4:	80420000 	lb	v0,0(v0)
9d0084e8:	27bdff80 	addiu	sp,sp,-128
9d0084ec:	00052840 	sll	a1,a1,0x1
9d0084f0:	afa20024 	sw	v0,36(sp)
9d0084f4:	3c029d01 	lui	v0,0x9d01
9d0084f8:	2442442c 	addiu	v0,v0,17452
9d0084fc:	00a22821 	addu	a1,a1,v0
9d008500:	84a20000 	lh	v0,0(a1)
9d008504:	afb70074 	sw	s7,116(sp)
9d008508:	afb60070 	sw	s6,112(sp)
9d00850c:	afb00058 	sw	s0,88(sp)
9d008510:	afbf007c 	sw	ra,124(sp)
9d008514:	afbe0078 	sw	s8,120(sp)
9d008518:	afb5006c 	sw	s5,108(sp)
9d00851c:	afb40068 	sw	s4,104(sp)
9d008520:	afb30064 	sw	s3,100(sp)
9d008524:	afb20060 	sw	s2,96(sp)
9d008528:	afb1005c 	sw	s1,92(sp)
9d00852c:	00c0b025 	move	s6,a2
9d008530:	0080b825 	move	s7,a0
9d008534:	afa20018 	sw	v0,24(sp)
9d008538:	24100020 	li	s0,32
9d00853c:	8ee2003c 	lw	v0,60(s7)
9d008540:	8ee3004c 	lw	v1,76(s7)
9d008544:	0043182b 	sltu	v1,v0,v1
9d008548:	10600037 	beqz	v1,9d008628 <__floatscan+0x160>
9d00854c:	24430001 	addiu	v1,v0,1
9d008550:	aee3003c 	sw	v1,60(s7)
9d008554:	90520000 	lbu	s2,0(v0)
9d008558:	1250fff8 	beq	s2,s0,9d00853c <__floatscan+0x74>
9d00855c:	2642fff7 	addiu	v0,s2,-9
9d008560:	2c420005 	sltiu	v0,v0,5
9d008564:	1440fff5 	bnez	v0,9d00853c <__floatscan+0x74>
9d008568:	2402002b 	li	v0,43
9d00856c:	12420005 	beq	s2,v0,9d008584 <__floatscan+0xbc>
9d008570:	00001025 	move	v0,zero
9d008574:	2402002d 	li	v0,45
9d008578:	1642000b 	bne	s2,v0,9d0085a8 <__floatscan+0xe0>
9d00857c:	24110001 	li	s1,1
9d008580:	24020002 	li	v0,2
9d008584:	24110001 	li	s1,1
9d008588:	02228823 	subu	s1,s1,v0
9d00858c:	8ee3004c 	lw	v1,76(s7)
9d008590:	8ee2003c 	lw	v0,60(s7)
9d008594:	0043182b 	sltu	v1,v0,v1
9d008598:	10600027 	beqz	v1,9d008638 <__floatscan+0x170>
9d00859c:	24430001 	addiu	v1,v0,1
9d0085a0:	aee3003c 	sw	v1,60(s7)
9d0085a4:	90520000 	lbu	s2,0(v0)
9d0085a8:	3c139d00 	lui	s3,0x9d00
9d0085ac:	00008025 	move	s0,zero
9d0085b0:	26737680 	addiu	s3,s3,30336
9d0085b4:	24140007 	li	s4,7
9d0085b8:	24150008 	li	s5,8
9d0085bc:	02701821 	addu	v1,s3,s0
9d0085c0:	80630000 	lb	v1,0(v1)
9d0085c4:	36420020 	ori	v0,s2,0x20
9d0085c8:	1043001f 	beq	v0,v1,9d008648 <__floatscan+0x180>
9d0085cc:	24020003 	li	v0,3
9d0085d0:	12020005 	beq	s0,v0,9d0085e8 <__floatscan+0x120>
9d0085d4:	2e020004 	sltiu	v0,s0,4
9d0085d8:	1440003d 	bnez	v0,9d0086d0 <__floatscan+0x208>
9d0085dc:	00000000 	nop
9d0085e0:	52c000f9 	beqzl	s6,9d0089c8 <__floatscan+0x500>
9d0085e4:	8ee2004c 	lw	v0,76(s7)
9d0085e8:	8ee3004c 	lw	v1,76(s7)
9d0085ec:	10600004 	beqz	v1,9d008600 <__floatscan+0x138>
9d0085f0:	00000000 	nop
9d0085f4:	8ee2003c 	lw	v0,60(s7)
9d0085f8:	2442ffff 	addiu	v0,v0,-1
9d0085fc:	aee2003c 	sw	v0,60(s7)
9d008600:	12c0001d 	beqz	s6,9d008678 <__floatscan+0x1b0>
9d008604:	24040003 	li	a0,3
9d008608:	1204001c 	beq	s0,a0,9d00867c <__floatscan+0x1b4>
9d00860c:	2402ffff 	li	v0,-1
9d008610:	1060fffd 	beqz	v1,9d008608 <__floatscan+0x140>
9d008614:	2610ffff 	addiu	s0,s0,-1
9d008618:	8ee2003c 	lw	v0,60(s7)
9d00861c:	2442ffff 	addiu	v0,v0,-1
9d008620:	1000fff9 	b	9d008608 <__floatscan+0x140>
9d008624:	aee2003c 	sw	v0,60(s7)
9d008628:	0f4048dc 	jal	9d012370 <__shgetc>
9d00862c:	02e02025 	move	a0,s7
9d008630:	1000ffc9 	b	9d008558 <__floatscan+0x90>
9d008634:	00409025 	move	s2,v0
9d008638:	0f4048dc 	jal	9d012370 <__shgetc>
9d00863c:	02e02025 	move	a0,s7
9d008640:	1000ffd9 	b	9d0085a8 <__floatscan+0xe0>
9d008644:	00409025 	move	s2,v0
9d008648:	52140009 	beql	s0,s4,9d008670 <__floatscan+0x1a8>
9d00864c:	26100001 	addiu	s0,s0,1
9d008650:	8ee2003c 	lw	v0,60(s7)
9d008654:	8ee3004c 	lw	v1,76(s7)
9d008658:	0043182b 	sltu	v1,v0,v1
9d00865c:	10600018 	beqz	v1,9d0086c0 <__floatscan+0x1f8>
9d008660:	24430001 	addiu	v1,v0,1
9d008664:	aee3003c 	sw	v1,60(s7)
9d008668:	90520000 	lbu	s2,0(v0)
9d00866c:	26100001 	addiu	s0,s0,1
9d008670:	1615ffd3 	bne	s0,s5,9d0085c0 <__floatscan+0xf8>
9d008674:	02701821 	addu	v1,s3,s0
9d008678:	2402ffff 	li	v0,-1
9d00867c:	1222028c 	beq	s1,v0,9d0090b0 <__floatscan+0xbe8>
9d008680:	3c029d00 	lui	v0,0x9d00
9d008684:	3c029d00 	lui	v0,0x9d00
9d008688:	8c4376e4 	lw	v1,30436(v0)
9d00868c:	8c4276e0 	lw	v0,30432(v0)
9d008690:	8fbf007c 	lw	ra,124(sp)
9d008694:	8fbe0078 	lw	s8,120(sp)
9d008698:	8fb70074 	lw	s7,116(sp)
9d00869c:	8fb60070 	lw	s6,112(sp)
9d0086a0:	8fb5006c 	lw	s5,108(sp)
9d0086a4:	8fb40068 	lw	s4,104(sp)
9d0086a8:	8fb30064 	lw	s3,100(sp)
9d0086ac:	8fb20060 	lw	s2,96(sp)
9d0086b0:	8fb1005c 	lw	s1,92(sp)
9d0086b4:	8fb00058 	lw	s0,88(sp)
9d0086b8:	03e00008 	jr	ra
9d0086bc:	27bd0080 	addiu	sp,sp,128
9d0086c0:	0f4048dc 	jal	9d012370 <__shgetc>
9d0086c4:	02e02025 	move	a0,s7
9d0086c8:	1000ffe8 	b	9d00866c <__floatscan+0x1a4>
9d0086cc:	00409025 	move	s2,v0
9d0086d0:	160000bc 	bnez	s0,9d0089c4 <__floatscan+0x4fc>
9d0086d4:	3c139d00 	lui	s3,0x9d00
9d0086d8:	2673768c 	addiu	s3,s3,30348
9d0086dc:	24140002 	li	s4,2
9d0086e0:	24150003 	li	s5,3
9d0086e4:	02701821 	addu	v1,s3,s0
9d0086e8:	80630000 	lb	v1,0(v1)
9d0086ec:	36420020 	ori	v0,s2,0x20
9d0086f0:	10430055 	beq	v0,v1,9d008848 <__floatscan+0x380>
9d0086f4:	00000000 	nop
9d0086f8:	160000b2 	bnez	s0,9d0089c4 <__floatscan+0x4fc>
9d0086fc:	8fa20024 	lw	v0,36(sp)
9d008700:	afa20020 	sw	v0,32(sp)
9d008704:	24020030 	li	v0,48
9d008708:	16420261 	bne	s2,v0,9d009090 <__floatscan+0xbc8>
9d00870c:	8fa70018 	lw	a3,24(sp)
9d008710:	8ee2003c 	lw	v0,60(s7)
9d008714:	8ee3004c 	lw	v1,76(s7)
9d008718:	0043182b 	sltu	v1,v0,v1
9d00871c:	106000b0 	beqz	v1,9d0089e0 <__floatscan+0x518>
9d008720:	00000000 	nop
9d008724:	24430001 	addiu	v1,v0,1
9d008728:	aee3003c 	sw	v1,60(s7)
9d00872c:	90420000 	lbu	v0,0(v0)
9d008730:	34420020 	ori	v0,v0,0x20
9d008734:	24040078 	li	a0,120
9d008738:	1444024f 	bne	v0,a0,9d009078 <__floatscan+0xbb0>
9d00873c:	8ee3004c 	lw	v1,76(s7)
9d008740:	8ee2003c 	lw	v0,60(s7)
9d008744:	0043182b 	sltu	v1,v0,v1
9d008748:	106000a9 	beqz	v1,9d0089f0 <__floatscan+0x528>
9d00874c:	00000000 	nop
9d008750:	24430001 	addiu	v1,v0,1
9d008754:	aee3003c 	sw	v1,60(s7)
9d008758:	90420000 	lbu	v0,0(v0)
9d00875c:	00001825 	move	v1,zero
9d008760:	24120030 	li	s2,48
9d008764:	105200a6 	beq	v0,s2,9d008a00 <__floatscan+0x538>
9d008768:	2404002e 	li	a0,46
9d00876c:	104400b2 	beq	v0,a0,9d008a38 <__floatscan+0x570>
9d008770:	0000f025 	move	s8,zero
9d008774:	00006025 	move	t4,zero
9d008778:	00006825 	move	t5,zero
9d00877c:	3c049d00 	lui	a0,0x9d00
9d008780:	8c8676a8 	lw	a2,30376(a0)
9d008784:	8c8776ac 	lw	a3,30380(a0)
9d008788:	afa40034 	sw	a0,52(sp)
9d00878c:	3c049d00 	lui	a0,0x9d00
9d008790:	8c8576c4 	lw	a1,30404(a0)
9d008794:	8c8476c0 	lw	a0,30400(a0)
9d008798:	0000a025 	move	s4,zero
9d00879c:	afa5003c 	sw	a1,60(sp)
9d0087a0:	afa40038 	sw	a0,56(sp)
9d0087a4:	3c049d00 	lui	a0,0x9d00
9d0087a8:	8c8576ec 	lw	a1,30444(a0)
9d0087ac:	8c8476e8 	lw	a0,30440(a0)
9d0087b0:	0000a825 	move	s5,zero
9d0087b4:	afa00030 	sw	zero,48(sp)
9d0087b8:	afa60028 	sw	a2,40(sp)
9d0087bc:	afa7002c 	sw	a3,44(sp)
9d0087c0:	00009025 	move	s2,zero
9d0087c4:	00009825 	move	s3,zero
9d0087c8:	afa40040 	sw	a0,64(sp)
9d0087cc:	afa50044 	sw	a1,68(sp)
9d0087d0:	244effd0 	addiu	t6,v0,-48
9d0087d4:	2dc4000a 	sltiu	a0,t6,10
9d0087d8:	148000bd 	bnez	a0,9d008ad0 <__floatscan+0x608>
9d0087dc:	34440020 	ori	a0,v0,0x20
9d0087e0:	2484ff9f 	addiu	a0,a0,-97
9d0087e4:	2c840006 	sltiu	a0,a0,6
9d0087e8:	148000b9 	bnez	a0,9d008ad0 <__floatscan+0x608>
9d0087ec:	2404002e 	li	a0,46
9d0087f0:	104400ba 	beq	v0,a0,9d008adc <__floatscan+0x614>
9d0087f4:	00000000 	nop
9d0087f8:	5460011f 	bnezl	v1,9d008c78 <__floatscan+0x7b0>
9d0087fc:	028df00a 	movz	s8,s4,t5
9d008800:	8ee2004c 	lw	v0,76(s7)
9d008804:	1040022d 	beqz	v0,9d0090bc <__floatscan+0xbf4>
9d008808:	00000000 	nop
9d00880c:	12c00113 	beqz	s6,9d008c5c <__floatscan+0x794>
9d008810:	8ee2003c 	lw	v0,60(s7)
9d008814:	55a00002 	bnezl	t5,9d008820 <__floatscan+0x358>
9d008818:	2442fffd 	addiu	v0,v0,-3
9d00881c:	2442fffe 	addiu	v0,v0,-2
9d008820:	aee2003c 	sw	v0,60(s7)
9d008824:	0f404cf9 	jal	9d0133e4 <__floatsidf>
9d008828:	02202025 	move	a0,s1
9d00882c:	00003025 	move	a2,zero
9d008830:	00003825 	move	a3,zero
9d008834:	00402025 	move	a0,v0
9d008838:	0f4038ac 	jal	9d00e2b0 <__muldf3>
9d00883c:	00602825 	move	a1,v1
9d008840:	1000ff94 	b	9d008694 <__floatscan+0x1cc>
9d008844:	8fbf007c 	lw	ra,124(sp)
9d008848:	52140009 	beql	s0,s4,9d008870 <__floatscan+0x3a8>
9d00884c:	26100001 	addiu	s0,s0,1
9d008850:	8ee2003c 	lw	v0,60(s7)
9d008854:	8ee3004c 	lw	v1,76(s7)
9d008858:	0043182b 	sltu	v1,v0,v1
9d00885c:	1060000f 	beqz	v1,9d00889c <__floatscan+0x3d4>
9d008860:	24430001 	addiu	v1,v0,1
9d008864:	aee3003c 	sw	v1,60(s7)
9d008868:	90520000 	lbu	s2,0(v0)
9d00886c:	26100001 	addiu	s0,s0,1
9d008870:	1615ff9d 	bne	s0,s5,9d0086e8 <__floatscan+0x220>
9d008874:	02701821 	addu	v1,s3,s0
9d008878:	8ee3003c 	lw	v1,60(s7)
9d00887c:	8ee2004c 	lw	v0,76(s7)
9d008880:	0062102b 	sltu	v0,v1,v0
9d008884:	54400009 	bnezl	v0,9d0088ac <__floatscan+0x3e4>
9d008888:	24620001 	addiu	v0,v1,1
9d00888c:	0f4048dc 	jal	9d012370 <__shgetc>
9d008890:	02e02025 	move	a0,s7
9d008894:	10000008 	b	9d0088b8 <__floatscan+0x3f0>
9d008898:	38420028 	xori	v0,v0,0x28
9d00889c:	0f4048dc 	jal	9d012370 <__shgetc>
9d0088a0:	02e02025 	move	a0,s7
9d0088a4:	1000fff1 	b	9d00886c <__floatscan+0x3a4>
9d0088a8:	00409025 	move	s2,v0
9d0088ac:	aee2003c 	sw	v0,60(s7)
9d0088b0:	90620000 	lbu	v0,0(v1)
9d0088b4:	38420028 	xori	v0,v0,0x28
9d0088b8:	0002102b 	sltu	v0,zero,v0
9d0088bc:	1040000b 	beqz	v0,9d0088ec <__floatscan+0x424>
9d0088c0:	24100001 	li	s0,1
9d0088c4:	8ee2004c 	lw	v0,76(s7)
9d0088c8:	54400005 	bnezl	v0,9d0088e0 <__floatscan+0x418>
9d0088cc:	8ee2003c 	lw	v0,60(s7)
9d0088d0:	3c029d00 	lui	v0,0x9d00
9d0088d4:	8c4376dc 	lw	v1,30428(v0)
9d0088d8:	1000ff6d 	b	9d008690 <__floatscan+0x1c8>
9d0088dc:	8c4276d8 	lw	v0,30424(v0)
9d0088e0:	2442ffff 	addiu	v0,v0,-1
9d0088e4:	1000fffa 	b	9d0088d0 <__floatscan+0x408>
9d0088e8:	aee2003c 	sw	v0,60(s7)
9d0088ec:	2411ffdf 	li	s1,-33
9d0088f0:	2412005f 	li	s2,95
9d0088f4:	8ee2003c 	lw	v0,60(s7)
9d0088f8:	8ee3004c 	lw	v1,76(s7)
9d0088fc:	0043182b 	sltu	v1,v0,v1
9d008900:	10600010 	beqz	v1,9d008944 <__floatscan+0x47c>
9d008904:	00000000 	nop
9d008908:	24430001 	addiu	v1,v0,1
9d00890c:	aee3003c 	sw	v1,60(s7)
9d008910:	90420000 	lbu	v0,0(v0)
9d008914:	2443ffd0 	addiu	v1,v0,-48
9d008918:	2c63000a 	sltiu	v1,v1,10
9d00891c:	14600007 	bnez	v1,9d00893c <__floatscan+0x474>
9d008920:	00511824 	and	v1,v0,s1
9d008924:	2463ffbf 	addiu	v1,v1,-65
9d008928:	2c63001a 	sltiu	v1,v1,26
9d00892c:	5460fff1 	bnezl	v1,9d0088f4 <__floatscan+0x42c>
9d008930:	26100001 	addiu	s0,s0,1
9d008934:	14520007 	bne	v0,s2,9d008954 <__floatscan+0x48c>
9d008938:	24030029 	li	v1,41
9d00893c:	1000ffed 	b	9d0088f4 <__floatscan+0x42c>
9d008940:	26100001 	addiu	s0,s0,1
9d008944:	0f4048dc 	jal	9d012370 <__shgetc>
9d008948:	02e02025 	move	a0,s7
9d00894c:	1000fff2 	b	9d008918 <__floatscan+0x450>
9d008950:	2443ffd0 	addiu	v1,v0,-48
9d008954:	1043ffdf 	beq	v0,v1,9d0088d4 <__floatscan+0x40c>
9d008958:	3c029d00 	lui	v0,0x9d00
9d00895c:	8ee3004c 	lw	v1,76(s7)
9d008960:	10600004 	beqz	v1,9d008974 <__floatscan+0x4ac>
9d008964:	00000000 	nop
9d008968:	8ee2003c 	lw	v0,60(s7)
9d00896c:	2442ffff 	addiu	v0,v0,-1
9d008970:	aee2003c 	sw	v0,60(s7)
9d008974:	16c0000f 	bnez	s6,9d0089b4 <__floatscan+0x4ec>
9d008978:	00000000 	nop
9d00897c:	3c02a000 	lui	v0,0xa000
9d008980:	24030016 	li	v1,22
9d008984:	ac43107c 	sw	v1,4220(v0)
9d008988:	00002825 	move	a1,zero
9d00898c:	0f405116 	jal	9d014458 <__shlim>
9d008990:	02e02025 	move	a0,s7
9d008994:	00001025 	move	v0,zero
9d008998:	1000ff3d 	b	9d008690 <__floatscan+0x1c8>
9d00899c:	00001825 	move	v1,zero
9d0089a0:	10600004 	beqz	v1,9d0089b4 <__floatscan+0x4ec>
9d0089a4:	2610ffff 	addiu	s0,s0,-1
9d0089a8:	8ee2003c 	lw	v0,60(s7)
9d0089ac:	2442ffff 	addiu	v0,v0,-1
9d0089b0:	aee2003c 	sw	v0,60(s7)
9d0089b4:	1600fffa 	bnez	s0,9d0089a0 <__floatscan+0x4d8>
9d0089b8:	3c029d00 	lui	v0,0x9d00
9d0089bc:	1000ffc6 	b	9d0088d8 <__floatscan+0x410>
9d0089c0:	8c4376dc 	lw	v1,30428(v0)
9d0089c4:	8ee2004c 	lw	v0,76(s7)
9d0089c8:	5040ffed 	beqzl	v0,9d008980 <__floatscan+0x4b8>
9d0089cc:	3c02a000 	lui	v0,0xa000
9d0089d0:	8ee2003c 	lw	v0,60(s7)
9d0089d4:	2442ffff 	addiu	v0,v0,-1
9d0089d8:	1000ffe8 	b	9d00897c <__floatscan+0x4b4>
9d0089dc:	aee2003c 	sw	v0,60(s7)
9d0089e0:	0f4048dc 	jal	9d012370 <__shgetc>
9d0089e4:	02e02025 	move	a0,s7
9d0089e8:	1000ff52 	b	9d008734 <__floatscan+0x26c>
9d0089ec:	34420020 	ori	v0,v0,0x20
9d0089f0:	0f4048dc 	jal	9d012370 <__shgetc>
9d0089f4:	02e02025 	move	a0,s7
9d0089f8:	1000ff59 	b	9d008760 <__floatscan+0x298>
9d0089fc:	00001825 	move	v1,zero
9d008a00:	8ee2003c 	lw	v0,60(s7)
9d008a04:	8ee3004c 	lw	v1,76(s7)
9d008a08:	0043182b 	sltu	v1,v0,v1
9d008a0c:	10600006 	beqz	v1,9d008a28 <__floatscan+0x560>
9d008a10:	00000000 	nop
9d008a14:	24430001 	addiu	v1,v0,1
9d008a18:	aee3003c 	sw	v1,60(s7)
9d008a1c:	90420000 	lbu	v0,0(v0)
9d008a20:	1000ff50 	b	9d008764 <__floatscan+0x29c>
9d008a24:	24030001 	li	v1,1
9d008a28:	0f4048dc 	jal	9d012370 <__shgetc>
9d008a2c:	02e02025 	move	a0,s7
9d008a30:	1000ff4c 	b	9d008764 <__floatscan+0x29c>
9d008a34:	24030001 	li	v1,1
9d008a38:	8ee2003c 	lw	v0,60(s7)
9d008a3c:	8ee4004c 	lw	a0,76(s7)
9d008a40:	0044202b 	sltu	a0,v0,a0
9d008a44:	1080000a 	beqz	a0,9d008a70 <__floatscan+0x5a8>
9d008a48:	24440001 	addiu	a0,v0,1
9d008a4c:	aee4003c 	sw	a0,60(s7)
9d008a50:	90420000 	lbu	v0,0(v0)
9d008a54:	0000f025 	move	s8,zero
9d008a58:	00006025 	move	t4,zero
9d008a5c:	24120030 	li	s2,48
9d008a60:	10520008 	beq	v0,s2,9d008a84 <__floatscan+0x5bc>
9d008a64:	240d0001 	li	t5,1
9d008a68:	1000ff45 	b	9d008780 <__floatscan+0x2b8>
9d008a6c:	3c049d00 	lui	a0,0x9d00
9d008a70:	02e02025 	move	a0,s7
9d008a74:	0f4048dc 	jal	9d012370 <__shgetc>
9d008a78:	afa30028 	sw	v1,40(sp)
9d008a7c:	1000fff5 	b	9d008a54 <__floatscan+0x58c>
9d008a80:	8fa30028 	lw	v1,40(sp)
9d008a84:	8ee2003c 	lw	v0,60(s7)
9d008a88:	8ee3004c 	lw	v1,76(s7)
9d008a8c:	0043182b 	sltu	v1,v0,v1
9d008a90:	1060000b 	beqz	v1,9d008ac0 <__floatscan+0x5f8>
9d008a94:	02e02025 	move	a0,s7
9d008a98:	24430001 	addiu	v1,v0,1
9d008a9c:	aee3003c 	sw	v1,60(s7)
9d008aa0:	90420000 	lbu	v0,0(v0)
9d008aa4:	27c3ffff 	addiu	v1,s8,-1
9d008aa8:	007e202b 	sltu	a0,v1,s8
9d008aac:	258cffff 	addiu	t4,t4,-1
9d008ab0:	0060f025 	move	s8,v1
9d008ab4:	008c6021 	addu	t4,a0,t4
9d008ab8:	1000ffe9 	b	9d008a60 <__floatscan+0x598>
9d008abc:	24030001 	li	v1,1
9d008ac0:	0f4048dc 	jal	9d012370 <__shgetc>
9d008ac4:	afac0028 	sw	t4,40(sp)
9d008ac8:	1000fff6 	b	9d008aa4 <__floatscan+0x5dc>
9d008acc:	8fac0028 	lw	t4,40(sp)
9d008ad0:	2404002e 	li	a0,46
9d008ad4:	54440011 	bnel	v0,a0,9d008b1c <__floatscan+0x654>
9d008ad8:	2843003a 	slti	v1,v0,58
9d008adc:	15a0017b 	bnez	t5,9d0090cc <__floatscan+0xc04>
9d008ae0:	02802825 	move	a1,s4
9d008ae4:	02a05025 	move	t2,s5
9d008ae8:	240d0001 	li	t5,1
9d008aec:	8ee2003c 	lw	v0,60(s7)
9d008af0:	8ee4004c 	lw	a0,76(s7)
9d008af4:	0044202b 	sltu	a0,v0,a0
9d008af8:	1080004d 	beqz	a0,9d008c30 <__floatscan+0x768>
9d008afc:	24440001 	addiu	a0,v0,1
9d008b00:	aee4003c 	sw	a0,60(s7)
9d008b04:	90420000 	lbu	v0,0(v0)
9d008b08:	0280f025 	move	s8,s4
9d008b0c:	02a06025 	move	t4,s5
9d008b10:	00a0a025 	move	s4,a1
9d008b14:	1000ff2e 	b	9d0087d0 <__floatscan+0x308>
9d008b18:	0140a825 	move	s5,t2
9d008b1c:	14600002 	bnez	v1,9d008b28 <__floatscan+0x660>
9d008b20:	34420020 	ori	v0,v0,0x20
9d008b24:	244effa9 	addiu	t6,v0,-87
9d008b28:	1ea0002b 	bgtz	s5,9d008bd8 <__floatscan+0x710>
9d008b2c:	00000000 	nop
9d008b30:	16a00003 	bnez	s5,9d008b40 <__floatscan+0x678>
9d008b34:	2e820008 	sltiu	v0,s4,8
9d008b38:	1040000a 	beqz	v0,9d008b64 <__floatscan+0x69c>
9d008b3c:	2e82000e 	sltiu	v0,s4,14
9d008b40:	00108100 	sll	s0,s0,0x4
9d008b44:	01d08021 	addu	s0,t6,s0
9d008b48:	26850001 	addiu	a1,s4,1
9d008b4c:	00b4502b 	sltu	t2,a1,s4
9d008b50:	01555021 	addu	t2,t2,s5
9d008b54:	03c0a025 	move	s4,s8
9d008b58:	0180a825 	move	s5,t4
9d008b5c:	1000ffe3 	b	9d008aec <__floatscan+0x624>
9d008b60:	24030001 	li	v1,1
9d008b64:	1040001c 	beqz	v0,9d008bd8 <__floatscan+0x710>
9d008b68:	8fa5002c 	lw	a1,44(sp)
9d008b6c:	8fa60040 	lw	a2,64(sp)
9d008b70:	8fa70044 	lw	a3,68(sp)
9d008b74:	8fa40028 	lw	a0,40(sp)
9d008b78:	afac0050 	sw	t4,80(sp)
9d008b7c:	afad0048 	sw	t5,72(sp)
9d008b80:	0f4038ac 	jal	9d00e2b0 <__muldf3>
9d008b84:	afae004c 	sw	t6,76(sp)
9d008b88:	8fae004c 	lw	t6,76(sp)
9d008b8c:	afa20028 	sw	v0,40(sp)
9d008b90:	afa3002c 	sw	v1,44(sp)
9d008b94:	0f404cf9 	jal	9d0133e4 <__floatsidf>
9d008b98:	01c02025 	move	a0,t6
9d008b9c:	8fa60028 	lw	a2,40(sp)
9d008ba0:	8fa7002c 	lw	a3,44(sp)
9d008ba4:	00402025 	move	a0,v0
9d008ba8:	0f4038ac 	jal	9d00e2b0 <__muldf3>
9d008bac:	00602825 	move	a1,v1
9d008bb0:	00403025 	move	a2,v0
9d008bb4:	02402025 	move	a0,s2
9d008bb8:	02602825 	move	a1,s3
9d008bbc:	0f4034c7 	jal	9d00d31c <__adddf3>
9d008bc0:	00603825 	move	a3,v1
9d008bc4:	00409025 	move	s2,v0
9d008bc8:	00609825 	move	s3,v1
9d008bcc:	8fad0048 	lw	t5,72(sp)
9d008bd0:	1000ffdd 	b	9d008b48 <__floatscan+0x680>
9d008bd4:	8fac0050 	lw	t4,80(sp)
9d008bd8:	11c0ffdb 	beqz	t6,9d008b48 <__floatscan+0x680>
9d008bdc:	8fa20030 	lw	v0,48(sp)
9d008be0:	1440ffd9 	bnez	v0,9d008b48 <__floatscan+0x680>
9d008be4:	8fa60038 	lw	a2,56(sp)
9d008be8:	8fa7003c 	lw	a3,60(sp)
9d008bec:	8fa40028 	lw	a0,40(sp)
9d008bf0:	8fa5002c 	lw	a1,44(sp)
9d008bf4:	afac004c 	sw	t4,76(sp)
9d008bf8:	0f4038ac 	jal	9d00e2b0 <__muldf3>
9d008bfc:	afad0048 	sw	t5,72(sp)
9d008c00:	00403025 	move	a2,v0
9d008c04:	02402025 	move	a0,s2
9d008c08:	02602825 	move	a1,s3
9d008c0c:	0f4034c7 	jal	9d00d31c <__adddf3>
9d008c10:	00603825 	move	a3,v1
9d008c14:	00409025 	move	s2,v0
9d008c18:	24020001 	li	v0,1
9d008c1c:	00609825 	move	s3,v1
9d008c20:	afa20030 	sw	v0,48(sp)
9d008c24:	8fac004c 	lw	t4,76(sp)
9d008c28:	1000ffc7 	b	9d008b48 <__floatscan+0x680>
9d008c2c:	8fad0048 	lw	t5,72(sp)
9d008c30:	02e02025 	move	a0,s7
9d008c34:	afaa0054 	sw	t2,84(sp)
9d008c38:	afa50050 	sw	a1,80(sp)
9d008c3c:	afa3004c 	sw	v1,76(sp)
9d008c40:	0f4048dc 	jal	9d012370 <__shgetc>
9d008c44:	afad0048 	sw	t5,72(sp)
9d008c48:	8faa0054 	lw	t2,84(sp)
9d008c4c:	8fa50050 	lw	a1,80(sp)
9d008c50:	8fa3004c 	lw	v1,76(sp)
9d008c54:	1000ffac 	b	9d008b08 <__floatscan+0x640>
9d008c58:	8fad0048 	lw	t5,72(sp)
9d008c5c:	2442ffff 	addiu	v0,v0,-1
9d008c60:	aee2003c 	sw	v0,60(s7)
9d008c64:	00002825 	move	a1,zero
9d008c68:	0f405116 	jal	9d014458 <__shlim>
9d008c6c:	02e02025 	move	a0,s7
9d008c70:	1000feec 	b	9d008824 <__floatscan+0x35c>
9d008c74:	00000000 	nop
9d008c78:	02ad600a 	movz	t4,s5,t5
9d008c7c:	5ea00006 	bgtzl	s5,9d008c98 <__floatscan+0x7d0>
9d008c80:	34420020 	ori	v0,v0,0x20
9d008c84:	16a00016 	bnez	s5,9d008ce0 <__floatscan+0x818>
9d008c88:	2e830008 	sltiu	v1,s4,8
9d008c8c:	14600015 	bnez	v1,9d008ce4 <__floatscan+0x81c>
9d008c90:	26830001 	addiu	v1,s4,1
9d008c94:	34420020 	ori	v0,v0,0x20
9d008c98:	24030070 	li	v1,112
9d008c9c:	1443003f 	bne	v0,v1,9d008d9c <__floatscan+0x8d4>
9d008ca0:	02c02825 	move	a1,s6
9d008ca4:	02e02025 	move	a0,s7
9d008ca8:	0f403ae3 	jal	9d00eb8c <scanexp>
9d008cac:	afac0028 	sw	t4,40(sp)
9d008cb0:	14400014 	bnez	v0,9d008d04 <__floatscan+0x83c>
9d008cb4:	8fac0028 	lw	t4,40(sp)
9d008cb8:	3c048000 	lui	a0,0x8000
9d008cbc:	14640011 	bne	v1,a0,9d008d04 <__floatscan+0x83c>
9d008cc0:	00000000 	nop
9d008cc4:	12c0ff31 	beqz	s6,9d00898c <__floatscan+0x4c4>
9d008cc8:	00002825 	move	a1,zero
9d008ccc:	8ee3004c 	lw	v1,76(s7)
9d008cd0:	54600009 	bnezl	v1,9d008cf8 <__floatscan+0x830>
9d008cd4:	8ee3003c 	lw	v1,60(s7)
9d008cd8:	10000009 	b	9d008d00 <__floatscan+0x838>
9d008cdc:	00001025 	move	v0,zero
9d008ce0:	26830001 	addiu	v1,s4,1
9d008ce4:	0074202b 	sltu	a0,v1,s4
9d008ce8:	00108100 	sll	s0,s0,0x4
9d008cec:	0060a025 	move	s4,v1
9d008cf0:	1000ffe2 	b	9d008c7c <__floatscan+0x7b4>
9d008cf4:	0095a821 	addu	s5,a0,s5
9d008cf8:	2463ffff 	addiu	v1,v1,-1
9d008cfc:	aee3003c 	sw	v1,60(s7)
9d008d00:	00001825 	move	v1,zero
9d008d04:	1200fec7 	beqz	s0,9d008824 <__floatscan+0x35c>
9d008d08:	27c4fff8 	addiu	a0,s8,-8
9d008d0c:	009e482b 	sltu	t1,a0,s8
9d008d10:	258cffff 	addiu	t4,t4,-1
9d008d14:	012c4821 	addu	t1,t1,t4
9d008d18:	00042f82 	srl	a1,a0,0x1e
9d008d1c:	00094880 	sll	t1,t1,0x2
9d008d20:	00042080 	sll	a0,a0,0x2
9d008d24:	00a94825 	or	t1,a1,t1
9d008d28:	00821021 	addu	v0,a0,v0
9d008d2c:	0044202b 	sltu	a0,v0,a0
9d008d30:	01231821 	addu	v1,t1,v1
9d008d34:	00831821 	addu	v1,a0,v1
9d008d38:	8fa40018 	lw	a0,24(sp)
9d008d3c:	0040a025 	move	s4,v0
9d008d40:	00042023 	negu	a0,a0
9d008d44:	00042fc3 	sra	a1,a0,0x1f
9d008d48:	00a3302a 	slt	a2,a1,v1
9d008d4c:	14c00005 	bnez	a2,9d008d64 <__floatscan+0x89c>
9d008d50:	0060a825 	move	s5,v1
9d008d54:	14650018 	bne	v1,a1,9d008db8 <__floatscan+0x8f0>
9d008d58:	0082202b 	sltu	a0,a0,v0
9d008d5c:	10800017 	beqz	a0,9d008dbc <__floatscan+0x8f4>
9d008d60:	8fa40018 	lw	a0,24(sp)
9d008d64:	3c02a000 	lui	v0,0xa000
9d008d68:	24030022 	li	v1,34
9d008d6c:	3c109d00 	lui	s0,0x9d00
9d008d70:	02202025 	move	a0,s1
9d008d74:	0f404cf9 	jal	9d0133e4 <__floatsidf>
9d008d78:	ac43107c 	sw	v1,4220(v0)
9d008d7c:	8e067690 	lw	a2,30352(s0)
9d008d80:	8e077694 	lw	a3,30356(s0)
9d008d84:	00402025 	move	a0,v0
9d008d88:	0f4038ac 	jal	9d00e2b0 <__muldf3>
9d008d8c:	00602825 	move	a1,v1
9d008d90:	8e067690 	lw	a2,30352(s0)
9d008d94:	1000fea7 	b	9d008834 <__floatscan+0x36c>
9d008d98:	8e077694 	lw	a3,30356(s0)
9d008d9c:	8ee2004c 	lw	v0,76(s7)
9d008da0:	5040ffd7 	beqzl	v0,9d008d00 <__floatscan+0x838>
9d008da4:	00001025 	move	v0,zero
9d008da8:	8ee2003c 	lw	v0,60(s7)
9d008dac:	2442ffff 	addiu	v0,v0,-1
9d008db0:	1000ffc9 	b	9d008cd8 <__floatscan+0x810>
9d008db4:	aee2003c 	sw	v0,60(s7)
9d008db8:	8fa40018 	lw	a0,24(sp)
9d008dbc:	2484ff96 	addiu	a0,a0,-106
9d008dc0:	00042fc3 	sra	a1,a0,0x1f
9d008dc4:	0065302a 	slt	a2,v1,a1
9d008dc8:	54c00005 	bnezl	a2,9d008de0 <__floatscan+0x918>
9d008dcc:	3c02a000 	lui	v0,0xa000
9d008dd0:	14a3009e 	bne	a1,v1,9d00904c <__floatscan+0xb84>
9d008dd4:	0044102b 	sltu	v0,v0,a0
9d008dd8:	1040009c 	beqz	v0,9d00904c <__floatscan+0xb84>
9d008ddc:	3c02a000 	lui	v0,0xa000
9d008de0:	24030022 	li	v1,34
9d008de4:	3c109d00 	lui	s0,0x9d00
9d008de8:	02202025 	move	a0,s1
9d008dec:	0f404cf9 	jal	9d0133e4 <__floatsidf>
9d008df0:	ac43107c 	sw	v1,4220(v0)
9d008df4:	8e067698 	lw	a2,30360(s0)
9d008df8:	8e07769c 	lw	a3,30364(s0)
9d008dfc:	00402025 	move	a0,v0
9d008e00:	0f4038ac 	jal	9d00e2b0 <__muldf3>
9d008e04:	00602825 	move	a1,v1
9d008e08:	8e067698 	lw	a2,30360(s0)
9d008e0c:	1000fe89 	b	9d008834 <__floatscan+0x36c>
9d008e10:	8e07769c 	lw	a3,30364(s0)
9d008e14:	02c03025 	move	a2,s6
9d008e18:	02e03825 	move	a3,s7
9d008e1c:	02402025 	move	a0,s2
9d008e20:	02602825 	move	a1,s3
9d008e24:	0f40448e 	jal	9d011238 <__eqdf2>
9d008e28:	00108040 	sll	s0,s0,0x1
9d008e2c:	04400084 	bltz	v0,9d009040 <__floatscan+0xb78>
9d008e30:	02402025 	move	a0,s2
9d008e34:	8fa60028 	lw	a2,40(sp)
9d008e38:	8fa7002c 	lw	a3,44(sp)
9d008e3c:	0f4034c5 	jal	9d00d314 <__subdf3>
9d008e40:	02602825 	move	a1,s3
9d008e44:	26100001 	addiu	s0,s0,1
9d008e48:	00403025 	move	a2,v0
9d008e4c:	00603825 	move	a3,v1
9d008e50:	02402025 	move	a0,s2
9d008e54:	0f4034c7 	jal	9d00d31c <__adddf3>
9d008e58:	02602825 	move	a1,s3
9d008e5c:	00409025 	move	s2,v0
9d008e60:	2682ffff 	addiu	v0,s4,-1
9d008e64:	00609825 	move	s3,v1
9d008e68:	26b5ffff 	addiu	s5,s5,-1
9d008e6c:	0054182b 	sltu	v1,v0,s4
9d008e70:	0075a821 	addu	s5,v1,s5
9d008e74:	0040a025 	move	s4,v0
9d008e78:	0601ffe6 	bgez	s0,9d008e14 <__floatscan+0x94c>
9d008e7c:	8fa20024 	lw	v0,36(sp)
9d008e80:	8fa40018 	lw	a0,24(sp)
9d008e84:	26830020 	addiu	v1,s4,32
9d008e88:	00022fc3 	sra	a1,v0,0x1f
9d008e8c:	0074102b 	sltu	v0,v1,s4
9d008e90:	00551021 	addu	v0,v0,s5
9d008e94:	0004afc3 	sra	s5,a0,0x1f
9d008e98:	00642023 	subu	a0,v1,a0
9d008e9c:	0055a823 	subu	s5,v0,s5
9d008ea0:	0064182b 	sltu	v1,v1,a0
9d008ea4:	02a3a823 	subu	s5,s5,v1
9d008ea8:	02a5102a 	slt	v0,s5,a1
9d008eac:	14400006 	bnez	v0,9d008ec8 <__floatscan+0xa00>
9d008eb0:	8fa20018 	lw	v0,24(sp)
9d008eb4:	14b50008 	bne	a1,s5,9d008ed8 <__floatscan+0xa10>
9d008eb8:	8fa20024 	lw	v0,36(sp)
9d008ebc:	0082202b 	sltu	a0,a0,v0
9d008ec0:	10800005 	beqz	a0,9d008ed8 <__floatscan+0xa10>
9d008ec4:	8fa20018 	lw	v0,24(sp)
9d008ec8:	0282b823 	subu	s7,s4,v0
9d008ecc:	26e20020 	addiu	v0,s7,32
9d008ed0:	04400067 	bltz	v0,9d009070 <__floatscan+0xba8>
9d008ed4:	afa20020 	sw	v0,32(sp)
9d008ed8:	8fa20020 	lw	v0,32(sp)
9d008edc:	0000b025 	move	s6,zero
9d008ee0:	28420035 	slti	v0,v0,53
9d008ee4:	10400022 	beqz	v0,9d008f70 <__floatscan+0xaa8>
9d008ee8:	0000b825 	move	s7,zero
9d008eec:	8fa20020 	lw	v0,32(sp)
9d008ef0:	24060054 	li	a2,84
9d008ef4:	00c23023 	subu	a2,a2,v0
9d008ef8:	8fa20034 	lw	v0,52(sp)
9d008efc:	8c4576ac 	lw	a1,30380(v0)
9d008f00:	0f40473f 	jal	9d011cfc <scalbn>
9d008f04:	8c4476a8 	lw	a0,30376(v0)
9d008f08:	02202025 	move	a0,s1
9d008f0c:	0040b025 	move	s6,v0
9d008f10:	0f404cf9 	jal	9d0133e4 <__floatsidf>
9d008f14:	0060b825 	move	s7,v1
9d008f18:	00403025 	move	a2,v0
9d008f1c:	02c02025 	move	a0,s6
9d008f20:	02e02825 	move	a1,s7
9d008f24:	0f405137 	jal	9d0144dc <copysignl>
9d008f28:	00603825 	move	a3,v1
9d008f2c:	0040b025 	move	s6,v0
9d008f30:	8fa20020 	lw	v0,32(sp)
9d008f34:	285e0020 	slti	s8,v0,32
9d008f38:	13c0000d 	beqz	s8,9d008f70 <__floatscan+0xaa8>
9d008f3c:	0060b825 	move	s7,v1
9d008f40:	00003025 	move	a2,zero
9d008f44:	00003825 	move	a3,zero
9d008f48:	02402025 	move	a0,s2
9d008f4c:	0f40448e 	jal	9d011238 <__eqdf2>
9d008f50:	02602825 	move	a1,s3
9d008f54:	10400006 	beqz	v0,9d008f70 <__floatscan+0xaa8>
9d008f58:	32020001 	andi	v0,s0,0x1
9d008f5c:	14400004 	bnez	v0,9d008f70 <__floatscan+0xaa8>
9d008f60:	00000000 	nop
9d008f64:	26100001 	addiu	s0,s0,1
9d008f68:	00009025 	move	s2,zero
9d008f6c:	00009825 	move	s3,zero
9d008f70:	0f404cf9 	jal	9d0133e4 <__floatsidf>
9d008f74:	02202025 	move	a0,s1
9d008f78:	00602825 	move	a1,v1
9d008f7c:	02403025 	move	a2,s2
9d008f80:	02603825 	move	a3,s3
9d008f84:	00402025 	move	a0,v0
9d008f88:	afa20018 	sw	v0,24(sp)
9d008f8c:	0f4038ac 	jal	9d00e2b0 <__muldf3>
9d008f90:	afa3001c 	sw	v1,28(sp)
9d008f94:	02002025 	move	a0,s0
9d008f98:	00409025 	move	s2,v0
9d008f9c:	0f404fff 	jal	9d013ffc <__floatunsidf>
9d008fa0:	00609825 	move	s3,v1
9d008fa4:	8fa80018 	lw	t0,24(sp)
9d008fa8:	8fa9001c 	lw	t1,28(sp)
9d008fac:	00402025 	move	a0,v0
9d008fb0:	01003025 	move	a2,t0
9d008fb4:	01203825 	move	a3,t1
9d008fb8:	0f4038ac 	jal	9d00e2b0 <__muldf3>
9d008fbc:	00602825 	move	a1,v1
9d008fc0:	00402025 	move	a0,v0
9d008fc4:	02c03025 	move	a2,s6
9d008fc8:	02e03825 	move	a3,s7
9d008fcc:	0f4034c7 	jal	9d00d31c <__adddf3>
9d008fd0:	00602825 	move	a1,v1
9d008fd4:	00402025 	move	a0,v0
9d008fd8:	02403025 	move	a2,s2
9d008fdc:	02603825 	move	a3,s3
9d008fe0:	0f4034c7 	jal	9d00d31c <__adddf3>
9d008fe4:	00602825 	move	a1,v1
9d008fe8:	00402025 	move	a0,v0
9d008fec:	02c03025 	move	a2,s6
9d008ff0:	02e03825 	move	a3,s7
9d008ff4:	0f4034c5 	jal	9d00d314 <__subdf3>
9d008ff8:	00602825 	move	a1,v1
9d008ffc:	00402025 	move	a0,v0
9d009000:	00003025 	move	a2,zero
9d009004:	00003825 	move	a3,zero
9d009008:	00602825 	move	a1,v1
9d00900c:	00408025 	move	s0,v0
9d009010:	0f40448e 	jal	9d011238 <__eqdf2>
9d009014:	00608825 	move	s1,v1
9d009018:	14400004 	bnez	v0,9d00902c <__floatscan+0xb64>
9d00901c:	02803025 	move	a2,s4
9d009020:	3c02a000 	lui	v0,0xa000
9d009024:	24030022 	li	v1,34
9d009028:	ac43107c 	sw	v1,4220(v0)
9d00902c:	02002025 	move	a0,s0
9d009030:	0f405232 	jal	9d0148c8 <scalbnl>
9d009034:	02202825 	move	a1,s1
9d009038:	1000fd96 	b	9d008694 <__floatscan+0x1cc>
9d00903c:	8fbf007c 	lw	ra,124(sp)
9d009040:	02403025 	move	a2,s2
9d009044:	1000ff82 	b	9d008e50 <__floatscan+0x988>
9d009048:	02603825 	move	a3,s3
9d00904c:	3c029d00 	lui	v0,0x9d00
9d009050:	8c5676c0 	lw	s6,30400(v0)
9d009054:	8c5776c4 	lw	s7,30404(v0)
9d009058:	8fa20034 	lw	v0,52(sp)
9d00905c:	8c4376ac 	lw	v1,30380(v0)
9d009060:	8c4276a8 	lw	v0,30376(v0)
9d009064:	afa3002c 	sw	v1,44(sp)
9d009068:	1000ff83 	b	9d008e78 <__floatscan+0x9b0>
9d00906c:	afa20028 	sw	v0,40(sp)
9d009070:	1000ff9e 	b	9d008eec <__floatscan+0xa24>
9d009074:	afa00020 	sw	zero,32(sp)
9d009078:	10600005 	beqz	v1,9d009090 <__floatscan+0xbc8>
9d00907c:	8fa70018 	lw	a3,24(sp)
9d009080:	8ee2003c 	lw	v0,60(s7)
9d009084:	2442ffff 	addiu	v0,v0,-1
9d009088:	aee2003c 	sw	v0,60(s7)
9d00908c:	8fa70018 	lw	a3,24(sp)
9d009090:	8fa60024 	lw	a2,36(sp)
9d009094:	afb60014 	sw	s6,20(sp)
9d009098:	afb10010 	sw	s1,16(sp)
9d00909c:	02402825 	move	a1,s2
9d0090a0:	0f401dd2 	jal	9d007748 <decfloat>
9d0090a4:	02e02025 	move	a0,s7
9d0090a8:	1000fd7a 	b	9d008694 <__floatscan+0x1cc>
9d0090ac:	8fbf007c 	lw	ra,124(sp)
9d0090b0:	8c4376d4 	lw	v1,30420(v0)
9d0090b4:	1000fd76 	b	9d008690 <__floatscan+0x1c8>
9d0090b8:	8c4276d0 	lw	v0,30416(v0)
9d0090bc:	16c0fdd9 	bnez	s6,9d008824 <__floatscan+0x35c>
9d0090c0:	00000000 	nop
9d0090c4:	1000fee8 	b	9d008c68 <__floatscan+0x7a0>
9d0090c8:	00002825 	move	a1,zero
9d0090cc:	1460feeb 	bnez	v1,9d008c7c <__floatscan+0x7b4>
9d0090d0:	2402002e 	li	v0,46
9d0090d4:	1000fdcb 	b	9d008804 <__floatscan+0x33c>
9d0090d8:	8ee2004c 	lw	v0,76(s7)
9d0090dc:	03e00008 	jr	ra
9d0090e0:	00000000 	nop

Disassembly of section .text.__fmt_fp:

9d0090e4 <__fmt_fp>:
9d0090e4:	27bdff68 	addiu	sp,sp,-152
9d0090e8:	afa700a4 	sw	a3,164(sp)
9d0090ec:	8ca20000 	lw	v0,0(a1)
9d0090f0:	afb60088 	sw	s6,136(sp)
9d0090f4:	afb40080 	sw	s4,128(sp)
9d0090f8:	afa2001c 	sw	v0,28(sp)
9d0090fc:	8ca20008 	lw	v0,8(a1)
9d009100:	8cd60000 	lw	s6,0(a2)
9d009104:	8cd40004 	lw	s4,4(a2)
9d009108:	afa20020 	sw	v0,32(sp)
9d00910c:	8ca20010 	lw	v0,16(a1)
9d009110:	afb50084 	sw	s5,132(sp)
9d009114:	afb00070 	sw	s0,112(sp)
9d009118:	afa40098 	sw	a0,152(sp)
9d00911c:	afa5009c 	sw	a1,156(sp)
9d009120:	8cb00004 	lw	s0,4(a1)
9d009124:	8cb5000c 	lw	s5,12(a1)
9d009128:	00003025 	move	a2,zero
9d00912c:	00003825 	move	a3,zero
9d009130:	02c02025 	move	a0,s6
9d009134:	02802825 	move	a1,s4
9d009138:	afbf0094 	sw	ra,148(sp)
9d00913c:	afbe0090 	sw	s8,144(sp)
9d009140:	afb7008c 	sw	s7,140(sp)
9d009144:	afb3007c 	sw	s3,124(sp)
9d009148:	afb20078 	sw	s2,120(sp)
9d00914c:	afb10074 	sw	s1,116(sp)
9d009150:	0f4044d9 	jal	9d011364 <dpcmplt>
9d009154:	afa20050 	sw	v0,80(sp)
9d009158:	0440000e 	bltz	v0,9d009194 <__fmt_fp+0xb0>
9d00915c:	8fa2001c 	lw	v0,28(sp)
9d009160:	30420004 	andi	v0,v0,0x4
9d009164:	1440000e 	bnez	v0,9d0091a0 <__fmt_fp+0xbc>
9d009168:	2402002b 	li	v0,43
9d00916c:	8fa2001c 	lw	v0,28(sp)
9d009170:	30420008 	andi	v0,v0,0x8
9d009174:	afa20024 	sw	v0,36(sp)
9d009178:	8fa20020 	lw	v0,32(sp)
9d00917c:	afa20018 	sw	v0,24(sp)
9d009180:	8fa20024 	lw	v0,36(sp)
9d009184:	1040000c 	beqz	v0,9d0091b8 <__fmt_fp+0xd4>
9d009188:	24020020 	li	v0,32
9d00918c:	10000005 	b	9d0091a4 <__fmt_fp+0xc0>
9d009190:	a2a20000 	sb	v0,0(s5)
9d009194:	3c028000 	lui	v0,0x8000
9d009198:	0054a026 	xor	s4,v0,s4
9d00919c:	2402002d 	li	v0,45
9d0091a0:	a2a20000 	sb	v0,0(s5)
9d0091a4:	8fa20020 	lw	v0,32(sp)
9d0091a8:	2442ffff 	addiu	v0,v0,-1
9d0091ac:	afa20018 	sw	v0,24(sp)
9d0091b0:	24020001 	li	v0,1
9d0091b4:	afa20024 	sw	v0,36(sp)
9d0091b8:	8fa30024 	lw	v1,36(sp)
9d0091bc:	7e82f000 	ext	v0,s4,0x0,0x1f
9d0091c0:	02a31821 	addu	v1,s5,v1
9d0091c4:	16c00024 	bnez	s6,9d009258 <__fmt_fp+0x174>
9d0091c8:	afa3002c 	sw	v1,44(sp)
9d0091cc:	3c037ff0 	lui	v1,0x7ff0
9d0091d0:	14430022 	bne	v0,v1,9d00925c <__fmt_fp+0x178>
9d0091d4:	3c047ff0 	lui	a0,0x7ff0
9d0091d8:	8fa200a4 	lw	v0,164(sp)
9d0091dc:	2442ffbf 	addiu	v0,v0,-65
9d0091e0:	2c42001a 	sltiu	v0,v0,26
9d0091e4:	1040001a 	beqz	v0,9d009250 <__fmt_fp+0x16c>
9d0091e8:	3c059d00 	lui	a1,0x9d00
9d0091ec:	3c059d00 	lui	a1,0x9d00
9d0091f0:	24a57640 	addiu	a1,a1,30272
9d0091f4:	0f405175 	jal	9d0145d4 <strcpy>
9d0091f8:	8fa4002c 	lw	a0,44(sp)
9d0091fc:	0f40524c 	jal	9d014930 <strlen>
9d009200:	02a02025 	move	a0,s5
9d009204:	8fa3001c 	lw	v1,28(sp)
9d009208:	8fa70020 	lw	a3,32(sp)
9d00920c:	8fa40098 	lw	a0,152(sp)
9d009210:	afa30010 	sw	v1,16(sp)
9d009214:	02a02825 	move	a1,s5
9d009218:	0f404682 	jal	9d011a08 <__pad>
9d00921c:	00403025 	move	a2,v0
9d009220:	8fbf0094 	lw	ra,148(sp)
9d009224:	8fbe0090 	lw	s8,144(sp)
9d009228:	8fb7008c 	lw	s7,140(sp)
9d00922c:	8fb60088 	lw	s6,136(sp)
9d009230:	8fb50084 	lw	s5,132(sp)
9d009234:	8fb40080 	lw	s4,128(sp)
9d009238:	8fb3007c 	lw	s3,124(sp)
9d00923c:	8fb20078 	lw	s2,120(sp)
9d009240:	8fb10074 	lw	s1,116(sp)
9d009244:	8fb00070 	lw	s0,112(sp)
9d009248:	03e00008 	jr	ra
9d00924c:	27bd0098 	addiu	sp,sp,152
9d009250:	1000ffe8 	b	9d0091f4 <__fmt_fp+0x110>
9d009254:	24a57644 	addiu	a1,a1,30276
9d009258:	3c047ff0 	lui	a0,0x7ff0
9d00925c:	24830001 	addiu	v1,a0,1
9d009260:	0043182b 	sltu	v1,v0,v1
9d009264:	50600005 	beqzl	v1,9d00927c <__fmt_fp+0x198>
9d009268:	8fa200a4 	lw	v0,164(sp)
9d00926c:	1444000c 	bne	v0,a0,9d0092a0 <__fmt_fp+0x1bc>
9d009270:	00003025 	move	a2,zero
9d009274:	12c0000a 	beqz	s6,9d0092a0 <__fmt_fp+0x1bc>
9d009278:	8fa200a4 	lw	v0,164(sp)
9d00927c:	2442ffbf 	addiu	v0,v0,-65
9d009280:	2c42001a 	sltiu	v0,v0,26
9d009284:	50400004 	beqzl	v0,9d009298 <__fmt_fp+0x1b4>
9d009288:	3c059d00 	lui	a1,0x9d00
9d00928c:	3c059d00 	lui	a1,0x9d00
9d009290:	1000ffd8 	b	9d0091f4 <__fmt_fp+0x110>
9d009294:	24a57648 	addiu	a1,a1,30280
9d009298:	1000ffd6 	b	9d0091f4 <__fmt_fp+0x110>
9d00929c:	24a5764c 	addiu	a1,a1,30284
9d0092a0:	00003825 	move	a3,zero
9d0092a4:	02c02025 	move	a0,s6
9d0092a8:	0f40448e 	jal	9d011238 <__eqdf2>
9d0092ac:	02802825 	move	a1,s4
9d0092b0:	3c139d00 	lui	s3,0x9d00
9d0092b4:	3c039d00 	lui	v1,0x9d00
9d0092b8:	afa30030 	sw	v1,48(sp)
9d0092bc:	8e717650 	lw	s1,30288(s3)
9d0092c0:	8e727654 	lw	s2,30292(s3)
9d0092c4:	14400013 	bnez	v0,9d009314 <__fmt_fp+0x230>
9d0092c8:	0000b825 	move	s7,zero
9d0092cc:	0f4051de 	jal	9d014778 <tolower>
9d0092d0:	8fa400a4 	lw	a0,164(sp)
9d0092d4:	7c021420 	seb	v0,v0
9d0092d8:	afa20028 	sw	v0,40(sp)
9d0092dc:	8fa30028 	lw	v1,40(sp)
9d0092e0:	060001ae 	bltz	s0,9d00999c <__fmt_fp+0x8b8>
9d0092e4:	24020067 	li	v0,103
9d0092e8:	14620055 	bne	v1,v0,9d009440 <__fmt_fp+0x35c>
9d0092ec:	8fbe0028 	lw	s8,40(sp)
9d0092f0:	52000001 	beqzl	s0,9d0092f8 <__fmt_fp+0x214>
9d0092f4:	24100001 	li	s0,1
9d0092f8:	2ae2fffc 	slti	v0,s7,-4
9d0092fc:	14400003 	bnez	v0,9d00930c <__fmt_fp+0x228>
9d009300:	02f0102a 	slt	v0,s7,s0
9d009304:	1440019f 	bnez	v0,9d009984 <__fmt_fp+0x8a0>
9d009308:	00000000 	nop
9d00930c:	10000058 	b	9d009470 <__fmt_fp+0x38c>
9d009310:	241e0065 	li	s8,101
9d009314:	3c029d00 	lui	v0,0x9d00
9d009318:	8c4a7658 	lw	t2,30296(v0)
9d00931c:	8c4b765c 	lw	t3,30300(v0)
9d009320:	01403025 	move	a2,t2
9d009324:	01603825 	move	a3,t3
9d009328:	02202025 	move	a0,s1
9d00932c:	02402825 	move	a1,s2
9d009330:	afaa0038 	sw	t2,56(sp)
9d009334:	0f4038ac 	jal	9d00e2b0 <__muldf3>
9d009338:	afab003c 	sw	t3,60(sp)
9d00933c:	00402025 	move	a0,v0
9d009340:	02c03025 	move	a2,s6
9d009344:	02803825 	move	a3,s4
9d009348:	00602825 	move	a1,v1
9d00934c:	0040f025 	move	s8,v0
9d009350:	0f40448e 	jal	9d011238 <__eqdf2>
9d009354:	afa30028 	sw	v1,40(sp)
9d009358:	1c40002a 	bgtz	v0,9d009404 <__fmt_fp+0x320>
9d00935c:	8fa80028 	lw	t0,40(sp)
9d009360:	8faa0038 	lw	t2,56(sp)
9d009364:	8fab003c 	lw	t3,60(sp)
9d009368:	26f70001 	addiu	s7,s7,1
9d00936c:	03c08825 	move	s1,s8
9d009370:	1000ffeb 	b	9d009320 <__fmt_fp+0x23c>
9d009374:	01009025 	move	s2,t0
9d009378:	10400012 	beqz	v0,9d0093c4 <__fmt_fp+0x2e0>
9d00937c:	8fa60040 	lw	a2,64(sp)
9d009380:	17c0000f 	bnez	s8,9d0093c0 <__fmt_fp+0x2dc>
9d009384:	8fa60028 	lw	a2,40(sp)
9d009388:	8fa70038 	lw	a3,56(sp)
9d00938c:	02c02025 	move	a0,s6
9d009390:	0f4038ac 	jal	9d00e2b0 <__muldf3>
9d009394:	02802825 	move	a1,s4
9d009398:	8fa60048 	lw	a2,72(sp)
9d00939c:	8fa70054 	lw	a3,84(sp)
9d0093a0:	02202025 	move	a0,s1
9d0093a4:	02402825 	move	a1,s2
9d0093a8:	0040b025 	move	s6,v0
9d0093ac:	0f4038ac 	jal	9d00e2b0 <__muldf3>
9d0093b0:	0060a025 	move	s4,v1
9d0093b4:	00408825 	move	s1,v0
9d0093b8:	00609025 	move	s2,v1
9d0093bc:	241e0001 	li	s8,1
9d0093c0:	8fa60040 	lw	a2,64(sp)
9d0093c4:	8fa70044 	lw	a3,68(sp)
9d0093c8:	02202025 	move	a0,s1
9d0093cc:	0f403064 	jal	9d00c190 <__divdf3>
9d0093d0:	02402825 	move	a1,s2
9d0093d4:	00408825 	move	s1,v0
9d0093d8:	00609025 	move	s2,v1
9d0093dc:	26f7ffff 	addiu	s7,s7,-1
9d0093e0:	02203025 	move	a2,s1
9d0093e4:	02403825 	move	a3,s2
9d0093e8:	02c02025 	move	a0,s6
9d0093ec:	0f4044d9 	jal	9d011364 <dpcmplt>
9d0093f0:	02802825 	move	a1,s4
9d0093f4:	0442ffe0 	bltzl	v0,9d009378 <__fmt_fp+0x294>
9d0093f8:	2ae2fed4 	slti	v0,s7,-300
9d0093fc:	1000ffb3 	b	9d0092cc <__fmt_fp+0x1e8>
9d009400:	00000000 	nop
9d009404:	3c029d00 	lui	v0,0x9d00
9d009408:	8c437660 	lw	v1,30304(v0)
9d00940c:	8c427664 	lw	v0,30308(v0)
9d009410:	0000f025 	move	s8,zero
9d009414:	afa30028 	sw	v1,40(sp)
9d009418:	afa20038 	sw	v0,56(sp)
9d00941c:	8fa20038 	lw	v0,56(sp)
9d009420:	afa30048 	sw	v1,72(sp)
9d009424:	afa20054 	sw	v0,84(sp)
9d009428:	8fa20030 	lw	v0,48(sp)
9d00942c:	8c43765c 	lw	v1,30300(v0)
9d009430:	8c427658 	lw	v0,30296(v0)
9d009434:	afa30044 	sw	v1,68(sp)
9d009438:	1000ffe9 	b	9d0093e0 <__fmt_fp+0x2fc>
9d00943c:	afa20040 	sw	v0,64(sp)
9d009440:	24020066 	li	v0,102
9d009444:	17c2000a 	bne	s8,v0,9d009470 <__fmt_fp+0x38c>
9d009448:	26100001 	addiu	s0,s0,1
9d00944c:	06e10004 	bgez	s7,9d009460 <__fmt_fp+0x37c>
9d009450:	8fa30028 	lw	v1,40(sp)
9d009454:	8e717650 	lw	s1,30288(s3)
9d009458:	8e727654 	lw	s2,30292(s3)
9d00945c:	0000b825 	move	s7,zero
9d009460:	24020067 	li	v0,103
9d009464:	10620002 	beq	v1,v0,9d009470 <__fmt_fp+0x38c>
9d009468:	241e0066 	li	s8,102
9d00946c:	02178021 	addu	s0,s0,s7
9d009470:	8fa20030 	lw	v0,48(sp)
9d009474:	02205025 	move	t2,s1
9d009478:	02404825 	move	t1,s2
9d00947c:	8c43765c 	lw	v1,30300(v0)
9d009480:	8c427658 	lw	v0,30296(v0)
9d009484:	02c06025 	move	t4,s6
9d009488:	02809825 	move	s3,s4
9d00948c:	00005825 	move	t3,zero
9d009490:	afa20048 	sw	v0,72(sp)
9d009494:	afa3004c 	sw	v1,76(sp)
9d009498:	01403025 	move	a2,t2
9d00949c:	01203825 	move	a3,t1
9d0094a0:	01802025 	move	a0,t4
9d0094a4:	02602825 	move	a1,s3
9d0094a8:	afab0068 	sw	t3,104(sp)
9d0094ac:	afaa0060 	sw	t2,96(sp)
9d0094b0:	afa90064 	sw	t1,100(sp)
9d0094b4:	afac0058 	sw	t4,88(sp)
9d0094b8:	0f403064 	jal	9d00c190 <__divdf3>
9d0094bc:	afb30054 	sw	s3,84(sp)
9d0094c0:	00402025 	move	a0,v0
9d0094c4:	0f404640 	jal	9d011900 <dpfloor>
9d0094c8:	00602825 	move	a1,v1
9d0094cc:	00602825 	move	a1,v1
9d0094d0:	00402025 	move	a0,v0
9d0094d4:	afa3003c 	sw	v1,60(sp)
9d0094d8:	0f404b6a 	jal	9d012da8 <__fixdfsi>
9d0094dc:	afa20038 	sw	v0,56(sp)
9d0094e0:	8fa80054 	lw	t0,84(sp)
9d0094e4:	8fac0038 	lw	t4,56(sp)
9d0094e8:	8fae0058 	lw	t6,88(sp)
9d0094ec:	8fa90064 	lw	t1,100(sp)
9d0094f0:	8faa0060 	lw	t2,96(sp)
9d0094f4:	8fad003c 	lw	t5,60(sp)
9d0094f8:	3c138000 	lui	s3,0x8000
9d0094fc:	02682026 	xor	a0,s3,t0
9d009500:	01403025 	move	a2,t2
9d009504:	01203825 	move	a3,t1
9d009508:	01a02825 	move	a1,t5
9d00950c:	afae0010 	sw	t6,16(sp)
9d009510:	afa40014 	sw	a0,20(sp)
9d009514:	01802025 	move	a0,t4
9d009518:	afa90058 	sw	t1,88(sp)
9d00951c:	0f402840 	jal	9d00a100 <fma>
9d009520:	afa20040 	sw	v0,64(sp)
9d009524:	8faa0060 	lw	t2,96(sp)
9d009528:	8fa90058 	lw	t1,88(sp)
9d00952c:	8fa60048 	lw	a2,72(sp)
9d009530:	8fa7004c 	lw	a3,76(sp)
9d009534:	01402025 	move	a0,t2
9d009538:	01202825 	move	a1,t1
9d00953c:	afa20038 	sw	v0,56(sp)
9d009540:	afa20054 	sw	v0,84(sp)
9d009544:	0f403064 	jal	9d00c190 <__divdf3>
9d009548:	02639826 	xor	s3,s3,v1
9d00954c:	8fab0068 	lw	t3,104(sp)
9d009550:	00405025 	move	t2,v0
9d009554:	00604825 	move	t1,v1
9d009558:	256b0001 	addiu	t3,t3,1
9d00955c:	160bffce 	bne	s0,t3,9d009498 <__fmt_fp+0x3b4>
9d009560:	8fac0054 	lw	t4,84(sp)
9d009564:	3c029d00 	lui	v0,0x9d00
9d009568:	8c467668 	lw	a2,30312(v0)
9d00956c:	8c47766c 	lw	a3,30316(v0)
9d009570:	01402025 	move	a0,t2
9d009574:	0f4038ac 	jal	9d00e2b0 <__muldf3>
9d009578:	00602825 	move	a1,v1
9d00957c:	00603825 	move	a3,v1
9d009580:	afa3004c 	sw	v1,76(sp)
9d009584:	8fa30038 	lw	v1,56(sp)
9d009588:	00403025 	move	a2,v0
9d00958c:	02602825 	move	a1,s3
9d009590:	00602025 	move	a0,v1
9d009594:	0f4044d9 	jal	9d011364 <dpcmplt>
9d009598:	afa20048 	sw	v0,72(sp)
9d00959c:	0440000f 	bltz	v0,9d0095dc <__fmt_fp+0x4f8>
9d0095a0:	8faa0048 	lw	t2,72(sp)
9d0095a4:	8fab004c 	lw	t3,76(sp)
9d0095a8:	8fa30038 	lw	v1,56(sp)
9d0095ac:	01403025 	move	a2,t2
9d0095b0:	01603825 	move	a3,t3
9d0095b4:	00602025 	move	a0,v1
9d0095b8:	0f40448e 	jal	9d011238 <__eqdf2>
9d0095bc:	02602825 	move	a1,s3
9d0095c0:	8faa0048 	lw	t2,72(sp)
9d0095c4:	14400007 	bnez	v0,9d0095e4 <__fmt_fp+0x500>
9d0095c8:	8fab004c 	lw	t3,76(sp)
9d0095cc:	8fa20040 	lw	v0,64(sp)
9d0095d0:	30420001 	andi	v0,v0,0x1
9d0095d4:	14400004 	bnez	v0,9d0095e8 <__fmt_fp+0x504>
9d0095d8:	01403025 	move	a2,t2
9d0095dc:	00005025 	move	t2,zero
9d0095e0:	00005825 	move	t3,zero
9d0095e4:	01403025 	move	a2,t2
9d0095e8:	01603825 	move	a3,t3
9d0095ec:	02c02025 	move	a0,s6
9d0095f0:	0f4034c7 	jal	9d00d31c <__adddf3>
9d0095f4:	02802825 	move	a1,s4
9d0095f8:	0040b025 	move	s6,v0
9d0095fc:	afa20038 	sw	v0,56(sp)
9d009600:	8fa20030 	lw	v0,48(sp)
9d009604:	02202025 	move	a0,s1
9d009608:	02402825 	move	a1,s2
9d00960c:	8c467658 	lw	a2,30296(v0)
9d009610:	8c47765c 	lw	a3,30300(v0)
9d009614:	afa30040 	sw	v1,64(sp)
9d009618:	0f4038ac 	jal	9d00e2b0 <__muldf3>
9d00961c:	afa30048 	sw	v1,72(sp)
9d009620:	8fa80048 	lw	t0,72(sp)
9d009624:	02c03025 	move	a2,s6
9d009628:	00402025 	move	a0,v0
9d00962c:	01003825 	move	a3,t0
9d009630:	00602825 	move	a1,v1
9d009634:	00409825 	move	s3,v0
9d009638:	0f4044d9 	jal	9d011364 <dpcmplt>
9d00963c:	0060a025 	move	s4,v1
9d009640:	1c40005e 	bgtz	v0,9d0097bc <__fmt_fp+0x6d8>
9d009644:	24020066 	li	v0,102
9d009648:	17c2005e 	bne	s8,v0,9d0097c4 <__fmt_fp+0x6e0>
9d00964c:	26f70001 	addiu	s7,s7,1
9d009650:	26100001 	addiu	s0,s0,1
9d009654:	02e08825 	move	s1,s7
9d009658:	02301023 	subu	v0,s1,s0
9d00965c:	afa20048 	sw	v0,72(sp)
9d009660:	8fa2001c 	lw	v0,28(sp)
9d009664:	8fb60024 	lw	s6,36(sp)
9d009668:	00005825 	move	t3,zero
9d00966c:	30420010 	andi	v0,v0,0x10
9d009670:	afa20054 	sw	v0,84(sp)
9d009674:	8fa20030 	lw	v0,48(sp)
9d009678:	00008025 	move	s0,zero
9d00967c:	24120009 	li	s2,9
9d009680:	8c43765c 	lw	v1,30300(v0)
9d009684:	8c427658 	lw	v0,30296(v0)
9d009688:	afa30034 	sw	v1,52(sp)
9d00968c:	afa20030 	sw	v0,48(sp)
9d009690:	8fa20048 	lw	v0,72(sp)
9d009694:	10510007 	beq	v0,s1,9d0096b4 <__fmt_fp+0x5d0>
9d009698:	02c05025 	move	t2,s6
9d00969c:	8fa2009c 	lw	v0,156(sp)
9d0096a0:	8c420010 	lw	v0,16(v0)
9d0096a4:	2442fffb 	addiu	v0,v0,-5
9d0096a8:	02c2102b 	sltu	v0,s6,v0
9d0096ac:	14400049 	bnez	v0,9d0097d4 <__fmt_fp+0x6f0>
9d0096b0:	8fa30038 	lw	v1,56(sp)
9d0096b4:	16000007 	bnez	s0,9d0096d4 <__fmt_fp+0x5f0>
9d0096b8:	8fa2001c 	lw	v0,28(sp)
9d0096bc:	30420010 	andi	v0,v0,0x10
9d0096c0:	10400004 	beqz	v0,9d0096d4 <__fmt_fp+0x5f0>
9d0096c4:	02aa5021 	addu	t2,s5,t2
9d0096c8:	2402002e 	li	v0,46
9d0096cc:	26d60001 	addiu	s6,s6,1
9d0096d0:	a1420000 	sb	v0,0(t2)
9d0096d4:	02b62021 	addu	a0,s5,s6
9d0096d8:	24020065 	li	v0,101
9d0096dc:	17c20025 	bne	s8,v0,9d009774 <__fmt_fp+0x690>
9d0096e0:	a0800000 	sb	zero,0(a0)
9d0096e4:	06e10003 	bgez	s7,9d0096f4 <__fmt_fp+0x610>
9d0096e8:	00001825 	move	v1,zero
9d0096ec:	0017b823 	negu	s7,s7
9d0096f0:	24030001 	li	v1,1
9d0096f4:	8fa20050 	lw	v0,80(sp)
9d0096f8:	8fa60018 	lw	a2,24(sp)
9d0096fc:	2407000a 	li	a3,10
9d009700:	2442ffff 	addiu	v0,v0,-1
9d009704:	02a22821 	addu	a1,s5,v0
9d009708:	a0a00000 	sb	zero,0(a1)
9d00970c:	24c9fffe 	addiu	t1,a2,-2
9d009710:	24050002 	li	a1,2
9d009714:	16e00089 	bnez	s7,9d00993c <__fmt_fp+0x858>
9d009718:	01253021 	addu	a2,t1,a1
9d00971c:	1ca00087 	bgtz	a1,9d00993c <__fmt_fp+0x858>
9d009720:	00000000 	nop
9d009724:	2407002d 	li	a3,45
9d009728:	2405002b 	li	a1,43
9d00972c:	00e3280b 	movn	a1,a3,v1
9d009730:	00a01825 	move	v1,a1
9d009734:	02a22821 	addu	a1,s5,v0
9d009738:	a0a3ffff 	sb	v1,-1(a1)
9d00973c:	8fa300a4 	lw	v1,164(sp)
9d009740:	24050045 	li	a1,69
9d009744:	2442fffe 	addiu	v0,v0,-2
9d009748:	2463ffbf 	addiu	v1,v1,-65
9d00974c:	2c63001a 	sltiu	v1,v1,26
9d009750:	00a3f00b 	movn	s8,a1,v1
9d009754:	02c2b02a 	slt	s6,s6,v0
9d009758:	02a22821 	addu	a1,s5,v0
9d00975c:	24c3fffe 	addiu	v1,a2,-2
9d009760:	a0be0000 	sb	s8,0(a1)
9d009764:	12c00003 	beqz	s6,9d009774 <__fmt_fp+0x690>
9d009768:	afa30018 	sw	v1,24(sp)
9d00976c:	0f405175 	jal	9d0145d4 <strcpy>
9d009770:	00000000 	nop
9d009774:	8fa2001c 	lw	v0,28(sp)
9d009778:	24030002 	li	v1,2
9d00977c:	30420003 	andi	v0,v0,0x3
9d009780:	1443fe9e 	bne	v0,v1,9d0091fc <__fmt_fp+0x118>
9d009784:	8fa20018 	lw	v0,24(sp)
9d009788:	1840fe9c 	blez	v0,9d0091fc <__fmt_fp+0x118>
9d00978c:	00000000 	nop
9d009790:	0f40524c 	jal	9d014930 <strlen>
9d009794:	02a02025 	move	a0,s5
9d009798:	8fa30024 	lw	v1,36(sp)
9d00979c:	0043182a 	slt	v1,v0,v1
9d0097a0:	10600070 	beqz	v1,9d009964 <__fmt_fp+0x880>
9d0097a4:	8fa60018 	lw	a2,24(sp)
9d0097a8:	8fa4002c 	lw	a0,44(sp)
9d0097ac:	0f405189 	jal	9d014624 <memset>
9d0097b0:	24050030 	li	a1,48
9d0097b4:	1000fe91 	b	9d0091fc <__fmt_fp+0x118>
9d0097b8:	afa00020 	sw	zero,32(sp)
9d0097bc:	02209825 	move	s3,s1
9d0097c0:	0240a025 	move	s4,s2
9d0097c4:	3bc90065 	xori	t1,s8,0x65
9d0097c8:	02e08825 	move	s1,s7
9d0097cc:	1000ffa2 	b	9d009658 <__fmt_fp+0x574>
9d0097d0:	0009880a 	movz	s1,zero,t1
9d0097d4:	8fa20040 	lw	v0,64(sp)
9d0097d8:	02603025 	move	a2,s3
9d0097dc:	02803825 	move	a3,s4
9d0097e0:	00602025 	move	a0,v1
9d0097e4:	00402825 	move	a1,v0
9d0097e8:	afab0064 	sw	t3,100(sp)
9d0097ec:	0f403064 	jal	9d00c190 <__divdf3>
9d0097f0:	afaa0060 	sw	t2,96(sp)
9d0097f4:	00402025 	move	a0,v0
9d0097f8:	0f404640 	jal	9d011900 <dpfloor>
9d0097fc:	00602825 	move	a1,v1
9d009800:	00602825 	move	a1,v1
9d009804:	00402025 	move	a0,v0
9d009808:	afa3005c 	sw	v1,92(sp)
9d00980c:	0f404b6a 	jal	9d012da8 <__fixdfsi>
9d009810:	afa20058 	sw	v0,88(sp)
9d009814:	2843000a 	slti	v1,v0,10
9d009818:	0243100a 	movz	v0,s2,v1
9d00981c:	8fa30054 	lw	v1,84(sp)
9d009820:	8fb80058 	lw	t8,88(sp)
9d009824:	8fb9005c 	lw	t9,92(sp)
9d009828:	00621825 	or	v1,v1,v0
9d00982c:	8faa0060 	lw	t2,96(sp)
9d009830:	1460000b 	bnez	v1,9d009860 <__fmt_fp+0x77c>
9d009834:	8fab0064 	lw	t3,100(sp)
9d009838:	8fa40028 	lw	a0,40(sp)
9d00983c:	24030067 	li	v1,103
9d009840:	14830007 	bne	a0,v1,9d009860 <__fmt_fp+0x77c>
9d009844:	00000000 	nop
9d009848:	06200021 	bltz	s1,9d0098d0 <__fmt_fp+0x7ec>
9d00984c:	256a0001 	addiu	t2,t3,1
9d009850:	02c01825 	move	v1,s6
9d009854:	02b62021 	addu	a0,s5,s6
9d009858:	10000011 	b	9d0098a0 <__fmt_fp+0x7bc>
9d00985c:	01605025 	move	t2,t3
9d009860:	1600fffc 	bnez	s0,9d009854 <__fmt_fp+0x770>
9d009864:	02c01825 	move	v1,s6
9d009868:	0623fffb 	bgezl	s1,9d009858 <__fmt_fp+0x774>
9d00986c:	02b62021 	addu	a0,s5,s6
9d009870:	8fa30018 	lw	v1,24(sp)
9d009874:	02aa5021 	addu	t2,s5,t2
9d009878:	26d60001 	addiu	s6,s6,1
9d00987c:	2463ffff 	addiu	v1,v1,-1
9d009880:	afa30018 	sw	v1,24(sp)
9d009884:	2403002e 	li	v1,46
9d009888:	a1430000 	sb	v1,0(t2)
9d00988c:	1000fff0 	b	9d009850 <__fmt_fp+0x76c>
9d009890:	24100001 	li	s0,1
9d009894:	a0850000 	sb	a1,0(a0)
9d009898:	254affff 	addiu	t2,t2,-1
9d00989c:	24840001 	addiu	a0,a0,1
9d0098a0:	1540fffc 	bnez	t2,9d009894 <__fmt_fp+0x7b0>
9d0098a4:	24050030 	li	a1,48
9d0098a8:	8fa40018 	lw	a0,24(sp)
9d0098ac:	26d60001 	addiu	s6,s6,1
9d0098b0:	02a31821 	addu	v1,s5,v1
9d0098b4:	2484ffff 	addiu	a0,a0,-1
9d0098b8:	008b2023 	subu	a0,a0,t3
9d0098bc:	02cbb021 	addu	s6,s6,t3
9d0098c0:	24420030 	addiu	v0,v0,48
9d0098c4:	006b5821 	addu	t3,v1,t3
9d0098c8:	afa40018 	sw	a0,24(sp)
9d0098cc:	a1620000 	sb	v0,0(t3)
9d0098d0:	8fa20040 	lw	v0,64(sp)
9d0098d4:	8fa50038 	lw	a1,56(sp)
9d0098d8:	3c0b8000 	lui	t3,0x8000
9d0098dc:	01622026 	xor	a0,t3,v0
9d0098e0:	02603025 	move	a2,s3
9d0098e4:	02803825 	move	a3,s4
9d0098e8:	afa50010 	sw	a1,16(sp)
9d0098ec:	afa40014 	sw	a0,20(sp)
9d0098f0:	03202825 	move	a1,t9
9d0098f4:	03002025 	move	a0,t8
9d0098f8:	0f402840 	jal	9d00a100 <fma>
9d0098fc:	afaa0058 	sw	t2,88(sp)
9d009900:	8fa60030 	lw	a2,48(sp)
9d009904:	8fa70034 	lw	a3,52(sp)
9d009908:	3c0b8000 	lui	t3,0x8000
9d00990c:	afa20038 	sw	v0,56(sp)
9d009910:	02602025 	move	a0,s3
9d009914:	01631026 	xor	v0,t3,v1
9d009918:	02802825 	move	a1,s4
9d00991c:	0f403064 	jal	9d00c190 <__divdf3>
9d009920:	afa20040 	sw	v0,64(sp)
9d009924:	8faa0058 	lw	t2,88(sp)
9d009928:	00409825 	move	s3,v0
9d00992c:	0060a025 	move	s4,v1
9d009930:	2631ffff 	addiu	s1,s1,-1
9d009934:	1000ff56 	b	9d009690 <__fmt_fp+0x5ac>
9d009938:	01405825 	move	t3,t2
9d00993c:	02e7001a 	div	zero,s7,a3
9d009940:	00e001f4 	teq	a3,zero,0x7
9d009944:	2442ffff 	addiu	v0,v0,-1
9d009948:	02a25021 	addu	t2,s5,v0
9d00994c:	24a5ffff 	addiu	a1,a1,-1
9d009950:	00003010 	mfhi	a2
9d009954:	24c60030 	addiu	a2,a2,48
9d009958:	a1460000 	sb	a2,0(t2)
9d00995c:	1000ff6d 	b	9d009714 <__fmt_fp+0x630>
9d009960:	0000b812 	mflo	s7
9d009964:	02a21821 	addu	v1,s5,v0
9d009968:	80640000 	lb	a0,0(v1)
9d00996c:	8fa30018 	lw	v1,24(sp)
9d009970:	00621821 	addu	v1,v1,v0
9d009974:	02a31821 	addu	v1,s5,v1
9d009978:	a0640000 	sb	a0,0(v1)
9d00997c:	1000ff86 	b	9d009798 <__fmt_fp+0x6b4>
9d009980:	2442ffff 	addiu	v0,v0,-1
9d009984:	06e1feb6 	bgez	s7,9d009460 <__fmt_fp+0x37c>
9d009988:	8fa30028 	lw	v1,40(sp)
9d00998c:	1000feac 	b	9d009440 <__fmt_fp+0x35c>
9d009990:	241e0066 	li	s8,102
9d009994:	1000fe58 	b	9d0092f8 <__fmt_fp+0x214>
9d009998:	24100006 	li	s0,6
9d00999c:	1062fe56 	beq	v1,v0,9d0092f8 <__fmt_fp+0x214>
9d0099a0:	24100006 	li	s0,6
9d0099a4:	1000fea6 	b	9d009440 <__fmt_fp+0x35c>
9d0099a8:	0060f025 	move	s8,v1

Disassembly of section .text.__scanf_core:

9d0099ac <__scanf_core>:
9d0099ac:	27bdfe20 	addiu	sp,sp,-480
9d0099b0:	afb701d4 	sw	s7,468(sp)
9d0099b4:	afb601d0 	sw	s6,464(sp)
9d0099b8:	afb501cc 	sw	s5,460(sp)
9d0099bc:	afb201c0 	sw	s2,448(sp)
9d0099c0:	afb001b8 	sw	s0,440(sp)
9d0099c4:	afbf01dc 	sw	ra,476(sp)
9d0099c8:	afbe01d8 	sw	s8,472(sp)
9d0099cc:	afb401c8 	sw	s4,456(sp)
9d0099d0:	afb301c4 	sw	s3,452(sp)
9d0099d4:	afb101bc 	sw	s1,444(sp)
9d0099d8:	00808025 	move	s0,a0
9d0099dc:	00c09025 	move	s2,a2
9d0099e0:	afa501b4 	sw	a1,436(sp)
9d0099e4:	afa001b0 	sw	zero,432(sp)
9d0099e8:	0000a825 	move	s5,zero
9d0099ec:	27b7011c 	addiu	s7,sp,284
9d0099f0:	24160001 	li	s6,1
9d0099f4:	8fa201b4 	lw	v0,436(sp)
9d0099f8:	80420000 	lb	v0,0(v0)
9d0099fc:	1040005c 	beqz	v0,9d009b70 <__scanf_core+0x1c4>
9d009a00:	24020080 	li	v0,128
9d009a04:	27a501b4 	addiu	a1,sp,436
9d009a08:	02002025 	move	a0,s0
9d009a0c:	afa0019c 	sw	zero,412(sp)
9d009a10:	afa001a0 	sw	zero,416(sp)
9d009a14:	afa001a4 	sw	zero,420(sp)
9d009a18:	afb701a8 	sw	s7,424(sp)
9d009a1c:	0f404d89 	jal	9d013624 <__consumews>
9d009a20:	afa201ac 	sw	v0,428(sp)
9d009a24:	0040f025 	move	s8,v0
9d009a28:	24110025 	li	s1,37
9d009a2c:	2414ffff 	li	s4,-1
9d009a30:	8fa301b4 	lw	v1,436(sp)
9d009a34:	80620000 	lb	v0,0(v1)
9d009a38:	50400003 	beqzl	v0,9d009a48 <__scanf_core+0x9c>
9d009a3c:	8fa201b0 	lw	v0,432(sp)
9d009a40:	1451003a 	bne	v0,s1,9d009b2c <__scanf_core+0x180>
9d009a44:	8fa201b0 	lw	v0,432(sp)
9d009a48:	005e1021 	addu	v0,v0,s8
9d009a4c:	afa201b0 	sw	v0,432(sp)
9d009a50:	80640000 	lb	a0,0(v1)
9d009a54:	24020025 	li	v0,37
9d009a58:	1482002d 	bne	a0,v0,9d009b10 <__scanf_core+0x164>
9d009a5c:	24620001 	addiu	v0,v1,1
9d009a60:	afa201b4 	sw	v0,436(sp)
9d009a64:	afa001a4 	sw	zero,420(sp)
9d009a68:	80640001 	lb	a0,1(v1)
9d009a6c:	2402002a 	li	v0,42
9d009a70:	14820004 	bne	a0,v0,9d009a84 <__scanf_core+0xd8>
9d009a74:	00008825 	move	s1,zero
9d009a78:	24630002 	addiu	v1,v1,2
9d009a7c:	afa301b4 	sw	v1,436(sp)
9d009a80:	24110001 	li	s1,1
9d009a84:	0f404cbb 	jal	9d0132ec <atoi>
9d009a88:	8fa401b4 	lw	a0,436(sp)
9d009a8c:	00402825 	move	a1,v0
9d009a90:	02002025 	move	a0,s0
9d009a94:	0f405116 	jal	9d014458 <__shlim>
9d009a98:	afa201a4 	sw	v0,420(sp)
9d009a9c:	8fa301b4 	lw	v1,436(sp)
9d009aa0:	80620000 	lb	v0,0(v1)
9d009aa4:	2442ffd0 	addiu	v0,v0,-48
9d009aa8:	2c42000a 	sltiu	v0,v0,10
9d009aac:	1440004c 	bnez	v0,9d009be0 <__scanf_core+0x234>
9d009ab0:	24630001 	addiu	v1,v1,1
9d009ab4:	0f404eb8 	jal	9d013ae0 <__fmt_state>
9d009ab8:	27a401b4 	addiu	a0,sp,436
9d009abc:	0040a025 	move	s4,v0
9d009ac0:	8fa201b4 	lw	v0,436(sp)
9d009ac4:	0f4051de 	jal	9d014778 <tolower>
9d009ac8:	80440000 	lb	a0,0(v0)
9d009acc:	28430068 	slti	v1,v0,104
9d009ad0:	10600060 	beqz	v1,9d009c54 <__scanf_core+0x2a8>
9d009ad4:	28430065 	slti	v1,v0,101
9d009ad8:	106000be 	beqz	v1,9d009dd4 <__scanf_core+0x428>
9d009adc:	24030061 	li	v1,97
9d009ae0:	104300bc 	beq	v0,v1,9d009dd4 <__scanf_core+0x428>
9d009ae4:	28430062 	slti	v1,v0,98
9d009ae8:	1060003f 	beqz	v1,9d009be8 <__scanf_core+0x23c>
9d009aec:	24040025 	li	a0,37
9d009af0:	104400e1 	beq	v0,a0,9d009e78 <__scanf_core+0x4cc>
9d009af4:	8fa301b4 	lw	v1,436(sp)
9d009af8:	2404005b 	li	a0,91
9d009afc:	104400fd 	beq	v0,a0,9d009ef4 <__scanf_core+0x548>
9d009b00:	24020080 	li	v0,128
9d009b04:	8fa201b4 	lw	v0,436(sp)
9d009b08:	24420001 	addiu	v0,v0,1
9d009b0c:	afa201b4 	sw	v0,436(sp)
9d009b10:	2402ffff 	li	v0,-1
9d009b14:	166200ad 	bne	s3,v0,9d009dcc <__scanf_core+0x420>
9d009b18:	00008825 	move	s1,zero
9d009b1c:	52a00014 	beqzl	s5,9d009b70 <__scanf_core+0x1c4>
9d009b20:	2415ffff 	li	s5,-1
9d009b24:	10000013 	b	9d009b74 <__scanf_core+0x1c8>
9d009b28:	8fbf01dc 	lw	ra,476(sp)
9d009b2c:	8e02003c 	lw	v0,60(s0)
9d009b30:	8e03004c 	lw	v1,76(s0)
9d009b34:	0043182b 	sltu	v1,v0,v1
9d009b38:	1060001a 	beqz	v1,9d009ba4 <__scanf_core+0x1f8>
9d009b3c:	24430001 	addiu	v1,v0,1
9d009b40:	ae03003c 	sw	v1,60(s0)
9d009b44:	90530000 	lbu	s3,0(v0)
9d009b48:	8fa201b4 	lw	v0,436(sp)
9d009b4c:	80420000 	lb	v0,0(v0)
9d009b50:	10530019 	beq	v0,s3,9d009bb8 <__scanf_core+0x20c>
9d009b54:	8fa201b0 	lw	v0,432(sp)
9d009b58:	8e02004c 	lw	v0,76(s0)
9d009b5c:	10400005 	beqz	v0,9d009b74 <__scanf_core+0x1c8>
9d009b60:	8fbf01dc 	lw	ra,476(sp)
9d009b64:	8e02003c 	lw	v0,60(s0)
9d009b68:	2442ffff 	addiu	v0,v0,-1
9d009b6c:	ae02003c 	sw	v0,60(s0)
9d009b70:	8fbf01dc 	lw	ra,476(sp)
9d009b74:	02a01025 	move	v0,s5
9d009b78:	8fbe01d8 	lw	s8,472(sp)
9d009b7c:	8fb701d4 	lw	s7,468(sp)
9d009b80:	8fb601d0 	lw	s6,464(sp)
9d009b84:	8fb501cc 	lw	s5,460(sp)
9d009b88:	8fb401c8 	lw	s4,456(sp)
9d009b8c:	8fb301c4 	lw	s3,452(sp)
9d009b90:	8fb201c0 	lw	s2,448(sp)
9d009b94:	8fb101bc 	lw	s1,444(sp)
9d009b98:	8fb001b8 	lw	s0,440(sp)
9d009b9c:	03e00008 	jr	ra
9d009ba0:	27bd01e0 	addiu	sp,sp,480
9d009ba4:	0f4048dc 	jal	9d012370 <__shgetc>
9d009ba8:	02002025 	move	a0,s0
9d009bac:	1454ffe6 	bne	v0,s4,9d009b48 <__scanf_core+0x19c>
9d009bb0:	00409825 	move	s3,v0
9d009bb4:	8fa201b0 	lw	v0,432(sp)
9d009bb8:	27a501b4 	addiu	a1,sp,436
9d009bbc:	02002025 	move	a0,s0
9d009bc0:	24420001 	addiu	v0,v0,1
9d009bc4:	afa201b0 	sw	v0,432(sp)
9d009bc8:	8fa201b4 	lw	v0,436(sp)
9d009bcc:	24420001 	addiu	v0,v0,1
9d009bd0:	0f404d89 	jal	9d013624 <__consumews>
9d009bd4:	afa201b4 	sw	v0,436(sp)
9d009bd8:	1000ff95 	b	9d009a30 <__scanf_core+0x84>
9d009bdc:	03c2f021 	addu	s8,s8,v0
9d009be0:	1000ffae 	b	9d009a9c <__scanf_core+0xf0>
9d009be4:	afa301b4 	sw	v1,436(sp)
9d009be8:	24030063 	li	v1,99
9d009bec:	1043008a 	beq	v0,v1,9d009e18 <__scanf_core+0x46c>
9d009bf0:	24030064 	li	v1,100
9d009bf4:	1443ffc3 	bne	v0,v1,9d009b04 <__scanf_core+0x158>
9d009bf8:	27a701b0 	addiu	a3,sp,432
9d009bfc:	27a6019c 	addiu	a2,sp,412
9d009c00:	27a50018 	addiu	a1,sp,24
9d009c04:	0f404d51 	jal	9d013544 <__scan_d>
9d009c08:	02002025 	move	a0,s0
9d009c0c:	0442000c 	bltzl	v0,9d009c40 <__scanf_core+0x294>
9d009c10:	00408825 	move	s1,v0
9d009c14:	8fa201b4 	lw	v0,436(sp)
9d009c18:	24420001 	addiu	v0,v0,1
9d009c1c:	162000a8 	bnez	s1,9d009ec0 <__scanf_core+0x514>
9d009c20:	afa201b4 	sw	v0,436(sp)
9d009c24:	02403825 	move	a3,s2
9d009c28:	24060001 	li	a2,1
9d009c2c:	02802825 	move	a1,s4
9d009c30:	0f4040e2 	jal	9d010388 <__push_int>
9d009c34:	27a40018 	addiu	a0,sp,24
9d009c38:	04410064 	bgez	v0,9d009dcc <__scanf_core+0x420>
9d009c3c:	00408825 	move	s1,v0
9d009c40:	2402ffff 	li	v0,-1
9d009c44:	1222ffb5 	beq	s1,v0,9d009b1c <__scanf_core+0x170>
9d009c48:	8fbf01dc 	lw	ra,476(sp)
9d009c4c:	1000ffca 	b	9d009b78 <__scanf_core+0x1cc>
9d009c50:	02a01025 	move	v0,s5
9d009c54:	24030070 	li	v1,112
9d009c58:	10430040 	beq	v0,v1,9d009d5c <__scanf_core+0x3b0>
9d009c5c:	28430071 	slti	v1,v0,113
9d009c60:	1060000d 	beqz	v1,9d009c98 <__scanf_core+0x2ec>
9d009c64:	2403006e 	li	v1,110
9d009c68:	1043004b 	beq	v0,v1,9d009d98 <__scanf_core+0x3ec>
9d009c6c:	2843006f 	slti	v1,v0,111
9d009c70:	1060002c 	beqz	v1,9d009d24 <__scanf_core+0x378>
9d009c74:	24030069 	li	v1,105
9d009c78:	1443ffa2 	bne	v0,v1,9d009b04 <__scanf_core+0x158>
9d009c7c:	27a701b0 	addiu	a3,sp,432
9d009c80:	27a6019c 	addiu	a2,sp,412
9d009c84:	27a50018 	addiu	a1,sp,24
9d009c88:	0f403a36 	jal	9d00e8d8 <__scan_i>
9d009c8c:	02002025 	move	a0,s0
9d009c90:	1000ffde 	b	9d009c0c <__scanf_core+0x260>
9d009c94:	00000000 	nop
9d009c98:	24030075 	li	v1,117
9d009c9c:	10430013 	beq	v0,v1,9d009cec <__scanf_core+0x340>
9d009ca0:	24030078 	li	v1,120
9d009ca4:	10430026 	beq	v0,v1,9d009d40 <__scanf_core+0x394>
9d009ca8:	24030073 	li	v1,115
9d009cac:	1443ff95 	bne	v0,v1,9d009b04 <__scanf_core+0x158>
9d009cb0:	24020080 	li	v0,128
9d009cb4:	1682ff93 	bne	s4,v0,9d009b04 <__scanf_core+0x158>
9d009cb8:	8fa201b4 	lw	v0,436(sp)
9d009cbc:	24420001 	addiu	v0,v0,1
9d009cc0:	afa201b4 	sw	v0,436(sp)
9d009cc4:	16200005 	bnez	s1,9d009cdc <__scanf_core+0x330>
9d009cc8:	00001025 	move	v0,zero
9d009ccc:	8e420000 	lw	v0,0(s2)
9d009cd0:	24430004 	addiu	v1,v0,4
9d009cd4:	ae430000 	sw	v1,0(s2)
9d009cd8:	8c420000 	lw	v0,0(v0)
9d009cdc:	afa20010 	sw	v0,16(sp)
9d009ce0:	27a701b0 	addiu	a3,sp,432
9d009ce4:	1000005f 	b	9d009e64 <__scanf_core+0x4b8>
9d009ce8:	24060001 	li	a2,1
9d009cec:	27a701b0 	addiu	a3,sp,432
9d009cf0:	27a6019c 	addiu	a2,sp,412
9d009cf4:	27a50018 	addiu	a1,sp,24
9d009cf8:	0f404d6d 	jal	9d0135b4 <__scan_u>
9d009cfc:	02002025 	move	a0,s0
9d009d00:	0442ffcf 	bltzl	v0,9d009c40 <__scanf_core+0x294>
9d009d04:	00408825 	move	s1,v0
9d009d08:	8fa201b4 	lw	v0,436(sp)
9d009d0c:	24420001 	addiu	v0,v0,1
9d009d10:	1620006b 	bnez	s1,9d009ec0 <__scanf_core+0x514>
9d009d14:	afa201b4 	sw	v0,436(sp)
9d009d18:	02403825 	move	a3,s2
9d009d1c:	1000ffc3 	b	9d009c2c <__scanf_core+0x280>
9d009d20:	00003025 	move	a2,zero
9d009d24:	27a701b0 	addiu	a3,sp,432
9d009d28:	27a6019c 	addiu	a2,sp,412
9d009d2c:	27a50018 	addiu	a1,sp,24
9d009d30:	0f4042a0 	jal	9d010a80 <__scan_o>
9d009d34:	02002025 	move	a0,s0
9d009d38:	1000fff1 	b	9d009d00 <__scanf_core+0x354>
9d009d3c:	00000000 	nop
9d009d40:	27a701b0 	addiu	a3,sp,432
9d009d44:	27a6019c 	addiu	a2,sp,412
9d009d48:	27a50018 	addiu	a1,sp,24
9d009d4c:	0f403dfd 	jal	9d00f7f4 <__scan_x>
9d009d50:	02002025 	move	a0,s0
9d009d54:	1000ffea 	b	9d009d00 <__scanf_core+0x354>
9d009d58:	00000000 	nop
9d009d5c:	27a701b0 	addiu	a3,sp,432
9d009d60:	27a6019c 	addiu	a2,sp,412
9d009d64:	27a50018 	addiu	a1,sp,24
9d009d68:	0f403dfd 	jal	9d00f7f4 <__scan_x>
9d009d6c:	02002025 	move	a0,s0
9d009d70:	0442ffb3 	bltzl	v0,9d009c40 <__scanf_core+0x294>
9d009d74:	00408825 	move	s1,v0
9d009d78:	8fa201b4 	lw	v0,436(sp)
9d009d7c:	24420001 	addiu	v0,v0,1
9d009d80:	1620004f 	bnez	s1,9d009ec0 <__scanf_core+0x514>
9d009d84:	afa201b4 	sw	v0,436(sp)
9d009d88:	02403825 	move	a3,s2
9d009d8c:	00003025 	move	a2,zero
9d009d90:	1000ffa7 	b	9d009c30 <__scanf_core+0x284>
9d009d94:	240500f0 	li	a1,240
9d009d98:	8fa201b4 	lw	v0,436(sp)
9d009d9c:	24420001 	addiu	v0,v0,1
9d009da0:	afa201b4 	sw	v0,436(sp)
9d009da4:	8fa201b0 	lw	v0,432(sp)
9d009da8:	afa20018 	sw	v0,24(sp)
9d009dac:	000217c3 	sra	v0,v0,0x1f
9d009db0:	16200043 	bnez	s1,9d009ec0 <__scanf_core+0x514>
9d009db4:	afa2001c 	sw	v0,28(sp)
9d009db8:	02403825 	move	a3,s2
9d009dbc:	00003025 	move	a2,zero
9d009dc0:	02802825 	move	a1,s4
9d009dc4:	0f4040e2 	jal	9d010388 <__push_int>
9d009dc8:	27a40018 	addiu	a0,sp,24
9d009dcc:	1000ff09 	b	9d0099f4 <__scanf_core+0x48>
9d009dd0:	02b1a821 	addu	s5,s5,s1
9d009dd4:	27a701b0 	addiu	a3,sp,432
9d009dd8:	27a6019c 	addiu	a2,sp,412
9d009ddc:	27a50018 	addiu	a1,sp,24
9d009de0:	0f4035d1 	jal	9d00d744 <__scan_fp>
9d009de4:	02002025 	move	a0,s0
9d009de8:	0442ff95 	bltzl	v0,9d009c40 <__scanf_core+0x294>
9d009dec:	00408825 	move	s1,v0
9d009df0:	8fa201b4 	lw	v0,436(sp)
9d009df4:	24420001 	addiu	v0,v0,1
9d009df8:	16200031 	bnez	s1,9d009ec0 <__scanf_core+0x514>
9d009dfc:	afa201b4 	sw	v0,436(sp)
9d009e00:	02403025 	move	a2,s2
9d009e04:	02802825 	move	a1,s4
9d009e08:	0f4049b7 	jal	9d0126dc <__push_float>
9d009e0c:	27a40018 	addiu	a0,sp,24
9d009e10:	1000ff89 	b	9d009c38 <__scanf_core+0x28c>
9d009e14:	00000000 	nop
9d009e18:	24020080 	li	v0,128
9d009e1c:	1682ff39 	bne	s4,v0,9d009b04 <__scanf_core+0x158>
9d009e20:	8fa201a4 	lw	v0,420(sp)
9d009e24:	54400004 	bnezl	v0,9d009e38 <__scanf_core+0x48c>
9d009e28:	8fa201b4 	lw	v0,436(sp)
9d009e2c:	24020001 	li	v0,1
9d009e30:	afa201a4 	sw	v0,420(sp)
9d009e34:	8fa201b4 	lw	v0,436(sp)
9d009e38:	24420001 	addiu	v0,v0,1
9d009e3c:	afa201b4 	sw	v0,436(sp)
9d009e40:	16200005 	bnez	s1,9d009e58 <__scanf_core+0x4ac>
9d009e44:	00001025 	move	v0,zero
9d009e48:	8e420000 	lw	v0,0(s2)
9d009e4c:	24430004 	addiu	v1,v0,4
9d009e50:	ae430000 	sw	v1,0(s2)
9d009e54:	8c420000 	lw	v0,0(v0)
9d009e58:	afa20010 	sw	v0,16(sp)
9d009e5c:	27a701b0 	addiu	a3,sp,432
9d009e60:	00003025 	move	a2,zero
9d009e64:	27a5019c 	addiu	a1,sp,412
9d009e68:	0f40424a 	jal	9d010928 <__scan_s>
9d009e6c:	02002025 	move	a0,s0
9d009e70:	1000ff71 	b	9d009c38 <__scanf_core+0x28c>
9d009e74:	00000000 	nop
9d009e78:	24020080 	li	v0,128
9d009e7c:	1682ff22 	bne	s4,v0,9d009b08 <__scanf_core+0x15c>
9d009e80:	8fa201b4 	lw	v0,436(sp)
9d009e84:	24630001 	addiu	v1,v1,1
9d009e88:	afa301b4 	sw	v1,436(sp)
9d009e8c:	8e02003c 	lw	v0,60(s0)
9d009e90:	8e03004c 	lw	v1,76(s0)
9d009e94:	0043182b 	sltu	v1,v0,v1
9d009e98:	1060000b 	beqz	v1,9d009ec8 <__scanf_core+0x51c>
9d009e9c:	00000000 	nop
9d009ea0:	24430001 	addiu	v1,v0,1
9d009ea4:	ae03003c 	sw	v1,60(s0)
9d009ea8:	90420000 	lbu	v0,0(v0)
9d009eac:	24030025 	li	v1,37
9d009eb0:	14430009 	bne	v0,v1,9d009ed8 <__scanf_core+0x52c>
9d009eb4:	8fa201b0 	lw	v0,432(sp)
9d009eb8:	24420001 	addiu	v0,v0,1
9d009ebc:	afa201b0 	sw	v0,432(sp)
9d009ec0:	1000ffc2 	b	9d009dcc <__scanf_core+0x420>
9d009ec4:	00008825 	move	s1,zero
9d009ec8:	0f4048dc 	jal	9d012370 <__shgetc>
9d009ecc:	02002025 	move	a0,s0
9d009ed0:	1000fff7 	b	9d009eb0 <__scanf_core+0x504>
9d009ed4:	24030025 	li	v1,37
9d009ed8:	8e02004c 	lw	v0,76(s0)
9d009edc:	5040ffbb 	beqzl	v0,9d009dcc <__scanf_core+0x420>
9d009ee0:	00008825 	move	s1,zero
9d009ee4:	8e02003c 	lw	v0,60(s0)
9d009ee8:	2442ffff 	addiu	v0,v0,-1
9d009eec:	1000fff4 	b	9d009ec0 <__scanf_core+0x514>
9d009ef0:	ae02003c 	sw	v0,60(s0)
9d009ef4:	1682ff04 	bne	s4,v0,9d009b08 <__scanf_core+0x15c>
9d009ef8:	8fa201b4 	lw	v0,436(sp)
9d009efc:	16200005 	bnez	s1,9d009f14 <__scanf_core+0x568>
9d009f00:	0000a025 	move	s4,zero
9d009f04:	8e420000 	lw	v0,0(s2)
9d009f08:	24440004 	addiu	a0,v0,4
9d009f0c:	ae440000 	sw	a0,0(s2)
9d009f10:	8c540000 	lw	s4,0(v0)
9d009f14:	24620001 	addiu	v0,v1,1
9d009f18:	afa201b4 	sw	v0,436(sp)
9d009f1c:	80640001 	lb	a0,1(v1)
9d009f20:	2402005e 	li	v0,94
9d009f24:	14820004 	bne	a0,v0,9d009f38 <__scanf_core+0x58c>
9d009f28:	00008825 	move	s1,zero
9d009f2c:	24630002 	addiu	v1,v1,2
9d009f30:	afa301b4 	sw	v1,436(sp)
9d009f34:	24110001 	li	s1,1
9d009f38:	27a40018 	addiu	a0,sp,24
9d009f3c:	24060101 	li	a2,257
9d009f40:	0f405189 	jal	9d014624 <memset>
9d009f44:	02202825 	move	a1,s1
9d009f48:	8fa201b4 	lw	v0,436(sp)
9d009f4c:	a3a00018 	sb	zero,24(sp)
9d009f50:	2404002d 	li	a0,45
9d009f54:	80430000 	lb	v1,0(v0)
9d009f58:	1464001c 	bne	v1,a0,9d009fcc <__scanf_core+0x620>
9d009f5c:	2404005d 	li	a0,93
9d009f60:	24420001 	addiu	v0,v0,1
9d009f64:	afa201b4 	sw	v0,436(sp)
9d009f68:	02d11023 	subu	v0,s6,s1
9d009f6c:	a3a20046 	sb	v0,70(sp)
9d009f70:	2405005d 	li	a1,93
9d009f74:	2406002d 	li	a2,45
9d009f78:	02d18823 	subu	s1,s6,s1
9d009f7c:	8fa301b4 	lw	v1,436(sp)
9d009f80:	80620000 	lb	v0,0(v1)
9d009f84:	14450017 	bne	v0,a1,9d009fe4 <__scanf_core+0x638>
9d009f88:	00000000 	nop
9d009f8c:	56800036 	bnezl	s4,9d00a068 <__scanf_core+0x6bc>
9d009f90:	00008825 	move	s1,zero
9d009f94:	8e02003c 	lw	v0,60(s0)
9d009f98:	8e03004c 	lw	v1,76(s0)
9d009f9c:	0043182b 	sltu	v1,v0,v1
9d009fa0:	10600053 	beqz	v1,9d00a0f0 <__scanf_core+0x744>
9d009fa4:	24430001 	addiu	v1,v0,1
9d009fa8:	ae03003c 	sw	v1,60(s0)
9d009fac:	90530000 	lbu	s3,0(v0)
9d009fb0:	27a20018 	addiu	v0,sp,24
9d009fb4:	00531021 	addu	v0,v0,s3
9d009fb8:	90420001 	lbu	v0,1(v0)
9d009fbc:	14400048 	bnez	v0,9d00a0e0 <__scanf_core+0x734>
9d009fc0:	0000f025 	move	s8,zero
9d009fc4:	10000036 	b	9d00a0a0 <__scanf_core+0x6f4>
9d009fc8:	8e02004c 	lw	v0,76(s0)
9d009fcc:	1464ffe8 	bne	v1,a0,9d009f70 <__scanf_core+0x5c4>
9d009fd0:	24420001 	addiu	v0,v0,1
9d009fd4:	afa201b4 	sw	v0,436(sp)
9d009fd8:	02d11023 	subu	v0,s6,s1
9d009fdc:	1000ffe4 	b	9d009f70 <__scanf_core+0x5c4>
9d009fe0:	a3a20076 	sb	v0,118(sp)
9d009fe4:	1040ffe9 	beqz	v0,9d009f8c <__scanf_core+0x5e0>
9d009fe8:	00000000 	nop
9d009fec:	10460009 	beq	v0,a2,9d00a014 <__scanf_core+0x668>
9d009ff0:	8fa201b8 	lw	v0,440(sp)
9d009ff4:	8fa201b4 	lw	v0,436(sp)
9d009ff8:	27a40018 	addiu	a0,sp,24
9d009ffc:	80430000 	lb	v1,0(v0)
9d00a000:	24420001 	addiu	v0,v0,1
9d00a004:	afa201b4 	sw	v0,436(sp)
9d00a008:	00831821 	addu	v1,a0,v1
9d00a00c:	1000ffdb 	b	9d009f7c <__scanf_core+0x5d0>
9d00a010:	a0710001 	sb	s1,1(v1)
9d00a014:	80420000 	lb	v0,0(v0)
9d00a018:	5040fff7 	beqzl	v0,9d009ff8 <__scanf_core+0x64c>
9d00a01c:	8fa201b4 	lw	v0,436(sp)
9d00a020:	1045fff4 	beq	v0,a1,9d009ff4 <__scanf_core+0x648>
9d00a024:	24620001 	addiu	v0,v1,1
9d00a028:	afa201b4 	sw	v0,436(sp)
9d00a02c:	8fa201b0 	lw	v0,432(sp)
9d00a030:	80420000 	lb	v0,0(v0)
9d00a034:	80640001 	lb	a0,1(v1)
9d00a038:	0044202a 	slt	a0,v0,a0
9d00a03c:	1080ffed 	beqz	a0,9d009ff4 <__scanf_core+0x648>
9d00a040:	24420001 	addiu	v0,v0,1
9d00a044:	27a40018 	addiu	a0,sp,24
9d00a048:	00822021 	addu	a0,a0,v0
9d00a04c:	1000fff9 	b	9d00a034 <__scanf_core+0x688>
9d00a050:	a0910000 	sb	s1,0(a0)
9d00a054:	a0530000 	sb	s3,0(v0)
9d00a058:	8fa201b0 	lw	v0,432(sp)
9d00a05c:	26310001 	addiu	s1,s1,1
9d00a060:	24420001 	addiu	v0,v0,1
9d00a064:	afa201b0 	sw	v0,432(sp)
9d00a068:	8e02003c 	lw	v0,60(s0)
9d00a06c:	8e03004c 	lw	v1,76(s0)
9d00a070:	0043182b 	sltu	v1,v0,v1
9d00a074:	10600016 	beqz	v1,9d00a0d0 <__scanf_core+0x724>
9d00a078:	0220f025 	move	s8,s1
9d00a07c:	24430001 	addiu	v1,v0,1
9d00a080:	ae03003c 	sw	v1,60(s0)
9d00a084:	90530000 	lbu	s3,0(v0)
9d00a088:	27a20018 	addiu	v0,sp,24
9d00a08c:	00531021 	addu	v0,v0,s3
9d00a090:	90420001 	lbu	v0,1(v0)
9d00a094:	1440ffef 	bnez	v0,9d00a054 <__scanf_core+0x6a8>
9d00a098:	02911021 	addu	v0,s4,s1
9d00a09c:	8e02004c 	lw	v0,76(s0)
9d00a0a0:	10400004 	beqz	v0,9d00a0b4 <__scanf_core+0x708>
9d00a0a4:	00000000 	nop
9d00a0a8:	8e02003c 	lw	v0,60(s0)
9d00a0ac:	2442ffff 	addiu	v0,v0,-1
9d00a0b0:	ae02003c 	sw	v0,60(s0)
9d00a0b4:	13c0fe94 	beqz	s8,9d009b08 <__scanf_core+0x15c>
9d00a0b8:	8fa201b4 	lw	v0,436(sp)
9d00a0bc:	1280fe93 	beqz	s4,9d009b0c <__scanf_core+0x160>
9d00a0c0:	24420001 	addiu	v0,v0,1
9d00a0c4:	029ea021 	addu	s4,s4,s8
9d00a0c8:	1000fe8e 	b	9d009b04 <__scanf_core+0x158>
9d00a0cc:	a2800000 	sb	zero,0(s4)
9d00a0d0:	0f4048dc 	jal	9d012370 <__shgetc>
9d00a0d4:	02002025 	move	a0,s0
9d00a0d8:	1000ffeb 	b	9d00a088 <__scanf_core+0x6dc>
9d00a0dc:	00409825 	move	s3,v0
9d00a0e0:	8fa201b0 	lw	v0,432(sp)
9d00a0e4:	24420001 	addiu	v0,v0,1
9d00a0e8:	1000ffaa 	b	9d009f94 <__scanf_core+0x5e8>
9d00a0ec:	afa201b0 	sw	v0,432(sp)
9d00a0f0:	0f4048dc 	jal	9d012370 <__shgetc>
9d00a0f4:	02002025 	move	a0,s0
9d00a0f8:	1000ffad 	b	9d009fb0 <__scanf_core+0x604>
9d00a0fc:	00409825 	move	s3,v0

Disassembly of section .text.fma:

9d00a100 <fma>:
9d00a100:	27bdff78 	addiu	sp,sp,-136
9d00a104:	afa40088 	sw	a0,136(sp)
9d00a108:	afa60090 	sw	a2,144(sp)
9d00a10c:	afa70094 	sw	a3,148(sp)
9d00a110:	00803025 	move	a2,a0
9d00a114:	00a03825 	move	a3,a1
9d00a118:	27a40030 	addiu	a0,sp,48
9d00a11c:	afbf0084 	sw	ra,132(sp)
9d00a120:	afa5008c 	sw	a1,140(sp)
9d00a124:	afbe0080 	sw	s8,128(sp)
9d00a128:	afb3006c 	sw	s3,108(sp)
9d00a12c:	afb20068 	sw	s2,104(sp)
9d00a130:	afb10064 	sw	s1,100(sp)
9d00a134:	8fb20098 	lw	s2,152(sp)
9d00a138:	8fb3009c 	lw	s3,156(sp)
9d00a13c:	afb7007c 	sw	s7,124(sp)
9d00a140:	afb60078 	sw	s6,120(sp)
9d00a144:	afb50074 	sw	s5,116(sp)
9d00a148:	afb40070 	sw	s4,112(sp)
9d00a14c:	0f4049e1 	jal	9d012784 <normalize>
9d00a150:	afb00060 	sw	s0,96(sp)
9d00a154:	8fa60090 	lw	a2,144(sp)
9d00a158:	8fa70094 	lw	a3,148(sp)
9d00a15c:	8fb10038 	lw	s1,56(sp)
9d00a160:	0f4049e1 	jal	9d012784 <normalize>
9d00a164:	27a40020 	addiu	a0,sp,32
9d00a168:	02403025 	move	a2,s2
9d00a16c:	02603825 	move	a3,s3
9d00a170:	27a40010 	addiu	a0,sp,16
9d00a174:	0f4049e1 	jal	9d012784 <normalize>
9d00a178:	8fbe0028 	lw	s8,40(sp)
9d00a17c:	2a2203cb 	slti	v0,s1,971
9d00a180:	10400003 	beqz	v0,9d00a190 <fma+0x90>
9d00a184:	2bc203cb 	slti	v0,s8,971
9d00a188:	1440000e 	bnez	v0,9d00a1c4 <fma+0xc4>
9d00a18c:	8fb90018 	lw	t9,24(sp)
9d00a190:	8fa60090 	lw	a2,144(sp)
9d00a194:	8fa70094 	lw	a3,148(sp)
9d00a198:	8fa40088 	lw	a0,136(sp)
9d00a19c:	0f4038ac 	jal	9d00e2b0 <__muldf3>
9d00a1a0:	8fa5008c 	lw	a1,140(sp)
9d00a1a4:	00403025 	move	a2,v0
9d00a1a8:	00603825 	move	a3,v1
9d00a1ac:	02402025 	move	a0,s2
9d00a1b0:	0f4034c7 	jal	9d00d31c <__adddf3>
9d00a1b4:	02602825 	move	a1,s3
9d00a1b8:	00409025 	move	s2,v0
9d00a1bc:	10000006 	b	9d00a1d8 <fma+0xd8>
9d00a1c0:	00609825 	move	s3,v1
9d00a1c4:	2b2203cb 	slti	v0,t9,971
9d00a1c8:	14400011 	bnez	v0,9d00a210 <fma+0x110>
9d00a1cc:	240203cb 	li	v0,971
9d00a1d0:	1722fff0 	bne	t9,v0,9d00a194 <fma+0x94>
9d00a1d4:	8fa60090 	lw	a2,144(sp)
9d00a1d8:	8fbf0084 	lw	ra,132(sp)
9d00a1dc:	02401025 	move	v0,s2
9d00a1e0:	02601825 	move	v1,s3
9d00a1e4:	8fbe0080 	lw	s8,128(sp)
9d00a1e8:	8fb7007c 	lw	s7,124(sp)
9d00a1ec:	8fb60078 	lw	s6,120(sp)
9d00a1f0:	8fb50074 	lw	s5,116(sp)
9d00a1f4:	8fb40070 	lw	s4,112(sp)
9d00a1f8:	8fb3006c 	lw	s3,108(sp)
9d00a1fc:	8fb20068 	lw	s2,104(sp)
9d00a200:	8fb10064 	lw	s1,100(sp)
9d00a204:	8fb00060 	lw	s0,96(sp)
9d00a208:	03e00008 	jr	ra
9d00a20c:	27bd0088 	addiu	sp,sp,136
9d00a210:	8fa20030 	lw	v0,48(sp)
9d00a214:	8faa0020 	lw	t2,32(sp)
9d00a218:	8fa40024 	lw	a0,36(sp)
9d00a21c:	8fa60034 	lw	a2,52(sp)
9d00a220:	004a0019 	multu	v0,t2
9d00a224:	03d1f021 	addu	s8,s8,s1
9d00a228:	033e8823 	subu	s1,t9,s8
9d00a22c:	8fa70010 	lw	a3,16(sp)
9d00a230:	8fb70014 	lw	s7,20(sp)
9d00a234:	00004012 	mflo	t0
9d00a238:	afa80040 	sw	t0,64(sp)
9d00a23c:	8faf0040 	lw	t7,64(sp)
9d00a240:	00004810 	mfhi	t1
9d00a244:	afa90044 	sw	t1,68(sp)
9d00a248:	00440019 	multu	v0,a0
9d00a24c:	00001012 	mflo	v0
9d00a250:	00001810 	mfhi	v1
9d00a254:	00ca0019 	multu	a2,t2
9d00a258:	00005012 	mflo	t2
9d00a25c:	004ac021 	addu	t8,v0,t2
9d00a260:	0302402b 	sltu	t0,t8,v0
9d00a264:	00005810 	mfhi	t3
9d00a268:	8fa20044 	lw	v0,68(sp)
9d00a26c:	006b5821 	addu	t3,v1,t3
9d00a270:	00c40019 	multu	a2,a0
9d00a274:	010b4021 	addu	t0,t0,t3
9d00a278:	0302c021 	addu	t8,t8,v0
9d00a27c:	0302302b 	sltu	a2,t8,v0
9d00a280:	00002012 	mflo	a0
9d00a284:	00884021 	addu	t0,a0,t0
9d00a288:	01063021 	addu	a2,t0,a2
9d00a28c:	00002810 	mfhi	a1
9d00a290:	0104582b 	sltu	t3,t0,a0
9d00a294:	01655821 	addu	t3,t3,a1
9d00a298:	00c8182b 	sltu	v1,a2,t0
9d00a29c:	00c08025 	move	s0,a2
9d00a2a0:	1a2000ab 	blez	s1,9d00a550 <fma+0x450>
9d00a2a4:	006bb021 	addu	s6,v1,t3
9d00a2a8:	2a220040 	slti	v0,s1,64
9d00a2ac:	10400078 	beqz	v0,9d00a490 <fma+0x390>
9d00a2b0:	00e02025 	move	a0,a3
9d00a2b4:	02e02825 	move	a1,s7
9d00a2b8:	02203025 	move	a2,s1
9d00a2bc:	afb80054 	sw	t8,84(sp)
9d00a2c0:	afaf0050 	sw	t7,80(sp)
9d00a2c4:	0f405078 	jal	9d0141e0 <__ashldi3>
9d00a2c8:	afa7004c 	sw	a3,76(sp)
9d00a2cc:	8fa7004c 	lw	a3,76(sp)
9d00a2d0:	24060040 	li	a2,64
9d00a2d4:	02e02825 	move	a1,s7
9d00a2d8:	00e02025 	move	a0,a3
9d00a2dc:	00d13023 	subu	a2,a2,s1
9d00a2e0:	afa20048 	sw	v0,72(sp)
9d00a2e4:	0f405069 	jal	9d0141a4 <__lshrdi3>
9d00a2e8:	afa30040 	sw	v1,64(sp)
9d00a2ec:	8fb90040 	lw	t9,64(sp)
9d00a2f0:	8fa80048 	lw	t0,72(sp)
9d00a2f4:	8faf0050 	lw	t7,80(sp)
9d00a2f8:	8fb80054 	lw	t8,84(sp)
9d00a2fc:	00403825 	move	a3,v0
9d00a300:	0060b825 	move	s7,v1
9d00a304:	8fa2002c 	lw	v0,44(sp)
9d00a308:	8fb1003c 	lw	s1,60(sp)
9d00a30c:	02228826 	xor	s1,s1,v0
9d00a310:	8fa2001c 	lw	v0,28(sp)
9d00a314:	145100b5 	bne	v0,s1,9d00a5ec <fma+0x4ec>
9d00a318:	010f5021 	addu	t2,t0,t7
9d00a31c:	0148902b 	sltu	s2,t2,t0
9d00a320:	0338c021 	addu	t8,t9,t8
9d00a324:	0258a021 	addu	s4,s2,t8
9d00a328:	0299102b 	sltu	v0,s4,t9
9d00a32c:	0140a825 	move	s5,t2
9d00a330:	14400006 	bnez	v0,9d00a34c <fma+0x24c>
9d00a334:	24040001 	li	a0,1
9d00a338:	17340003 	bne	t9,s4,9d00a348 <fma+0x248>
9d00a33c:	0148402b 	sltu	t0,t2,t0
9d00a340:	15000003 	bnez	t0,9d00a350 <fma+0x250>
9d00a344:	00f06021 	addu	t4,a3,s0
9d00a348:	00002025 	move	a0,zero
9d00a34c:	00f06021 	addu	t4,a3,s0
9d00a350:	0187102b 	sltu	v0,t4,a3
9d00a354:	02f61821 	addu	v1,s7,s6
9d00a358:	008c6021 	addu	t4,a0,t4
9d00a35c:	00431021 	addu	v0,v0,v1
9d00a360:	0184202b 	sltu	a0,t4,a0
9d00a364:	00826821 	addu	t5,a0,v0
9d00a368:	01802025 	move	a0,t4
9d00a36c:	01a02825 	move	a1,t5
9d00a370:	afac0048 	sw	t4,72(sp)
9d00a374:	0f404df8 	jal	9d0137e0 <a_clz_64>
9d00a378:	afad0040 	sw	t5,64(sp)
9d00a37c:	2453ffff 	addiu	s3,v0,-1
9d00a380:	24060040 	li	a2,64
9d00a384:	00d33023 	subu	a2,a2,s3
9d00a388:	02a02025 	move	a0,s5
9d00a38c:	0f405069 	jal	9d0141a4 <__lshrdi3>
9d00a390:	02802825 	move	a1,s4
9d00a394:	8fac0048 	lw	t4,72(sp)
9d00a398:	8fad0040 	lw	t5,64(sp)
9d00a39c:	02603025 	move	a2,s3
9d00a3a0:	01802025 	move	a0,t4
9d00a3a4:	01a02825 	move	a1,t5
9d00a3a8:	00408025 	move	s0,v0
9d00a3ac:	0f405078 	jal	9d0141e0 <__ashldi3>
9d00a3b0:	00609025 	move	s2,v1
9d00a3b4:	02603025 	move	a2,s3
9d00a3b8:	02a02025 	move	a0,s5
9d00a3bc:	02802825 	move	a1,s4
9d00a3c0:	02028025 	or	s0,s0,v0
9d00a3c4:	0f405078 	jal	9d0141e0 <__ashldi3>
9d00a3c8:	02439025 	or	s2,s2,v1
9d00a3cc:	00431025 	or	v0,v0,v1
9d00a3d0:	0002102b 	sltu	v0,zero,v0
9d00a3d4:	27de0040 	addiu	s8,s8,64
9d00a3d8:	02028025 	or	s0,s0,v0
9d00a3dc:	02002025 	move	a0,s0
9d00a3e0:	12200005 	beqz	s1,9d00a3f8 <fma+0x2f8>
9d00a3e4:	02402825 	move	a1,s2
9d00a3e8:	00102023 	negu	a0,s0
9d00a3ec:	0004102b 	sltu	v0,zero,a0
9d00a3f0:	00122823 	negu	a1,s2
9d00a3f4:	00a22823 	subu	a1,a1,v0
9d00a3f8:	0f404d34 	jal	9d0134d0 <__floatdidf>
9d00a3fc:	03d3f023 	subu	s8,s8,s3
9d00a400:	0040b025 	move	s6,v0
9d00a404:	2bc2fbc4 	slti	v0,s8,-1084
9d00a408:	104000f8 	beqz	v0,9d00a7ec <fma+0x6ec>
9d00a40c:	0060b825 	move	s7,v1
9d00a410:	2402fbc3 	li	v0,-1085
9d00a414:	17c200fb 	bne	s8,v0,9d00a804 <fma+0x704>
9d00a418:	00102580 	sll	a0,s0,0x16
9d00a41c:	122000b4 	beqz	s1,9d00a6f0 <fma+0x5f0>
9d00a420:	3c029d00 	lui	v0,0x9d00
9d00a424:	8c547718 	lw	s4,30488(v0)
9d00a428:	8c55771c 	lw	s5,30492(v0)
9d00a42c:	02c03025 	move	a2,s6
9d00a430:	02e03825 	move	a3,s7
9d00a434:	02802025 	move	a0,s4
9d00a438:	0f40448e 	jal	9d011238 <__eqdf2>
9d00a43c:	02a02825 	move	a1,s5
9d00a440:	144000af 	bnez	v0,9d00a700 <fma+0x600>
9d00a444:	3c029d00 	lui	v0,0x9d00
9d00a448:	8c467720 	lw	a2,30496(v0)
9d00a44c:	8c477724 	lw	a3,30500(v0)
9d00a450:	02c02025 	move	a0,s6
9d00a454:	0f4038ac 	jal	9d00e2b0 <__muldf3>
9d00a458:	02e02825 	move	a1,s7
9d00a45c:	00602825 	move	a1,v1
9d00a460:	0f4046c2 	jal	9d011b08 <__truncdfsf2>
9d00a464:	00402025 	move	a0,v0
9d00a468:	0f40498c 	jal	9d012630 <__extendsfdf2>
9d00a46c:	00402025 	move	a0,v0
9d00a470:	3c049d00 	lui	a0,0x9d00
9d00a474:	8c867728 	lw	a2,30504(a0)
9d00a478:	8c87772c 	lw	a3,30508(a0)
9d00a47c:	00602825 	move	a1,v1
9d00a480:	0f4038ac 	jal	9d00e2b0 <__muldf3>
9d00a484:	00402025 	move	a0,v0
9d00a488:	1000ff4c 	b	9d00a1bc <fma+0xbc>
9d00a48c:	00409025 	move	s2,v0
9d00a490:	2631ffc0 	addiu	s1,s1,-64
9d00a494:	273effc0 	addiu	s8,t9,-64
9d00a498:	00004025 	move	t0,zero
9d00a49c:	1220ff99 	beqz	s1,9d00a304 <fma+0x204>
9d00a4a0:	0000c825 	move	t9,zero
9d00a4a4:	2a220040 	slti	v0,s1,64
9d00a4a8:	10400043 	beqz	v0,9d00a5b8 <fma+0x4b8>
9d00a4ac:	8fa40040 	lw	a0,64(sp)
9d00a4b0:	240d0040 	li	t5,64
9d00a4b4:	01b16823 	subu	t5,t5,s1
9d00a4b8:	01a03025 	move	a2,t5
9d00a4bc:	03002825 	move	a1,t8
9d00a4c0:	afb90058 	sw	t9,88(sp)
9d00a4c4:	afa80054 	sw	t0,84(sp)
9d00a4c8:	afa70050 	sw	a3,80(sp)
9d00a4cc:	afad004c 	sw	t5,76(sp)
9d00a4d0:	0f405078 	jal	9d0141e0 <__ashldi3>
9d00a4d4:	afb80048 	sw	t8,72(sp)
9d00a4d8:	8fb80048 	lw	t8,72(sp)
9d00a4dc:	8fa40040 	lw	a0,64(sp)
9d00a4e0:	00431025 	or	v0,v0,v1
9d00a4e4:	03002825 	move	a1,t8
9d00a4e8:	02203025 	move	a2,s1
9d00a4ec:	0f405069 	jal	9d0141a4 <__lshrdi3>
9d00a4f0:	0002a82b 	sltu	s5,zero,v0
9d00a4f4:	8fad004c 	lw	t5,76(sp)
9d00a4f8:	02002025 	move	a0,s0
9d00a4fc:	02c02825 	move	a1,s6
9d00a500:	01a03025 	move	a2,t5
9d00a504:	0060a025 	move	s4,v1
9d00a508:	0f405078 	jal	9d0141e0 <__ashldi3>
9d00a50c:	02a2a825 	or	s5,s5,v0
9d00a510:	02a27825 	or	t7,s5,v0
9d00a514:	0283c025 	or	t8,s4,v1
9d00a518:	02002025 	move	a0,s0
9d00a51c:	02c02825 	move	a1,s6
9d00a520:	02203025 	move	a2,s1
9d00a524:	afaf0048 	sw	t7,72(sp)
9d00a528:	0f405069 	jal	9d0141a4 <__lshrdi3>
9d00a52c:	afb80040 	sw	t8,64(sp)
9d00a530:	00408025 	move	s0,v0
9d00a534:	0060b025 	move	s6,v1
9d00a538:	8fb80040 	lw	t8,64(sp)
9d00a53c:	8faf0048 	lw	t7,72(sp)
9d00a540:	8fa70050 	lw	a3,80(sp)
9d00a544:	8fa80054 	lw	t0,84(sp)
9d00a548:	1000ff6e 	b	9d00a304 <fma+0x204>
9d00a54c:	8fb90058 	lw	t9,88(sp)
9d00a550:	03d98823 	subu	s1,s8,t9
9d00a554:	1220001d 	beqz	s1,9d00a5cc <fma+0x4cc>
9d00a558:	2a220040 	slti	v0,s1,64
9d00a55c:	10400020 	beqz	v0,9d00a5e0 <fma+0x4e0>
9d00a560:	24060040 	li	a2,64
9d00a564:	00e02025 	move	a0,a3
9d00a568:	02e02825 	move	a1,s7
9d00a56c:	00d13023 	subu	a2,a2,s1
9d00a570:	afb8004c 	sw	t8,76(sp)
9d00a574:	afaf0048 	sw	t7,72(sp)
9d00a578:	0f405078 	jal	9d0141e0 <__ashldi3>
9d00a57c:	afa70040 	sw	a3,64(sp)
9d00a580:	8fa70040 	lw	a3,64(sp)
9d00a584:	00431025 	or	v0,v0,v1
9d00a588:	02e02825 	move	a1,s7
9d00a58c:	00e02025 	move	a0,a3
9d00a590:	02203025 	move	a2,s1
9d00a594:	0f405069 	jal	9d0141a4 <__lshrdi3>
9d00a598:	0002a02b 	sltu	s4,zero,v0
9d00a59c:	02824025 	or	t0,s4,v0
9d00a5a0:	0060c825 	move	t9,v1
9d00a5a4:	00003825 	move	a3,zero
9d00a5a8:	0000b825 	move	s7,zero
9d00a5ac:	8faf0048 	lw	t7,72(sp)
9d00a5b0:	1000ff54 	b	9d00a304 <fma+0x204>
9d00a5b4:	8fb8004c 	lw	t8,76(sp)
9d00a5b8:	240f0001 	li	t7,1
9d00a5bc:	0000c025 	move	t8,zero
9d00a5c0:	00008025 	move	s0,zero
9d00a5c4:	1000ff4f 	b	9d00a304 <fma+0x204>
9d00a5c8:	0000b025 	move	s6,zero
9d00a5cc:	00e04025 	move	t0,a3
9d00a5d0:	02e0c825 	move	t9,s7
9d00a5d4:	00003825 	move	a3,zero
9d00a5d8:	1000ff4a 	b	9d00a304 <fma+0x204>
9d00a5dc:	0000b825 	move	s7,zero
9d00a5e0:	24080001 	li	t0,1
9d00a5e4:	1000fffb 	b	9d00a5d4 <fma+0x4d4>
9d00a5e8:	0000c825 	move	t9,zero
9d00a5ec:	01e85023 	subu	t2,t7,t0
9d00a5f0:	01ea182b 	sltu	v1,t7,t2
9d00a5f4:	03194823 	subu	t1,t8,t9
9d00a5f8:	0123a023 	subu	s4,t1,v1
9d00a5fc:	0314102b 	sltu	v0,t8,s4
9d00a600:	0140a825 	move	s5,t2
9d00a604:	241f0001 	li	ra,1
9d00a608:	14400006 	bnez	v0,9d00a624 <fma+0x524>
9d00a60c:	00002025 	move	a0,zero
9d00a610:	56980004 	bnel	s4,t8,9d00a624 <fma+0x524>
9d00a614:	0000f825 	move	ra,zero
9d00a618:	14600003 	bnez	v1,9d00a628 <fma+0x528>
9d00a61c:	02071823 	subu	v1,s0,a3
9d00a620:	0000f825 	move	ra,zero
9d00a624:	02071823 	subu	v1,s0,a3
9d00a628:	0203682b 	sltu	t5,s0,v1
9d00a62c:	02d71023 	subu	v0,s6,s7
9d00a630:	004d1023 	subu	v0,v0,t5
9d00a634:	007f6023 	subu	t4,v1,ra
9d00a638:	006c182b 	sltu	v1,v1,t4
9d00a63c:	00441023 	subu	v0,v0,a0
9d00a640:	00436823 	subu	t5,v0,v1
9d00a644:	05a10013 	bgez	t5,9d00a694 <fma+0x594>
9d00a648:	010f5023 	subu	t2,t0,t7
9d00a64c:	010a402b 	sltu	t0,t0,t2
9d00a650:	03384823 	subu	t1,t9,t8
9d00a654:	00f03023 	subu	a2,a3,s0
9d00a658:	0128a023 	subu	s4,t1,t0
9d00a65c:	00e6102b 	sltu	v0,a3,a2
9d00a660:	02f61823 	subu	v1,s7,s6
9d00a664:	01546025 	or	t4,t2,s4
9d00a668:	00dff821 	addu	ra,a2,ra
9d00a66c:	00621823 	subu	v1,v1,v0
9d00a670:	000c602b 	sltu	t4,zero,t4
9d00a674:	03e6302b 	sltu	a2,ra,a2
9d00a678:	00641021 	addu	v0,v1,a0
9d00a67c:	03ec6023 	subu	t4,ra,t4
9d00a680:	00c21021 	addu	v0,a2,v0
9d00a684:	03ecf82b 	sltu	ra,ra,t4
9d00a688:	0140a825 	move	s5,t2
9d00a68c:	005f6823 	subu	t5,v0,ra
9d00a690:	2e310001 	sltiu	s1,s1,1
9d00a694:	018d1025 	or	v0,t4,t5
9d00a698:	1440ff33 	bnez	v0,9d00a368 <fma+0x268>
9d00a69c:	02b41025 	or	v0,s5,s4
9d00a6a0:	1040febb 	beqz	v0,9d00a190 <fma+0x90>
9d00a6a4:	02a02025 	move	a0,s5
9d00a6a8:	0f404df8 	jal	9d0137e0 <a_clz_64>
9d00a6ac:	02802825 	move	a1,s4
9d00a6b0:	2453ffff 	addiu	s3,v0,-1
9d00a6b4:	06610007 	bgez	s3,9d00a6d4 <fma+0x5d4>
9d00a6b8:	001417c0 	sll	v0,s4,0x1f
9d00a6bc:	00158042 	srl	s0,s5,0x1
9d00a6c0:	00508025 	or	s0,v0,s0
9d00a6c4:	32aa0001 	andi	t2,s5,0x1
9d00a6c8:	020a8025 	or	s0,s0,t2
9d00a6cc:	1000ff43 	b	9d00a3dc <fma+0x2dc>
9d00a6d0:	00149042 	srl	s2,s4,0x1
9d00a6d4:	02603025 	move	a2,s3
9d00a6d8:	02a02025 	move	a0,s5
9d00a6dc:	0f405078 	jal	9d0141e0 <__ashldi3>
9d00a6e0:	02802825 	move	a1,s4
9d00a6e4:	00408025 	move	s0,v0
9d00a6e8:	1000ff3c 	b	9d00a3dc <fma+0x2dc>
9d00a6ec:	00609025 	move	s2,v1
9d00a6f0:	3c029d00 	lui	v0,0x9d00
9d00a6f4:	8c547710 	lw	s4,30480(v0)
9d00a6f8:	1000ff4c 	b	9d00a42c <fma+0x32c>
9d00a6fc:	8c557714 	lw	s5,30484(v0)
9d00a700:	00101540 	sll	v0,s0,0x15
9d00a704:	10400039 	beqz	v0,9d00a7ec <fma+0x6ec>
9d00a708:	001217c0 	sll	v0,s2,0x1f
9d00a70c:	00102042 	srl	a0,s0,0x1
9d00a710:	00442025 	or	a0,v0,a0
9d00a714:	00122842 	srl	a1,s2,0x1
9d00a718:	32100001 	andi	s0,s0,0x1
9d00a71c:	3c024000 	lui	v0,0x4000
9d00a720:	00902025 	or	a0,a0,s0
9d00a724:	12200005 	beqz	s1,9d00a73c <fma+0x63c>
9d00a728:	00452825 	or	a1,v0,a1
9d00a72c:	00042023 	negu	a0,a0
9d00a730:	0004102b 	sltu	v0,zero,a0
9d00a734:	00052823 	negu	a1,a1
9d00a738:	00a22823 	subu	a1,a1,v0
9d00a73c:	0f404d34 	jal	9d0134d0 <__floatdidf>
9d00a740:	00000000 	nop
9d00a744:	00403025 	move	a2,v0
9d00a748:	00603825 	move	a3,v1
9d00a74c:	00402025 	move	a0,v0
9d00a750:	0f4034c7 	jal	9d00d31c <__adddf3>
9d00a754:	00602825 	move	a1,v1
9d00a758:	00402025 	move	a0,v0
9d00a75c:	02803025 	move	a2,s4
9d00a760:	02a03825 	move	a3,s5
9d00a764:	0f4034c5 	jal	9d00d314 <__subdf3>
9d00a768:	00602825 	move	a1,v1
9d00a76c:	00408025 	move	s0,v0
9d00a770:	3c029d00 	lui	v0,0x9d00
9d00a774:	8c467728 	lw	a2,30504(v0)
9d00a778:	8c47772c 	lw	a3,30508(v0)
9d00a77c:	02002025 	move	a0,s0
9d00a780:	00602825 	move	a1,v1
9d00a784:	0f4038ac 	jal	9d00e2b0 <__muldf3>
9d00a788:	00608825 	move	s1,v1
9d00a78c:	00403025 	move	a2,v0
9d00a790:	00603825 	move	a3,v1
9d00a794:	00402025 	move	a0,v0
9d00a798:	0f4038ac 	jal	9d00e2b0 <__muldf3>
9d00a79c:	00602825 	move	a1,v1
9d00a7a0:	02003025 	move	a2,s0
9d00a7a4:	02203825 	move	a3,s1
9d00a7a8:	02002025 	move	a0,s0
9d00a7ac:	02202825 	move	a1,s1
9d00a7b0:	00409025 	move	s2,v0
9d00a7b4:	0f4034c5 	jal	9d00d314 <__subdf3>
9d00a7b8:	00609825 	move	s3,v1
9d00a7bc:	00403025 	move	a2,v0
9d00a7c0:	00603825 	move	a3,v1
9d00a7c4:	02402025 	move	a0,s2
9d00a7c8:	0f4038ac 	jal	9d00e2b0 <__muldf3>
9d00a7cc:	02602825 	move	a1,s3
9d00a7d0:	00402025 	move	a0,v0
9d00a7d4:	02003025 	move	a2,s0
9d00a7d8:	02203825 	move	a3,s1
9d00a7dc:	0f4034c7 	jal	9d00d31c <__adddf3>
9d00a7e0:	00602825 	move	a1,v1
9d00a7e4:	0040b025 	move	s6,v0
9d00a7e8:	0060b825 	move	s7,v1
9d00a7ec:	03c03025 	move	a2,s8
9d00a7f0:	02c02025 	move	a0,s6
9d00a7f4:	0f40473f 	jal	9d011cfc <scalbn>
9d00a7f8:	02e02825 	move	a1,s7
9d00a7fc:	1000fe6f 	b	9d00a1bc <fma+0xbc>
9d00a800:	00409025 	move	s2,v0
9d00a804:	00121580 	sll	v0,s2,0x16
9d00a808:	00108282 	srl	s0,s0,0xa
9d00a80c:	00508025 	or	s0,v0,s0
9d00a810:	0004202b 	sltu	a0,zero,a0
9d00a814:	00902025 	or	a0,a0,s0
9d00a818:	02402825 	move	a1,s2
9d00a81c:	00041582 	srl	v0,a0,0x16
9d00a820:	7c054804 	ins	a1,zero,0x0,0xa
9d00a824:	00452825 	or	a1,v0,a1
9d00a828:	12200005 	beqz	s1,9d00a840 <fma+0x740>
9d00a82c:	00042280 	sll	a0,a0,0xa
9d00a830:	00042023 	negu	a0,a0
9d00a834:	0004102b 	sltu	v0,zero,a0
9d00a838:	00052823 	negu	a1,a1
9d00a83c:	00a22823 	subu	a1,a1,v0
9d00a840:	0f404d34 	jal	9d0134d0 <__floatdidf>
9d00a844:	00000000 	nop
9d00a848:	1000ffe7 	b	9d00a7e8 <fma+0x6e8>
9d00a84c:	0040b025 	move	s6,v0

Disassembly of section .text.__intscan:

9d00a850 <__intscan>:
9d00a850:	27bdffb8 	addiu	sp,sp,-72
9d00a854:	8fa2005c 	lw	v0,92(sp)
9d00a858:	afb20028 	sw	s2,40(sp)
9d00a85c:	afbf0044 	sw	ra,68(sp)
9d00a860:	afa20010 	sw	v0,16(sp)
9d00a864:	2ca20025 	sltiu	v0,a1,37
9d00a868:	afbe0040 	sw	s8,64(sp)
9d00a86c:	afb7003c 	sw	s7,60(sp)
9d00a870:	afb60038 	sw	s6,56(sp)
9d00a874:	afb50034 	sw	s5,52(sp)
9d00a878:	afb40030 	sw	s4,48(sp)
9d00a87c:	afb3002c 	sw	s3,44(sp)
9d00a880:	afb10024 	sw	s1,36(sp)
9d00a884:	afb00020 	sw	s0,32(sp)
9d00a888:	10400033 	beqz	v0,9d00a958 <__intscan+0x108>
9d00a88c:	8fb20058 	lw	s2,88(sp)
9d00a890:	24020001 	li	v0,1
9d00a894:	10a20030 	beq	a1,v0,9d00a958 <__intscan+0x108>
9d00a898:	00808025 	move	s0,a0
9d00a89c:	00a08825 	move	s1,a1
9d00a8a0:	00c09825 	move	s3,a2
9d00a8a4:	24140020 	li	s4,32
9d00a8a8:	8e02003c 	lw	v0,60(s0)
9d00a8ac:	8e03004c 	lw	v1,76(s0)
9d00a8b0:	0043182b 	sltu	v1,v0,v1
9d00a8b4:	1060002c 	beqz	v1,9d00a968 <__intscan+0x118>
9d00a8b8:	24430001 	addiu	v1,v0,1
9d00a8bc:	ae03003c 	sw	v1,60(s0)
9d00a8c0:	90490000 	lbu	t1,0(v0)
9d00a8c4:	1134fff8 	beq	t1,s4,9d00a8a8 <__intscan+0x58>
9d00a8c8:	2522fff7 	addiu	v0,t1,-9
9d00a8cc:	2c420005 	sltiu	v0,v0,5
9d00a8d0:	1440fff5 	bnez	v0,9d00a8a8 <__intscan+0x58>
9d00a8d4:	2522ffd5 	addiu	v0,t1,-43
9d00a8d8:	7c020844 	ins	v0,zero,0x1,0x1
9d00a8dc:	1440000b 	bnez	v0,9d00a90c <__intscan+0xbc>
9d00a8e0:	0000a025 	move	s4,zero
9d00a8e4:	8e02003c 	lw	v0,60(s0)
9d00a8e8:	8e03004c 	lw	v1,76(s0)
9d00a8ec:	3934002d 	xori	s4,t1,0x2d
9d00a8f0:	2e940001 	sltiu	s4,s4,1
9d00a8f4:	0043182b 	sltu	v1,v0,v1
9d00a8f8:	1060001f 	beqz	v1,9d00a978 <__intscan+0x128>
9d00a8fc:	0014a023 	negu	s4,s4
9d00a900:	24430001 	addiu	v1,v0,1
9d00a904:	ae03003c 	sw	v1,60(s0)
9d00a908:	90490000 	lbu	t1,0(v0)
9d00a90c:	1220001e 	beqz	s1,9d00a988 <__intscan+0x138>
9d00a910:	8e03004c 	lw	v1,76(s0)
9d00a914:	24020010 	li	v0,16
9d00a918:	1222018e 	beq	s1,v0,9d00af54 <__intscan+0x704>
9d00a91c:	24020030 	li	v0,48
9d00a920:	3c029d01 	lui	v0,0x9d01
9d00a924:	244217fd 	addiu	v0,v0,6141
9d00a928:	01221021 	addu	v0,t1,v0
9d00a92c:	90420000 	lbu	v0,0(v0)
9d00a930:	0051102b 	sltu	v0,v0,s1
9d00a934:	14400057 	bnez	v0,9d00aa94 <__intscan+0x244>
9d00a938:	2402000a 	li	v0,10
9d00a93c:	10600004 	beqz	v1,9d00a950 <__intscan+0x100>
9d00a940:	00002825 	move	a1,zero
9d00a944:	8e02003c 	lw	v0,60(s0)
9d00a948:	2442ffff 	addiu	v0,v0,-1
9d00a94c:	ae02003c 	sw	v0,60(s0)
9d00a950:	0f405116 	jal	9d014458 <__shlim>
9d00a954:	02002025 	move	a0,s0
9d00a958:	3c02a000 	lui	v0,0xa000
9d00a95c:	24030016 	li	v1,22
9d00a960:	1000002b 	b	9d00aa10 <__intscan+0x1c0>
9d00a964:	ac43107c 	sw	v1,4220(v0)
9d00a968:	0f4048dc 	jal	9d012370 <__shgetc>
9d00a96c:	02002025 	move	a0,s0
9d00a970:	1000ffd4 	b	9d00a8c4 <__intscan+0x74>
9d00a974:	00404825 	move	t1,v0
9d00a978:	0f4048dc 	jal	9d012370 <__shgetc>
9d00a97c:	02002025 	move	a0,s0
9d00a980:	1000ffe2 	b	9d00a90c <__intscan+0xbc>
9d00a984:	00404825 	move	t1,v0
9d00a988:	24020030 	li	v0,48
9d00a98c:	5522ffe4 	bnel	t1,v0,9d00a920 <__intscan+0xd0>
9d00a990:	2411000a 	li	s1,10
9d00a994:	8e02003c 	lw	v0,60(s0)
9d00a998:	0043182b 	sltu	v1,v0,v1
9d00a99c:	1060002c 	beqz	v1,9d00aa50 <__intscan+0x200>
9d00a9a0:	24430001 	addiu	v1,v0,1
9d00a9a4:	ae03003c 	sw	v1,60(s0)
9d00a9a8:	90490000 	lbu	t1,0(v0)
9d00a9ac:	35220020 	ori	v0,t1,0x20
9d00a9b0:	24030078 	li	v1,120
9d00a9b4:	14430035 	bne	v0,v1,9d00aa8c <__intscan+0x23c>
9d00a9b8:	00000000 	nop
9d00a9bc:	8e02003c 	lw	v0,60(s0)
9d00a9c0:	8e03004c 	lw	v1,76(s0)
9d00a9c4:	0043182b 	sltu	v1,v0,v1
9d00a9c8:	10600025 	beqz	v1,9d00aa60 <__intscan+0x210>
9d00a9cc:	24430001 	addiu	v1,v0,1
9d00a9d0:	ae03003c 	sw	v1,60(s0)
9d00a9d4:	90490000 	lbu	t1,0(v0)
9d00a9d8:	3c029d01 	lui	v0,0x9d01
9d00a9dc:	244217fd 	addiu	v0,v0,6141
9d00a9e0:	01221021 	addu	v0,t1,v0
9d00a9e4:	90420000 	lbu	v0,0(v0)
9d00a9e8:	2c420010 	sltiu	v0,v0,16
9d00a9ec:	5440002b 	bnezl	v0,9d00aa9c <__intscan+0x24c>
9d00a9f0:	24110010 	li	s1,16
9d00a9f4:	8e02004c 	lw	v0,76(s0)
9d00a9f8:	10400152 	beqz	v0,9d00af44 <__intscan+0x6f4>
9d00a9fc:	00003825 	move	a3,zero
9d00aa00:	1260001b 	beqz	s3,9d00aa70 <__intscan+0x220>
9d00aa04:	8e02003c 	lw	v0,60(s0)
9d00aa08:	2442fffe 	addiu	v0,v0,-2
9d00aa0c:	ae02003c 	sw	v0,60(s0)
9d00aa10:	00003825 	move	a3,zero
9d00aa14:	00004025 	move	t0,zero
9d00aa18:	8fbf0044 	lw	ra,68(sp)
9d00aa1c:	00e01025 	move	v0,a3
9d00aa20:	01001825 	move	v1,t0
9d00aa24:	8fbe0040 	lw	s8,64(sp)
9d00aa28:	8fb7003c 	lw	s7,60(sp)
9d00aa2c:	8fb60038 	lw	s6,56(sp)
9d00aa30:	8fb50034 	lw	s5,52(sp)
9d00aa34:	8fb40030 	lw	s4,48(sp)
9d00aa38:	8fb3002c 	lw	s3,44(sp)
9d00aa3c:	8fb20028 	lw	s2,40(sp)
9d00aa40:	8fb10024 	lw	s1,36(sp)
9d00aa44:	8fb00020 	lw	s0,32(sp)
9d00aa48:	03e00008 	jr	ra
9d00aa4c:	27bd0048 	addiu	sp,sp,72
9d00aa50:	0f4048dc 	jal	9d012370 <__shgetc>
9d00aa54:	02002025 	move	a0,s0
9d00aa58:	1000ffd4 	b	9d00a9ac <__intscan+0x15c>
9d00aa5c:	00404825 	move	t1,v0
9d00aa60:	0f4048dc 	jal	9d012370 <__shgetc>
9d00aa64:	02002025 	move	a0,s0
9d00aa68:	1000ffdb 	b	9d00a9d8 <__intscan+0x188>
9d00aa6c:	00404825 	move	t1,v0
9d00aa70:	2442ffff 	addiu	v0,v0,-1
9d00aa74:	ae02003c 	sw	v0,60(s0)
9d00aa78:	00002825 	move	a1,zero
9d00aa7c:	0f405116 	jal	9d014458 <__shlim>
9d00aa80:	02002025 	move	a0,s0
9d00aa84:	1000ffe3 	b	9d00aa14 <__intscan+0x1c4>
9d00aa88:	00003825 	move	a3,zero
9d00aa8c:	12200087 	beqz	s1,9d00acac <__intscan+0x45c>
9d00aa90:	2402000a 	li	v0,10
9d00aa94:	1222007b 	beq	s1,v0,9d00ac84 <__intscan+0x434>
9d00aa98:	3c151999 	lui	s5,0x1999
9d00aa9c:	2627ffff 	addiu	a3,s1,-1
9d00aaa0:	3c139d01 	lui	s3,0x9d01
9d00aaa4:	00f1a824 	and	s5,a3,s1
9d00aaa8:	16a000f9 	bnez	s5,9d00ae90 <__intscan+0x640>
9d00aaac:	267317fd 	addiu	s3,s3,6141
9d00aab0:	24020017 	li	v0,23
9d00aab4:	72221002 	mul	v0,s1,v0
9d00aab8:	3c039d01 	lui	v1,0x9d01
9d00aabc:	246317f0 	addiu	v1,v1,6128
9d00aac0:	3c1e0800 	lui	s8,0x800
9d00aac4:	7c421140 	ext	v0,v0,0x5,0x3
9d00aac8:	00431021 	addu	v0,v0,v1
9d00aacc:	80560000 	lb	s6,0(v0)
9d00aad0:	02691021 	addu	v0,s3,t1
9d00aad4:	90570000 	lbu	s7,0(v0)
9d00aad8:	02f1102b 	sltu	v0,s7,s1
9d00aadc:	10400003 	beqz	v0,9d00aaec <__intscan+0x29c>
9d00aae0:	02be102b 	sltu	v0,s5,s8
9d00aae4:	54400073 	bnezl	v0,9d00acb4 <__intscan+0x464>
9d00aae8:	8e02003c 	lw	v0,60(s0)
9d00aaec:	00004025 	move	t0,zero
9d00aaf0:	02c03025 	move	a2,s6
9d00aaf4:	2404ffff 	li	a0,-1
9d00aaf8:	2405ffff 	li	a1,-1
9d00aafc:	afa9001c 	sw	t1,28(sp)
9d00ab00:	afb50018 	sw	s5,24(sp)
9d00ab04:	0f405069 	jal	9d0141a4 <__lshrdi3>
9d00ab08:	afa80014 	sw	t0,20(sp)
9d00ab0c:	8fa80014 	lw	t0,20(sp)
9d00ab10:	8fa70018 	lw	a3,24(sp)
9d00ab14:	8fa9001c 	lw	t1,28(sp)
9d00ab18:	0040b825 	move	s7,v0
9d00ab1c:	0060a825 	move	s5,v1
9d00ab20:	02691021 	addu	v0,s3,t1
9d00ab24:	905e0000 	lbu	s8,0(v0)
9d00ab28:	03d1102b 	sltu	v0,s8,s1
9d00ab2c:	104000a0 	beqz	v0,9d00adb0 <__intscan+0x560>
9d00ab30:	02a8102b 	sltu	v0,s5,t0
9d00ab34:	5440009f 	bnezl	v0,9d00adb4 <__intscan+0x564>
9d00ab38:	3c139d01 	lui	s3,0x9d01
9d00ab3c:	15150003 	bne	t0,s5,9d00ab4c <__intscan+0x2fc>
9d00ab40:	02e7102b 	sltu	v0,s7,a3
9d00ab44:	5440009b 	bnezl	v0,9d00adb4 <__intscan+0x564>
9d00ab48:	3c139d01 	lui	s3,0x9d01
9d00ab4c:	8e02003c 	lw	v0,60(s0)
9d00ab50:	8e03004c 	lw	v1,76(s0)
9d00ab54:	0043182b 	sltu	v1,v0,v1
9d00ab58:	10600063 	beqz	v1,9d00ace8 <__intscan+0x498>
9d00ab5c:	24430001 	addiu	v1,v0,1
9d00ab60:	ae03003c 	sw	v1,60(s0)
9d00ab64:	90490000 	lbu	t1,0(v0)
9d00ab68:	00e02025 	move	a0,a3
9d00ab6c:	01002825 	move	a1,t0
9d00ab70:	02c03025 	move	a2,s6
9d00ab74:	0f405078 	jal	9d0141e0 <__ashldi3>
9d00ab78:	afa90014 	sw	t1,20(sp)
9d00ab7c:	03c23825 	or	a3,s8,v0
9d00ab80:	00604025 	move	t0,v1
9d00ab84:	1000ffe6 	b	9d00ab20 <__intscan+0x2d0>
9d00ab88:	8fa90014 	lw	t1,20(sp)
9d00ab8c:	8e03004c 	lw	v1,76(s0)
9d00ab90:	0043182b 	sltu	v1,v0,v1
9d00ab94:	10600036 	beqz	v1,9d00ac70 <__intscan+0x420>
9d00ab98:	24430001 	addiu	v1,v0,1
9d00ab9c:	ae03003c 	sw	v1,60(s0)
9d00aba0:	90420000 	lbu	v0,0(v0)
9d00aba4:	72761802 	mul	v1,s3,s6
9d00aba8:	00693821 	addu	a3,v1,t1
9d00abac:	24f3ffd0 	addiu	s3,a3,-48
9d00abb0:	00404825 	move	t1,v0
9d00abb4:	2522ffd0 	addiu	v0,t1,-48
9d00abb8:	2c42000a 	sltiu	v0,v0,10
9d00abbc:	10400003 	beqz	v0,9d00abcc <__intscan+0x37c>
9d00abc0:	0275102b 	sltu	v0,s3,s5
9d00abc4:	5440fff1 	bnezl	v0,9d00ab8c <__intscan+0x33c>
9d00abc8:	8e02003c 	lw	v0,60(s0)
9d00abcc:	3c151999 	lui	s5,0x1999
9d00abd0:	36b5999a 	ori	s5,s5,0x999a
9d00abd4:	3c1e9999 	lui	s8,0x9999
9d00abd8:	02603825 	move	a3,s3
9d00abdc:	00004025 	move	t0,zero
9d00abe0:	26a5ffff 	addiu	a1,s5,-1
9d00abe4:	37de999a 	ori	s8,s8,0x999a
9d00abe8:	2533ffd0 	addiu	s3,t1,-48
9d00abec:	2e62000a 	sltiu	v0,s3,10
9d00abf0:	10400088 	beqz	v0,9d00ae14 <__intscan+0x5c4>
9d00abf4:	0115102b 	sltu	v0,t0,s5
9d00abf8:	5040006e 	beqzl	v0,9d00adb4 <__intscan+0x564>
9d00abfc:	3c139d01 	lui	s3,0x9d01
9d00ac00:	15050004 	bne	t0,a1,9d00ac14 <__intscan+0x3c4>
9d00ac04:	2402000a 	li	v0,10
9d00ac08:	00fe102b 	sltu	v0,a3,s8
9d00ac0c:	10400068 	beqz	v0,9d00adb0 <__intscan+0x560>
9d00ac10:	2402000a 	li	v0,10
9d00ac14:	00470019 	multu	v0,a3
9d00ac18:	0000b810 	mfhi	s7
9d00ac1c:	0000b012 	mflo	s6
9d00ac20:	70481802 	mul	v1,v0,t0
9d00ac24:	0077b821 	addu	s7,v1,s7
9d00ac28:	2403ffff 	li	v1,-1
9d00ac2c:	16e30004 	bne	s7,v1,9d00ac40 <__intscan+0x3f0>
9d00ac30:	00131027 	nor	v0,zero,s3
9d00ac34:	0056102b 	sltu	v0,v0,s6
9d00ac38:	5440005e 	bnezl	v0,9d00adb4 <__intscan+0x564>
9d00ac3c:	3c139d01 	lui	s3,0x9d01
9d00ac40:	8e02003c 	lw	v0,60(s0)
9d00ac44:	8e03004c 	lw	v1,76(s0)
9d00ac48:	0043182b 	sltu	v1,v0,v1
9d00ac4c:	10600011 	beqz	v1,9d00ac94 <__intscan+0x444>
9d00ac50:	00000000 	nop
9d00ac54:	24430001 	addiu	v1,v0,1
9d00ac58:	ae03003c 	sw	v1,60(s0)
9d00ac5c:	90490000 	lbu	t1,0(v0)
9d00ac60:	02763821 	addu	a3,s3,s6
9d00ac64:	00f6402b 	sltu	t0,a3,s6
9d00ac68:	1000ffdf 	b	9d00abe8 <__intscan+0x398>
9d00ac6c:	01174021 	addu	t0,t0,s7
9d00ac70:	02002025 	move	a0,s0
9d00ac74:	0f4048dc 	jal	9d012370 <__shgetc>
9d00ac78:	afa90014 	sw	t1,20(sp)
9d00ac7c:	1000ffc9 	b	9d00aba4 <__intscan+0x354>
9d00ac80:	8fa90014 	lw	t1,20(sp)
9d00ac84:	00009825 	move	s3,zero
9d00ac88:	36b59999 	ori	s5,s5,0x9999
9d00ac8c:	1000ffc9 	b	9d00abb4 <__intscan+0x364>
9d00ac90:	2416000a 	li	s6,10
9d00ac94:	0f4048dc 	jal	9d012370 <__shgetc>
9d00ac98:	02002025 	move	a0,s0
9d00ac9c:	00404825 	move	t1,v0
9d00aca0:	3c021999 	lui	v0,0x1999
9d00aca4:	1000ffee 	b	9d00ac60 <__intscan+0x410>
9d00aca8:	34459999 	ori	a1,v0,0x9999
9d00acac:	1000ff7b 	b	9d00aa9c <__intscan+0x24c>
9d00acb0:	24110008 	li	s1,8
9d00acb4:	8e03004c 	lw	v1,76(s0)
9d00acb8:	0043182b 	sltu	v1,v0,v1
9d00acbc:	10600006 	beqz	v1,9d00acd8 <__intscan+0x488>
9d00acc0:	24430001 	addiu	v1,v0,1
9d00acc4:	ae03003c 	sw	v1,60(s0)
9d00acc8:	90490000 	lbu	t1,0(v0)
9d00accc:	02d53804 	sllv	a3,s5,s6
9d00acd0:	1000ff7f 	b	9d00aad0 <__intscan+0x280>
9d00acd4:	00f7a825 	or	s5,a3,s7
9d00acd8:	0f4048dc 	jal	9d012370 <__shgetc>
9d00acdc:	02002025 	move	a0,s0
9d00ace0:	1000fffa 	b	9d00accc <__intscan+0x47c>
9d00ace4:	00404825 	move	t1,v0
9d00ace8:	02002025 	move	a0,s0
9d00acec:	afa80018 	sw	t0,24(sp)
9d00acf0:	0f4048dc 	jal	9d012370 <__shgetc>
9d00acf4:	afa70014 	sw	a3,20(sp)
9d00acf8:	00404825 	move	t1,v0
9d00acfc:	8fa80018 	lw	t0,24(sp)
9d00ad00:	1000ff99 	b	9d00ab68 <__intscan+0x318>
9d00ad04:	8fa70014 	lw	a3,20(sp)
9d00ad08:	8e03004c 	lw	v1,76(s0)
9d00ad0c:	0043182b 	sltu	v1,v0,v1
9d00ad10:	1060005b 	beqz	v1,9d00ae80 <__intscan+0x630>
9d00ad14:	24430001 	addiu	v1,v0,1
9d00ad18:	ae03003c 	sw	v1,60(s0)
9d00ad1c:	90490000 	lbu	t1,0(v0)
9d00ad20:	72351002 	mul	v0,s1,s5
9d00ad24:	0057a821 	addu	s5,v0,s7
9d00ad28:	02691021 	addu	v0,s3,t1
9d00ad2c:	90570000 	lbu	s7,0(v0)
9d00ad30:	02f1102b 	sltu	v0,s7,s1
9d00ad34:	10400003 	beqz	v0,9d00ad44 <__intscan+0x4f4>
9d00ad38:	02b6102b 	sltu	v0,s5,s6
9d00ad3c:	5440fff2 	bnezl	v0,9d00ad08 <__intscan+0x4b8>
9d00ad40:	8e02003c 	lw	v0,60(s0)
9d00ad44:	02a03825 	move	a3,s5
9d00ad48:	00004025 	move	t0,zero
9d00ad4c:	241effff 	li	s8,-1
9d00ad50:	02691021 	addu	v0,s3,t1
9d00ad54:	90550000 	lbu	s5,0(v0)
9d00ad58:	02b1102b 	sltu	v0,s5,s1
9d00ad5c:	10400014 	beqz	v0,9d00adb0 <__intscan+0x560>
9d00ad60:	00f10019 	multu	a3,s1
9d00ad64:	00002012 	mflo	a0
9d00ad68:	11000009 	beqz	t0,9d00ad90 <__intscan+0x540>
9d00ad6c:	00002810 	mfhi	a1
9d00ad70:	02280019 	multu	s1,t0
9d00ad74:	00006012 	mflo	t4
9d00ad78:	00ac1021 	addu	v0,a1,t4
9d00ad7c:	004c102b 	sltu	v0,v0,t4
9d00ad80:	00006810 	mfhi	t5
9d00ad84:	004d1021 	addu	v0,v0,t5
9d00ad88:	5440000a 	bnezl	v0,9d00adb4 <__intscan+0x564>
9d00ad8c:	3c139d01 	lui	s3,0x9d01
9d00ad90:	71111002 	mul	v0,t0,s1
9d00ad94:	0080b025 	move	s6,a0
9d00ad98:	0045b821 	addu	s7,v0,a1
9d00ad9c:	16fe0040 	bne	s7,s8,9d00aea0 <__intscan+0x650>
9d00ada0:	00151027 	nor	v0,zero,s5
9d00ada4:	0044102b 	sltu	v0,v0,a0
9d00ada8:	5040003e 	beqzl	v0,9d00aea4 <__intscan+0x654>
9d00adac:	8e02003c 	lw	v0,60(s0)
9d00adb0:	3c139d01 	lui	s3,0x9d01
9d00adb4:	267317fd 	addiu	s3,s3,6141
9d00adb8:	01334821 	addu	t1,t1,s3
9d00adbc:	91220000 	lbu	v0,0(t1)
9d00adc0:	0051102b 	sltu	v0,v0,s1
9d00adc4:	50400014 	beqzl	v0,9d00ae18 <__intscan+0x5c8>
9d00adc8:	8e02004c 	lw	v0,76(s0)
9d00adcc:	8e02003c 	lw	v0,60(s0)
9d00add0:	8e03004c 	lw	v1,76(s0)
9d00add4:	0043182b 	sltu	v1,v0,v1
9d00add8:	10600040 	beqz	v1,9d00aedc <__intscan+0x68c>
9d00addc:	24430001 	addiu	v1,v0,1
9d00ade0:	ae03003c 	sw	v1,60(s0)
9d00ade4:	90420000 	lbu	v0,0(v0)
9d00ade8:	02621021 	addu	v0,s3,v0
9d00adec:	90420000 	lbu	v0,0(v0)
9d00adf0:	0051102b 	sltu	v0,v0,s1
9d00adf4:	1440fff5 	bnez	v0,9d00adcc <__intscan+0x57c>
9d00adf8:	3c02a000 	lui	v0,0xa000
9d00adfc:	24030022 	li	v1,34
9d00ae00:	8fa80010 	lw	t0,16(sp)
9d00ae04:	ac43107c 	sw	v1,4220(v0)
9d00ae08:	32420001 	andi	v0,s2,0x1
9d00ae0c:	02403825 	move	a3,s2
9d00ae10:	0002a00b 	movn	s4,zero,v0
9d00ae14:	8e02004c 	lw	v0,76(s0)
9d00ae18:	10400005 	beqz	v0,9d00ae30 <__intscan+0x5e0>
9d00ae1c:	8fa20010 	lw	v0,16(sp)
9d00ae20:	8e02003c 	lw	v0,60(s0)
9d00ae24:	2442ffff 	addiu	v0,v0,-1
9d00ae28:	ae02003c 	sw	v0,60(s0)
9d00ae2c:	8fa20010 	lw	v0,16(sp)
9d00ae30:	0102102b 	sltu	v0,t0,v0
9d00ae34:	1440003b 	bnez	v0,9d00af24 <__intscan+0x6d4>
9d00ae38:	8fa20010 	lw	v0,16(sp)
9d00ae3c:	14480003 	bne	v0,t0,9d00ae4c <__intscan+0x5fc>
9d00ae40:	00f2102b 	sltu	v0,a3,s2
9d00ae44:	14400038 	bnez	v0,9d00af28 <__intscan+0x6d8>
9d00ae48:	2402ffff 	li	v0,-1
9d00ae4c:	32420001 	andi	v0,s2,0x1
9d00ae50:	14400027 	bnez	v0,9d00aef0 <__intscan+0x6a0>
9d00ae54:	8fa20010 	lw	v0,16(sp)
9d00ae58:	16800024 	bnez	s4,9d00aeec <__intscan+0x69c>
9d00ae5c:	3c02a000 	lui	v0,0xa000
9d00ae60:	24030022 	li	v1,34
9d00ae64:	ac43107c 	sw	v1,4220(v0)
9d00ae68:	8fa20010 	lw	v0,16(sp)
9d00ae6c:	2647ffff 	addiu	a3,s2,-1
9d00ae70:	00f2902b 	sltu	s2,a3,s2
9d00ae74:	2451ffff 	addiu	s1,v0,-1
9d00ae78:	1000fee7 	b	9d00aa18 <__intscan+0x1c8>
9d00ae7c:	02514021 	addu	t0,s2,s1
9d00ae80:	0f4048dc 	jal	9d012370 <__shgetc>
9d00ae84:	02002025 	move	a0,s0
9d00ae88:	1000ffa5 	b	9d00ad20 <__intscan+0x4d0>
9d00ae8c:	00404825 	move	t1,v0
9d00ae90:	3c16071c 	lui	s6,0x71c
9d00ae94:	0000a825 	move	s5,zero
9d00ae98:	1000ffa3 	b	9d00ad28 <__intscan+0x4d8>
9d00ae9c:	26d671c7 	addiu	s6,s6,29127
9d00aea0:	8e02003c 	lw	v0,60(s0)
9d00aea4:	8e03004c 	lw	v1,76(s0)
9d00aea8:	0043182b 	sltu	v1,v0,v1
9d00aeac:	10600007 	beqz	v1,9d00aecc <__intscan+0x67c>
9d00aeb0:	24430001 	addiu	v1,v0,1
9d00aeb4:	ae03003c 	sw	v1,60(s0)
9d00aeb8:	90490000 	lbu	t1,0(v0)
9d00aebc:	02b63821 	addu	a3,s5,s6
9d00aec0:	00f6402b 	sltu	t0,a3,s6
9d00aec4:	1000ffa2 	b	9d00ad50 <__intscan+0x500>
9d00aec8:	01174021 	addu	t0,t0,s7
9d00aecc:	0f4048dc 	jal	9d012370 <__shgetc>
9d00aed0:	02002025 	move	a0,s0
9d00aed4:	1000fff9 	b	9d00aebc <__intscan+0x66c>
9d00aed8:	00404825 	move	t1,v0
9d00aedc:	0f4048dc 	jal	9d012370 <__shgetc>
9d00aee0:	02002025 	move	a0,s0
9d00aee4:	1000ffc1 	b	9d00adec <__intscan+0x59c>
9d00aee8:	02621021 	addu	v0,s3,v0
9d00aeec:	8fa20010 	lw	v0,16(sp)
9d00aef0:	0048102b 	sltu	v0,v0,t0
9d00aef4:	14400005 	bnez	v0,9d00af0c <__intscan+0x6bc>
9d00aef8:	8fa20010 	lw	v0,16(sp)
9d00aefc:	15020009 	bne	t0,v0,9d00af24 <__intscan+0x6d4>
9d00af00:	0247102b 	sltu	v0,s2,a3
9d00af04:	10400008 	beqz	v0,9d00af28 <__intscan+0x6d8>
9d00af08:	2402ffff 	li	v0,-1
9d00af0c:	3c02a000 	lui	v0,0xa000
9d00af10:	24030022 	li	v1,34
9d00af14:	ac43107c 	sw	v1,4220(v0)
9d00af18:	02403825 	move	a3,s2
9d00af1c:	1000febe 	b	9d00aa18 <__intscan+0x1c8>
9d00af20:	8fa80010 	lw	t0,16(sp)
9d00af24:	2402ffff 	li	v0,-1
9d00af28:	1682febc 	bne	s4,v0,9d00aa1c <__intscan+0x1cc>
9d00af2c:	8fbf0044 	lw	ra,68(sp)
9d00af30:	00073823 	negu	a3,a3
9d00af34:	0007102b 	sltu	v0,zero,a3
9d00af38:	00084023 	negu	t0,t0
9d00af3c:	1000feb7 	b	9d00aa1c <__intscan+0x1cc>
9d00af40:	01024023 	subu	t0,t0,v0
9d00af44:	1660feb4 	bnez	s3,9d00aa18 <__intscan+0x1c8>
9d00af48:	00004025 	move	t0,zero
9d00af4c:	1000fecb 	b	9d00aa7c <__intscan+0x22c>
9d00af50:	00002825 	move	a1,zero
9d00af54:	1122fe8f 	beq	t1,v0,9d00a994 <__intscan+0x144>
9d00af58:	3c029d01 	lui	v0,0x9d01
9d00af5c:	1000fe72 	b	9d00a928 <__intscan+0xd8>
9d00af60:	244217fd 	addiu	v0,v0,6141

Disassembly of section .text:

9d00af64 <main>:
#include "utilities.h"
#include "icontrol.h"

#define BUF_SIZE 200

int main(){
9d00af64:	27bdf260 	addiu	sp,sp,-3488
9d00af68:	afbf0d9c 	sw	ra,3484(sp)
9d00af6c:	afb70d98 	sw	s7,3480(sp)
9d00af70:	afb60d94 	sw	s6,3476(sp)
9d00af74:	afb50d90 	sw	s5,3472(sp)
9d00af78:	afb40d8c 	sw	s4,3468(sp)
9d00af7c:	afb30d88 	sw	s3,3464(sp)
9d00af80:	afb20d84 	sw	s2,3460(sp)
9d00af84:	afb10d80 	sw	s1,3456(sp)
  char buffer[BUF_SIZE];
  NU32DIP_Startup(); // cache on, min flash wait, interrupts on, LED/button init, UART init
9d00af88:	0f403e79 	jal	9d00f9e4 <NU32DIP_Startup>
9d00af8c:	afb00d7c 	sw	s0,3452(sp)

  NU32DIP_YELLOW = 1;  // turn off the LEDs
9d00af90:	3c02bf88 	lui	v0,0xbf88
9d00af94:	94436130 	lhu	v1,24880(v0)
9d00af98:	24040001 	li	a0,1
9d00af9c:	7c832944 	ins	v1,a0,0x5,0x1
9d00afa0:	a4436130 	sh	v1,24880(v0)
  NU32DIP_GREEN = 1;
9d00afa4:	94436130 	lhu	v1,24880(v0)
9d00afa8:	7c832104 	ins	v1,a0,0x4,0x1
9d00afac:	a4436130 	sh	v1,24880(v0)

  __builtin_disable_interrupts(); // in future, initialize modules or peripherals here
9d00afb0:	41626000 	di	v0
  
  UART2_Startup(); // initialize PICO encoder UART comm
9d00afb4:	0f4039f7 	jal	9d00e7dc <UART2_Startup>
9d00afb8:	000000c0 	ehb
  INA219_Startup(); // initialize ina219 current I2C comm  
9d00afbc:	0f4041af 	jal	9d0106bc <INA219_Startup>
9d00afc0:	00000000 	nop
  set_mode(IDLE); //initialize mode at IDLE
9d00afc4:	0f4041f6 	jal	9d0107d8 <set_mode>
9d00afc8:	00002025 	move	a0,zero
  icontrolstartup(); //initialize timers 
9d00afcc:	0f402eb9 	jal	9d00bae4 <icontrolstartup>
9d00afd0:	00000000 	nop

  __builtin_enable_interrupts();
9d00afd4:	41626020 	ei	v0

  while (1){
    NU32DIP_ReadUART1(buffer, BUF_SIZE); // we expect the next character to be a menu command
    NU32DIP_YELLOW = 1;               // clear the error LED
9d00afd8:	3c10bf88 	lui	s0,0xbf88
    switch (buffer[0]){
9d00afdc:	3c119d01 	lui	s1,0x9d01
9d00afe0:	2631b04c 	addiu	s1,s1,-20404
      break;
    }
    case 'z':{ // dummy function (in+1)  
      int n = 0;
      NU32DIP_ReadUART1(buffer, BUF_SIZE);
      sscanf(buffer, "%d", &n);
9d00afe4:	3c129d00 	lui	s2,0x9d00
      sprintf(buffer, "%f %f\r\n", curr.iREF[i], curr.iADC[i]);
9d00afe8:	3c139d00 	lui	s3,0x9d00
9d00afec:	267375fc 	addiu	s3,s3,30204
      deg = count*0.107; // cnt*360(deg/rev)/3360(cnt/rev)
9d00aff0:	3c029d00 	lui	v0,0x9d00
9d00aff4:	8c437634 	lw	v1,30260(v0)
9d00aff8:	8c427630 	lw	v0,30256(v0)
9d00affc:	afa20d70 	sw	v0,3440(sp)
9d00b000:	afa30d74 	sw	v1,3444(sp)
    NU32DIP_ReadUART1(buffer, BUF_SIZE); // we expect the next character to be a menu command
9d00b004:	240500c8 	li	a1,200
9d00b008:	0f403ec1 	jal	9d00fb04 <NU32DIP_ReadUART1>
9d00b00c:	27a40020 	addiu	a0,sp,32
    NU32DIP_YELLOW = 1;               // clear the error LED
9d00b010:	96026130 	lhu	v0,24880(s0)
9d00b014:	24030001 	li	v1,1
9d00b018:	7c622944 	ins	v0,v1,0x5,0x1
9d00b01c:	a6026130 	sh	v0,24880(s0)
    switch (buffer[0]){
9d00b020:	93a20020 	lbu	v0,32(sp)
9d00b024:	2442ff9f 	addiu	v0,v0,-97
9d00b028:	304300ff 	andi	v1,v0,0xff
9d00b02c:	2c63001a 	sltiu	v1,v1,26
9d00b030:	10600178 	beqz	v1,9d00b614 <__jend_main_5+0x560>
9d00b034:	304200ff 	andi	v0,v0,0xff
9d00b038:	00021080 	sll	v0,v0,0x2
9d00b03c:	02221021 	addu	v0,s1,v0
9d00b040:	8c420000 	lw	v0,0(v0)
9d00b044:	00400008 	jr	v0
9d00b048:	00000000 	nop

9d00b04c <__jump_main_5>:
9d00b04c:	9d00b0b4 9d00b614 9d00b0ec 9d00b13c     ............<...
9d00b05c:	9d00b1b4 9d00b1c8 9d00b294 9d00b30c     ................
9d00b06c:	9d00b368 9d00b3fc 9d00b458 9d00b614     h.......X.......
9d00b07c:	9d00b614 9d00b614 9d00b614 9d00b510     ................
9d00b08c:	9d00b604 9d00b530 9d00b614 9d00b614     ....0...........
9d00b09c:	9d00b614 9d00b614 9d00b614 9d00b614     ................
9d00b0ac:	9d00b614 9d00b5bc                       ........

9d00b0b4 <__jend_main_5>:
      curr = INA219_read_current();
9d00b0b4:	0f4041e1 	jal	9d010784 <INA219_read_current>
9d00b0b8:	00000000 	nop
      sprintf(buffer, "%f\r\n", curr);
9d00b0bc:	0f40498c 	jal	9d012630 <__extendsfdf2>
9d00b0c0:	00402025 	move	a0,v0
9d00b0c4:	00403025 	move	a2,v0
9d00b0c8:	00603825 	move	a3,v1
9d00b0cc:	3c059d00 	lui	a1,0x9d00
9d00b0d0:	24a574d8 	addiu	a1,a1,29912
9d00b0d4:	0f40514d 	jal	9d014534 <_dsprintf_cdeEfFgGnopuxX>
9d00b0d8:	27a40020 	addiu	a0,sp,32
      NU32DIP_WriteUART1(buffer);
9d00b0dc:	0f403eda 	jal	9d00fb68 <NU32DIP_WriteUART1>
9d00b0e0:	27a40020 	addiu	a0,sp,32
      break;
9d00b0e4:	1000ffc8 	b	9d00b008 <main+0xa4>
9d00b0e8:	240500c8 	li	a1,200
      WriteUART2("a"); // request the encoder count
9d00b0ec:	3c049d00 	lui	a0,0x9d00
9d00b0f0:	0f4039e7 	jal	9d00e79c <WriteUART2>
9d00b0f4:	248474e0 	addiu	a0,a0,29920
      while(!get_encoder_flag()){;} // wait for the Pico to respond
9d00b0f8:	0f403977 	jal	9d00e5dc <get_encoder_flag>
9d00b0fc:	00000000 	nop
9d00b100:	1040fffd 	beqz	v0,9d00b0f8 <__jend_main_5+0x44>
9d00b104:	00000000 	nop
      set_encoder_flag(0); // clear the flag so you can read again later
9d00b108:	0f40397a 	jal	9d00e5e8 <set_encoder_flag>
9d00b10c:	00002025 	move	a0,zero
      count = get_encoder_count(); // get the encoder value
9d00b110:	0f40397d 	jal	9d00e5f4 <get_encoder_count>
9d00b114:	00000000 	nop
      sprintf(buffer, "%d\r\n", count);
9d00b118:	00403025 	move	a2,v0
9d00b11c:	3c059d00 	lui	a1,0x9d00
9d00b120:	24a574e4 	addiu	a1,a1,29924
9d00b124:	0f40514d 	jal	9d014534 <_dsprintf_cdeEfFgGnopuxX>
9d00b128:	27a40020 	addiu	a0,sp,32
      NU32DIP_WriteUART1(buffer);
9d00b12c:	0f403eda 	jal	9d00fb68 <NU32DIP_WriteUART1>
9d00b130:	27a40020 	addiu	a0,sp,32
      break;
9d00b134:	1000ffb4 	b	9d00b008 <main+0xa4>
9d00b138:	240500c8 	li	a1,200
      WriteUART2("a"); // request the encoder count
9d00b13c:	3c049d00 	lui	a0,0x9d00
9d00b140:	0f4039e7 	jal	9d00e79c <WriteUART2>
9d00b144:	248474e0 	addiu	a0,a0,29920
      while(!get_encoder_flag()){;} // wait for the Pico to respond
9d00b148:	0f403977 	jal	9d00e5dc <get_encoder_flag>
9d00b14c:	00000000 	nop
9d00b150:	1040fffd 	beqz	v0,9d00b148 <__jend_main_5+0x94>
9d00b154:	00000000 	nop
      set_encoder_flag(0); // clear the flag so you can read again later
9d00b158:	0f40397a 	jal	9d00e5e8 <set_encoder_flag>
9d00b15c:	00002025 	move	a0,zero
      count = get_encoder_count(); // get the encoder value
9d00b160:	0f40397d 	jal	9d00e5f4 <get_encoder_count>
9d00b164:	00000000 	nop
      deg = count*0.107; // cnt*360(deg/rev)/3360(cnt/rev)
9d00b168:	0f404cf9 	jal	9d0133e4 <__floatsidf>
9d00b16c:	00402025 	move	a0,v0
9d00b170:	8fa60d70 	lw	a2,3440(sp)
9d00b174:	8fa70d74 	lw	a3,3444(sp)
9d00b178:	00402025 	move	a0,v0
9d00b17c:	0f4038ac 	jal	9d00e2b0 <__muldf3>
9d00b180:	00602825 	move	a1,v1
9d00b184:	00402025 	move	a0,v0
9d00b188:	0f404b6a 	jal	9d012da8 <__fixdfsi>
9d00b18c:	00602825 	move	a1,v1
      sprintf(buffer, "%d\r\n", deg);
9d00b190:	00403025 	move	a2,v0
9d00b194:	3c059d00 	lui	a1,0x9d00
9d00b198:	24a574e4 	addiu	a1,a1,29924
9d00b19c:	0f40514d 	jal	9d014534 <_dsprintf_cdeEfFgGnopuxX>
9d00b1a0:	27a40020 	addiu	a0,sp,32
      NU32DIP_WriteUART1(buffer);
9d00b1a4:	0f403eda 	jal	9d00fb68 <NU32DIP_WriteUART1>
9d00b1a8:	27a40020 	addiu	a0,sp,32
      break;
9d00b1ac:	1000ff96 	b	9d00b008 <main+0xa4>
9d00b1b0:	240500c8 	li	a1,200
      WriteUART2("b");
9d00b1b4:	3c049d00 	lui	a0,0x9d00
9d00b1b8:	0f4039e7 	jal	9d00e79c <WriteUART2>
9d00b1bc:	248474ec 	addiu	a0,a0,29932
      break;       
9d00b1c0:	1000ff91 	b	9d00b008 <main+0xa4>
9d00b1c4:	240500c8 	li	a1,200
      NU32DIP_ReadUART1(buffer, BUF_SIZE);
9d00b1c8:	240500c8 	li	a1,200
9d00b1cc:	0f403ec1 	jal	9d00fb04 <NU32DIP_ReadUART1>
9d00b1d0:	27a40020 	addiu	a0,sp,32
      sscanf(buffer, "%d", &pwmval);  
9d00b1d4:	27a600e8 	addiu	a2,sp,232
9d00b1d8:	264574f0 	addiu	a1,s2,29936
9d00b1dc:	0f405157 	jal	9d01455c <_dsscanf_cdeEfFgGnopuxX>
9d00b1e0:	27a40020 	addiu	a0,sp,32
      if (pwmval <= -100){
9d00b1e4:	8fa200e8 	lw	v0,232(sp)
9d00b1e8:	2843ff9d 	slti	v1,v0,-99
9d00b1ec:	10600008 	beqz	v1,9d00b210 <__jend_main_5+0x15c>
9d00b1f0:	28430064 	slti	v1,v0,100
        pwmval = -100;
9d00b1f4:	2402ff9c 	li	v0,-100
9d00b1f8:	afa200e8 	sw	v0,232(sp)
        set_dir(0);
9d00b1fc:	0f4041fc 	jal	9d0107f0 <set_dir>
9d00b200:	00002025 	move	a0,zero
        proc = -pwmval;
9d00b204:	8fa400e8 	lw	a0,232(sp)
9d00b208:	10000008 	b	9d00b22c <__jend_main_5+0x178>
9d00b20c:	00042023 	negu	a0,a0
      else if (pwmval >= 100){
9d00b210:	1460001c 	bnez	v1,9d00b284 <__jend_main_5+0x1d0>
9d00b214:	00000000 	nop
        pwmval = 100;
9d00b218:	24020064 	li	v0,100
9d00b21c:	afa200e8 	sw	v0,232(sp)
        set_dir(1);
9d00b220:	0f4041fc 	jal	9d0107f0 <set_dir>
9d00b224:	24040001 	li	a0,1
        proc = pwmval;
9d00b228:	8fa400e8 	lw	a0,232(sp)
      set_PWM(proc);
9d00b22c:	0f4041f9 	jal	9d0107e4 <set_PWM>
9d00b230:	3c149d00 	lui	s4,0x9d00
      set_mode(PWM);
9d00b234:	0f4041f6 	jal	9d0107d8 <set_mode>
9d00b238:	24040001 	li	a0,1
      sprintf(buffer, "%d\r\n", get_PWM()); // return the number + 1
9d00b23c:	0f404202 	jal	9d010808 <get_PWM>
9d00b240:	00000000 	nop
9d00b244:	00403025 	move	a2,v0
9d00b248:	268574e4 	addiu	a1,s4,29924
9d00b24c:	0f40514d 	jal	9d014534 <_dsprintf_cdeEfFgGnopuxX>
9d00b250:	27a40020 	addiu	a0,sp,32
      NU32DIP_WriteUART1(buffer);
9d00b254:	0f403eda 	jal	9d00fb68 <NU32DIP_WriteUART1>
9d00b258:	27a40020 	addiu	a0,sp,32
      sprintf(buffer, "%d\r\n", get_dir()); // return the number + 1
9d00b25c:	0f4041ff 	jal	9d0107fc <get_dir>
9d00b260:	00000000 	nop
9d00b264:	00403025 	move	a2,v0
9d00b268:	268574e4 	addiu	a1,s4,29924
9d00b26c:	0f40514d 	jal	9d014534 <_dsprintf_cdeEfFgGnopuxX>
9d00b270:	27a40020 	addiu	a0,sp,32
      NU32DIP_WriteUART1(buffer);
9d00b274:	0f403eda 	jal	9d00fb68 <NU32DIP_WriteUART1>
9d00b278:	27a40020 	addiu	a0,sp,32
    NU32DIP_ReadUART1(buffer, BUF_SIZE); // we expect the next character to be a menu command
9d00b27c:	1000ff62 	b	9d00b008 <main+0xa4>
9d00b280:	240500c8 	li	a1,200
      if (pwmval >= 0){
9d00b284:	0440ffdd 	bltz	v0,9d00b1fc <__jend_main_5+0x148>
9d00b288:	00000000 	nop
9d00b28c:	1000ffe4 	b	9d00b220 <__jend_main_5+0x16c>
9d00b290:	00000000 	nop
      NU32DIP_ReadUART1(buffer, BUF_SIZE);
9d00b294:	240500c8 	li	a1,200
9d00b298:	0f403ec1 	jal	9d00fb04 <NU32DIP_ReadUART1>
9d00b29c:	27a40020 	addiu	a0,sp,32
      sscanf(buffer, "%f %f", &kp, &ki);  
9d00b2a0:	27a700e8 	addiu	a3,sp,232
9d00b2a4:	27a60d68 	addiu	a2,sp,3432
9d00b2a8:	3c059d00 	lui	a1,0x9d00
9d00b2ac:	24a574f4 	addiu	a1,a1,29940
9d00b2b0:	0f405157 	jal	9d01455c <_dsscanf_cdeEfFgGnopuxX>
9d00b2b4:	27a40020 	addiu	a0,sp,32
      sprintf(buffer, "Sending Kp = %f and Ki = %f to the current controller.\r\n",kp,ki);
9d00b2b8:	0f40498c 	jal	9d012630 <__extendsfdf2>
9d00b2bc:	8fa40d68 	lw	a0,3432(sp)
9d00b2c0:	0040a025 	move	s4,v0
9d00b2c4:	0060a825 	move	s5,v1
9d00b2c8:	0f40498c 	jal	9d012630 <__extendsfdf2>
9d00b2cc:	8fa400e8 	lw	a0,232(sp)
9d00b2d0:	afa20010 	sw	v0,16(sp)
9d00b2d4:	afa30014 	sw	v1,20(sp)
9d00b2d8:	02803025 	move	a2,s4
9d00b2dc:	02a03825 	move	a3,s5
9d00b2e0:	3c059d00 	lui	a1,0x9d00
9d00b2e4:	24a574fc 	addiu	a1,a1,29948
9d00b2e8:	0f40514d 	jal	9d014534 <_dsprintf_cdeEfFgGnopuxX>
9d00b2ec:	27a40020 	addiu	a0,sp,32
      NU32DIP_WriteUART1(buffer);
9d00b2f0:	0f403eda 	jal	9d00fb68 <NU32DIP_WriteUART1>
9d00b2f4:	27a40020 	addiu	a0,sp,32
      set_igains(kp,ki);
9d00b2f8:	8fa500e8 	lw	a1,232(sp)
9d00b2fc:	0f404205 	jal	9d010814 <set_igains>
9d00b300:	8fa40d68 	lw	a0,3432(sp)
    NU32DIP_ReadUART1(buffer, BUF_SIZE); // we expect the next character to be a menu command
9d00b304:	1000ff40 	b	9d00b008 <main+0xa4>
9d00b308:	240500c8 	li	a1,200
      kp = get_igain_kp();
9d00b30c:	0f40420c 	jal	9d010830 <get_igain_kp>
9d00b310:	00000000 	nop
      ki = get_igain_ki();
9d00b314:	0f404209 	jal	9d010824 <get_igain_ki>
9d00b318:	0040a025 	move	s4,v0
9d00b31c:	0040b025 	move	s6,v0
      sprintf(buffer, "The current controller is using Kp = %f and Ki = %f.\r\n",kp,ki);
9d00b320:	0f40498c 	jal	9d012630 <__extendsfdf2>
9d00b324:	02802025 	move	a0,s4
9d00b328:	0040a025 	move	s4,v0
9d00b32c:	0060a825 	move	s5,v1
9d00b330:	0f40498c 	jal	9d012630 <__extendsfdf2>
9d00b334:	02c02025 	move	a0,s6
9d00b338:	afa20010 	sw	v0,16(sp)
9d00b33c:	afa30014 	sw	v1,20(sp)
9d00b340:	02803025 	move	a2,s4
9d00b344:	02a03825 	move	a3,s5
9d00b348:	3c059d00 	lui	a1,0x9d00
9d00b34c:	24a57538 	addiu	a1,a1,30008
9d00b350:	0f40514d 	jal	9d014534 <_dsprintf_cdeEfFgGnopuxX>
9d00b354:	27a40020 	addiu	a0,sp,32
      NU32DIP_WriteUART1(buffer);
9d00b358:	0f403eda 	jal	9d00fb68 <NU32DIP_WriteUART1>
9d00b35c:	27a40020 	addiu	a0,sp,32
      break;       
9d00b360:	1000ff29 	b	9d00b008 <main+0xa4>
9d00b364:	240500c8 	li	a1,200
      NU32DIP_ReadUART1(buffer, BUF_SIZE);
9d00b368:	240500c8 	li	a1,200
9d00b36c:	0f403ec1 	jal	9d00fb04 <NU32DIP_ReadUART1>
9d00b370:	27a40020 	addiu	a0,sp,32
      sscanf(buffer, "%f %f %f", &kp, &ki, &kd);       
9d00b374:	27a200e8 	addiu	v0,sp,232
9d00b378:	afa20010 	sw	v0,16(sp)
9d00b37c:	27a70d68 	addiu	a3,sp,3432
9d00b380:	27a60d6c 	addiu	a2,sp,3436
9d00b384:	3c059d00 	lui	a1,0x9d00
9d00b388:	24a57570 	addiu	a1,a1,30064
9d00b38c:	0f405157 	jal	9d01455c <_dsscanf_cdeEfFgGnopuxX>
9d00b390:	27a40020 	addiu	a0,sp,32
      sprintf(buffer, "Sending Kp = %f and Ki = %f and Ki = %f to the position controller.\r\n",kp,ki,kd);
9d00b394:	0f40498c 	jal	9d012630 <__extendsfdf2>
9d00b398:	8fa40d6c 	lw	a0,3436(sp)
9d00b39c:	0040a025 	move	s4,v0
9d00b3a0:	0060a825 	move	s5,v1
9d00b3a4:	0f40498c 	jal	9d012630 <__extendsfdf2>
9d00b3a8:	8fa400e8 	lw	a0,232(sp)
9d00b3ac:	afa20018 	sw	v0,24(sp)
9d00b3b0:	afa3001c 	sw	v1,28(sp)
9d00b3b4:	0f40498c 	jal	9d012630 <__extendsfdf2>
9d00b3b8:	8fa40d68 	lw	a0,3432(sp)
9d00b3bc:	afa20010 	sw	v0,16(sp)
9d00b3c0:	afa30014 	sw	v1,20(sp)
9d00b3c4:	02803025 	move	a2,s4
9d00b3c8:	02a03825 	move	a3,s5
9d00b3cc:	3c059d00 	lui	a1,0x9d00
9d00b3d0:	24a5757c 	addiu	a1,a1,30076
9d00b3d4:	0f40514d 	jal	9d014534 <_dsprintf_cdeEfFgGnopuxX>
9d00b3d8:	27a40020 	addiu	a0,sp,32
      NU32DIP_WriteUART1(buffer);
9d00b3dc:	0f403eda 	jal	9d00fb68 <NU32DIP_WriteUART1>
9d00b3e0:	27a40020 	addiu	a0,sp,32
      set_pgains(kp,ki,kd);
9d00b3e4:	8fa600e8 	lw	a2,232(sp)
9d00b3e8:	8fa50d68 	lw	a1,3432(sp)
9d00b3ec:	0f404215 	jal	9d010854 <set_pgains>
9d00b3f0:	8fa40d6c 	lw	a0,3436(sp)
    NU32DIP_ReadUART1(buffer, BUF_SIZE); // we expect the next character to be a menu command
9d00b3f4:	1000ff04 	b	9d00b008 <main+0xa4>
9d00b3f8:	240500c8 	li	a1,200
      kp = get_pgain_kp();
9d00b3fc:	0f40421d 	jal	9d010874 <get_pgain_kp>
9d00b400:	00000000 	nop
      ki = get_pgain_ki();
9d00b404:	0f40421a 	jal	9d010868 <get_pgain_ki>
9d00b408:	0040a025 	move	s4,v0
9d00b40c:	0040b025 	move	s6,v0
      sprintf(buffer, "The position controller is using Kp = %f and Ki = %f.\r\n",kp,ki);
9d00b410:	0f40498c 	jal	9d012630 <__extendsfdf2>
9d00b414:	02802025 	move	a0,s4
9d00b418:	0040a025 	move	s4,v0
9d00b41c:	0060a825 	move	s5,v1
9d00b420:	0f40498c 	jal	9d012630 <__extendsfdf2>
9d00b424:	02c02025 	move	a0,s6
9d00b428:	afa20010 	sw	v0,16(sp)
9d00b42c:	afa30014 	sw	v1,20(sp)
9d00b430:	02803025 	move	a2,s4
9d00b434:	02a03825 	move	a3,s5
9d00b438:	3c059d00 	lui	a1,0x9d00
9d00b43c:	24a575c4 	addiu	a1,a1,30148
9d00b440:	0f40514d 	jal	9d014534 <_dsprintf_cdeEfFgGnopuxX>
9d00b444:	27a40020 	addiu	a0,sp,32
      NU32DIP_WriteUART1(buffer);
9d00b448:	0f403eda 	jal	9d00fb68 <NU32DIP_WriteUART1>
9d00b44c:	27a40020 	addiu	a0,sp,32
      break;       
9d00b450:	1000feed 	b	9d00b008 <main+0xa4>
9d00b454:	240500c8 	li	a1,200
      sprintf(buffer, "200\r\n");
9d00b458:	3c020d30 	lui	v0,0xd30
9d00b45c:	24423032 	addiu	v0,v0,12338
9d00b460:	afa20020 	sw	v0,32(sp)
9d00b464:	2402000a 	li	v0,10
9d00b468:	a7a20024 	sh	v0,36(sp)
      NU32DIP_WriteUART1(buffer);
9d00b46c:	0f403eda 	jal	9d00fb68 <NU32DIP_WriteUART1>
9d00b470:	27a40020 	addiu	a0,sp,32
      set_mode(ITEST);
9d00b474:	0f4041f6 	jal	9d0107d8 <set_mode>
9d00b478:	24040002 	li	a0,2
      set_ieint(0);
9d00b47c:	0f40420f 	jal	9d01083c <set_ieint>
9d00b480:	00002025 	move	a0,zero
      set_stor(1);
9d00b484:	0f404244 	jal	9d010910 <set_stor>
9d00b488:	24040001 	li	a0,1
      while (get_stor()){            // wait until ISR says data storing is done
9d00b48c:	0f404247 	jal	9d01091c <get_stor>
9d00b490:	00000000 	nop
9d00b494:	1440001b 	bnez	v0,9d00b504 <__jend_main_5+0x450>
9d00b498:	00000000 	nop
      struct cont_dat curr = get_cont();
9d00b49c:	0f404223 	jal	9d01088c <get_cont>
9d00b4a0:	27a400e8 	addiu	a0,sp,232
      for (int i = 0; i < PLOTPTS; i++){  // send plot data to MATLAB
9d00b4a4:	27b600e8 	addiu	s6,sp,232
9d00b4a8:	27b70408 	addiu	s7,sp,1032
      sprintf(buffer, "%f %f\r\n", curr.iREF[i], curr.iADC[i]);
9d00b4ac:	0f40498c 	jal	9d012630 <__extendsfdf2>
9d00b4b0:	8ec40000 	lw	a0,0(s6)
9d00b4b4:	0040a025 	move	s4,v0
9d00b4b8:	0060a825 	move	s5,v1
9d00b4bc:	0f40498c 	jal	9d012630 <__extendsfdf2>
9d00b4c0:	8ec40320 	lw	a0,800(s6)
9d00b4c4:	afa20010 	sw	v0,16(sp)
9d00b4c8:	afa30014 	sw	v1,20(sp)
9d00b4cc:	02803025 	move	a2,s4
9d00b4d0:	02a03825 	move	a3,s5
9d00b4d4:	02602825 	move	a1,s3
9d00b4d8:	0f40514d 	jal	9d014534 <_dsprintf_cdeEfFgGnopuxX>
9d00b4dc:	27a40020 	addiu	a0,sp,32
      NU32DIP_WriteUART1(buffer);
9d00b4e0:	0f403eda 	jal	9d00fb68 <NU32DIP_WriteUART1>
9d00b4e4:	27a40020 	addiu	a0,sp,32
9d00b4e8:	26d60004 	addiu	s6,s6,4
      for (int i = 0; i < PLOTPTS; i++){  // send plot data to MATLAB
9d00b4ec:	16d7ffef 	bne	s6,s7,9d00b4ac <__jend_main_5+0x3f8>
9d00b4f0:	00000000 	nop
      set_mode(IDLE);
9d00b4f4:	0f4041f6 	jal	9d0107d8 <set_mode>
9d00b4f8:	00002025 	move	a0,zero
    NU32DIP_ReadUART1(buffer, BUF_SIZE); // we expect the next character to be a menu command
9d00b4fc:	1000fec2 	b	9d00b008 <main+0xa4>
9d00b500:	240500c8 	li	a1,200
          _nop(); // do nothing 
9d00b504:	00000040 	ssnop
9d00b508:	1000ffe0 	b	9d00b48c <__jend_main_5+0x3d8>
9d00b50c:	00000000 	nop
      set_mode(IDLE);
9d00b510:	0f4041f6 	jal	9d0107d8 <set_mode>
9d00b514:	00002025 	move	a0,zero
      set_PWM(0);
9d00b518:	0f4041f9 	jal	9d0107e4 <set_PWM>
9d00b51c:	00002025 	move	a0,zero
      set_dir(0);
9d00b520:	0f4041fc 	jal	9d0107f0 <set_dir>
9d00b524:	00002025 	move	a0,zero
      break;       
9d00b528:	1000feb7 	b	9d00b008 <main+0xa4>
9d00b52c:	240500c8 	li	a1,200
      m = get_mode();
9d00b530:	0f4041f3 	jal	9d0107cc <get_mode>
9d00b534:	00000000 	nop
      if (m == IDLE){
9d00b538:	1440000c 	bnez	v0,9d00b56c <__jend_main_5+0x4b8>
9d00b53c:	0040a025 	move	s4,v0
        NU32DIP_WriteUART1("IDLE\r\n"); 
9d00b540:	3c049d00 	lui	a0,0x9d00
9d00b544:	0f403eda 	jal	9d00fb68 <NU32DIP_WriteUART1>
9d00b548:	24847604 	addiu	a0,a0,30212
      if (m == HOLD){
9d00b54c:	24020003 	li	v0,3
9d00b550:	1682000c 	bne	s4,v0,9d00b584 <__jend_main_5+0x4d0>
9d00b554:	24020004 	li	v0,4
        NU32DIP_WriteUART1("HOLD\r\n"); 
9d00b558:	3c049d00 	lui	a0,0x9d00
9d00b55c:	0f403eda 	jal	9d00fb68 <NU32DIP_WriteUART1>
9d00b560:	2484761c 	addiu	a0,a0,30236
    NU32DIP_ReadUART1(buffer, BUF_SIZE); // we expect the next character to be a menu command
9d00b564:	1000fea8 	b	9d00b008 <main+0xa4>
9d00b568:	240500c8 	li	a1,200
      if (m == PWM){
9d00b56c:	24020001 	li	v0,1
9d00b570:	1682000a 	bne	s4,v0,9d00b59c <__jend_main_5+0x4e8>
9d00b574:	3c049d00 	lui	a0,0x9d00
        NU32DIP_WriteUART1("PWM\r\n"); 
9d00b578:	0f403eda 	jal	9d00fb68 <NU32DIP_WriteUART1>
9d00b57c:	2484760c 	addiu	a0,a0,30220
      if (m == TRACK){
9d00b580:	24020004 	li	v0,4
9d00b584:	1682fe9f 	bne	s4,v0,9d00b004 <main+0xa0>
9d00b588:	3c049d00 	lui	a0,0x9d00
        NU32DIP_WriteUART1("TRACK\r\n"); 
9d00b58c:	0f403eda 	jal	9d00fb68 <NU32DIP_WriteUART1>
9d00b590:	24847624 	addiu	a0,a0,30244
    NU32DIP_ReadUART1(buffer, BUF_SIZE); // we expect the next character to be a menu command
9d00b594:	1000fe9c 	b	9d00b008 <main+0xa4>
9d00b598:	240500c8 	li	a1,200
      if (m == ITEST){
9d00b59c:	24020002 	li	v0,2
9d00b5a0:	1682ffeb 	bne	s4,v0,9d00b550 <__jend_main_5+0x49c>
9d00b5a4:	24020003 	li	v0,3
        NU32DIP_WriteUART1("ITEST\r\n"); 
9d00b5a8:	3c049d00 	lui	a0,0x9d00
9d00b5ac:	0f403eda 	jal	9d00fb68 <NU32DIP_WriteUART1>
9d00b5b0:	24847614 	addiu	a0,a0,30228
    NU32DIP_ReadUART1(buffer, BUF_SIZE); // we expect the next character to be a menu command
9d00b5b4:	1000fe94 	b	9d00b008 <main+0xa4>
9d00b5b8:	240500c8 	li	a1,200
      int n = 0;
9d00b5bc:	afa000e8 	sw	zero,232(sp)
      NU32DIP_ReadUART1(buffer, BUF_SIZE);
9d00b5c0:	240500c8 	li	a1,200
9d00b5c4:	0f403ec1 	jal	9d00fb04 <NU32DIP_ReadUART1>
9d00b5c8:	27a40020 	addiu	a0,sp,32
      sscanf(buffer, "%d", &n);
9d00b5cc:	27a600e8 	addiu	a2,sp,232
9d00b5d0:	264574f0 	addiu	a1,s2,29936
9d00b5d4:	0f405157 	jal	9d01455c <_dsscanf_cdeEfFgGnopuxX>
9d00b5d8:	27a40020 	addiu	a0,sp,32
      sprintf(buffer, "%d\r\n", n + 1); // return the number + 1
9d00b5dc:	8fa600e8 	lw	a2,232(sp)
9d00b5e0:	24c60001 	addiu	a2,a2,1
9d00b5e4:	3c059d00 	lui	a1,0x9d00
9d00b5e8:	24a574e4 	addiu	a1,a1,29924
9d00b5ec:	0f40514d 	jal	9d014534 <_dsprintf_cdeEfFgGnopuxX>
9d00b5f0:	27a40020 	addiu	a0,sp,32
      NU32DIP_WriteUART1(buffer);
9d00b5f4:	0f403eda 	jal	9d00fb68 <NU32DIP_WriteUART1>
9d00b5f8:	27a40020 	addiu	a0,sp,32
    NU32DIP_ReadUART1(buffer, BUF_SIZE); // we expect the next character to be a menu command
9d00b5fc:	1000fe82 	b	9d00b008 <main+0xa4>
9d00b600:	240500c8 	li	a1,200
      break;
    }
    case 'q':{
      // handle q for quit. Later you may want to return to IDLE mode here.
      set_mode(IDLE);
9d00b604:	0f4041f6 	jal	9d0107d8 <set_mode>
9d00b608:	00002025 	move	a0,zero
      break;
9d00b60c:	1000fe7e 	b	9d00b008 <main+0xa4>
9d00b610:	240500c8 	li	a1,200
    }
    default:{
      NU32DIP_YELLOW = 0; // turn on LED2 to indicate an error
9d00b614:	96026130 	lhu	v0,24880(s0)
9d00b618:	7c022944 	ins	v0,zero,0x5,0x1
9d00b61c:	a6026130 	sh	v0,24880(s0)
      break;
9d00b620:	1000fe79 	b	9d00b008 <main+0xa4>
9d00b624:	240500c8 	li	a1,200

9d00b628 <icontroller>:
#include "icontrol.h"


// extern cont_dat cont;

void __ISR(_TIMER_2_VECTOR, IPL5SOFT) icontroller(void){  // _TIMER_2_VECTOR = 8
9d00b628:	415de800 	rdpgpr	sp,sp
9d00b62c:	401a7000 	mfc0	k0,c0_epc
9d00b630:	401b6000 	mfc0	k1,c0_status
9d00b634:	27bdf2f0 	addiu	sp,sp,-3344
9d00b638:	afba0d0c 	sw	k0,3340(sp)
9d00b63c:	401a6002 	mfc0	k0,c0_srsctl
9d00b640:	afbb0d08 	sw	k1,3336(sp)
9d00b644:	afba0d04 	sw	k0,3332(sp)
9d00b648:	7c1b7844 	ins	k1,zero,0x1,0xf
9d00b64c:	377b1400 	ori	k1,k1,0x1400
9d00b650:	409b6000 	mtc0	k1,c0_status
9d00b654:	afbf0cf4 	sw	ra,3316(sp)
9d00b658:	afbe0cf0 	sw	s8,3312(sp)
9d00b65c:	afb90cec 	sw	t9,3308(sp)
9d00b660:	afb80ce8 	sw	t8,3304(sp)
9d00b664:	afb40ce4 	sw	s4,3300(sp)
9d00b668:	afb30ce0 	sw	s3,3296(sp)
9d00b66c:	afb20cdc 	sw	s2,3292(sp)
9d00b670:	afb10cd8 	sw	s1,3288(sp)
9d00b674:	afb00cd4 	sw	s0,3284(sp)
9d00b678:	afaf0cd0 	sw	t7,3280(sp)
9d00b67c:	afae0ccc 	sw	t6,3276(sp)
9d00b680:	afad0cc8 	sw	t5,3272(sp)
9d00b684:	afac0cc4 	sw	t4,3268(sp)
9d00b688:	afab0cc0 	sw	t3,3264(sp)
9d00b68c:	afaa0cbc 	sw	t2,3260(sp)
9d00b690:	afa90cb8 	sw	t1,3256(sp)
9d00b694:	afa80cb4 	sw	t0,3252(sp)
9d00b698:	afa70cb0 	sw	a3,3248(sp)
9d00b69c:	afa60cac 	sw	a2,3244(sp)
9d00b6a0:	afa50ca8 	sw	a1,3240(sp)
9d00b6a4:	afa40ca4 	sw	a0,3236(sp)
9d00b6a8:	afa30ca0 	sw	v1,3232(sp)
9d00b6ac:	afa20c9c 	sw	v0,3228(sp)
9d00b6b0:	afa10c98 	sw	at,3224(sp)
9d00b6b4:	00001012 	mflo	v0
9d00b6b8:	afa20cfc 	sw	v0,3324(sp)
9d00b6bc:	00001810 	mfhi	v1
9d00b6c0:	afa30cf8 	sw	v1,3320(sp)
9d00b6c4:	03a0f025 	move	s8,sp
    int d;
    int dirxn;
    
    switch(get_mode()){
9d00b6c8:	0f4041f3 	jal	9d0107cc <get_mode>
9d00b6cc:	24110001 	li	s1,1
9d00b6d0:	10510044 	beq	v0,s1,9d00b7e4 <icontroller+0x1bc>
9d00b6d4:	00000000 	nop
9d00b6d8:	1040002f 	beqz	v0,9d00b798 <icontroller+0x170>
9d00b6dc:	24110002 	li	s1,2
9d00b6e0:	10510063 	beq	v0,s1,9d00b870 <icontroller+0x248>
9d00b6e4:	00000000 	nop
                ma = -ma;
            }

        }
    }
    IFS0bits.T2IF = 0; // clear interrupt flag
9d00b6e8:	3c10bf88 	lui	s0,0xbf88
9d00b6ec:	8e111030 	lw	s1,4144(s0)
9d00b6f0:	7c114a44 	ins	s1,zero,0x9,0x1
9d00b6f4:	ae111030 	sw	s1,4144(s0)
    
}
9d00b6f8:	03c0e825 	move	sp,s8
9d00b6fc:	8fa20cfc 	lw	v0,3324(sp)
9d00b700:	00400013 	mtlo	v0
9d00b704:	8fa30cf8 	lw	v1,3320(sp)
9d00b708:	00600011 	mthi	v1
9d00b70c:	8fbf0cf4 	lw	ra,3316(sp)
9d00b710:	8fbe0cf0 	lw	s8,3312(sp)
9d00b714:	8fb90cec 	lw	t9,3308(sp)
9d00b718:	8fb80ce8 	lw	t8,3304(sp)
9d00b71c:	8fb40ce4 	lw	s4,3300(sp)
9d00b720:	8fb30ce0 	lw	s3,3296(sp)
9d00b724:	8fb20cdc 	lw	s2,3292(sp)
9d00b728:	8fb10cd8 	lw	s1,3288(sp)
9d00b72c:	8fb00cd4 	lw	s0,3284(sp)
9d00b730:	8faf0cd0 	lw	t7,3280(sp)
9d00b734:	8fae0ccc 	lw	t6,3276(sp)
9d00b738:	8fad0cc8 	lw	t5,3272(sp)
9d00b73c:	8fac0cc4 	lw	t4,3268(sp)
9d00b740:	8fab0cc0 	lw	t3,3264(sp)
9d00b744:	8faa0cbc 	lw	t2,3260(sp)
9d00b748:	8fa90cb8 	lw	t1,3256(sp)
9d00b74c:	8fa80cb4 	lw	t0,3252(sp)
9d00b750:	8fa70cb0 	lw	a3,3248(sp)
9d00b754:	8fa60cac 	lw	a2,3244(sp)
9d00b758:	8fa50ca8 	lw	a1,3240(sp)
9d00b75c:	8fa40ca4 	lw	a0,3236(sp)
9d00b760:	8fa30ca0 	lw	v1,3232(sp)
9d00b764:	8fa20c9c 	lw	v0,3228(sp)
9d00b768:	8fa10c98 	lw	at,3224(sp)
9d00b76c:	41606000 	di
9d00b770:	000000c0 	ehb
9d00b774:	8fba0d0c 	lw	k0,3340(sp)
9d00b778:	8fbb0d08 	lw	k1,3336(sp)
9d00b77c:	409a7000 	mtc0	k0,c0_epc
9d00b780:	8fba0d04 	lw	k0,3332(sp)
9d00b784:	27bd0d10 	addiu	sp,sp,3344
9d00b788:	409a6002 	mtc0	k0,c0_srsctl
9d00b78c:	41dde800 	wrpgpr	sp,sp
9d00b790:	409b6000 	mtc0	k1,c0_status
9d00b794:	42000018 	eret
            OC1RS = (unsigned int) ((d/100.0) * PR3); // set duty based on PWM
9d00b798:	3c02bf80 	lui	v0,0xbf80
9d00b79c:	8c440a20 	lw	a0,2592(v0)
9d00b7a0:	0f404fff 	jal	9d013ffc <__floatunsidf>
9d00b7a4:	3c10bf80 	lui	s0,0xbf80
9d00b7a8:	00003025 	move	a2,zero
9d00b7ac:	00003825 	move	a3,zero
9d00b7b0:	00402025 	move	a0,v0
9d00b7b4:	0f4038ac 	jal	9d00e2b0 <__muldf3>
9d00b7b8:	00602825 	move	a1,v1
9d00b7bc:	00402025 	move	a0,v0
9d00b7c0:	0f404bb1 	jal	9d012ec4 <__fixunsdfsi>
9d00b7c4:	00602825 	move	a1,v1
9d00b7c8:	ae023020 	sw	v0,12320(s0)
            LATAbits.LATA1 = dirxn; // set direction pin   
9d00b7cc:	3c10bf88 	lui	s0,0xbf88
9d00b7d0:	92116030 	lbu	s1,24624(s0)
9d00b7d4:	7c110844 	ins	s1,zero,0x1,0x1
9d00b7d8:	a2116030 	sb	s1,24624(s0)
            break; 
9d00b7dc:	1000ffc3 	b	9d00b6ec <icontroller+0xc4>
9d00b7e0:	3c10bf88 	lui	s0,0xbf88
            d = get_PWM();
9d00b7e4:	0f404202 	jal	9d010808 <get_PWM>
9d00b7e8:	00000000 	nop
            dirxn = get_dir();
9d00b7ec:	0f4041ff 	jal	9d0107fc <get_dir>
9d00b7f0:	00408025 	move	s0,v0
9d00b7f4:	00409025 	move	s2,v0
            OC1RS = (unsigned int) ((d/100.0) * PR3); // set duty based on PWM
9d00b7f8:	3c02bf80 	lui	v0,0xbf80
9d00b7fc:	8c530a20 	lw	s3,2592(v0)
9d00b800:	0f404cf9 	jal	9d0133e4 <__floatsidf>
9d00b804:	02002025 	move	a0,s0
9d00b808:	3c049d00 	lui	a0,0x9d00
9d00b80c:	8c8674c8 	lw	a2,29896(a0)
9d00b810:	8c8774cc 	lw	a3,29900(a0)
9d00b814:	00402025 	move	a0,v0
9d00b818:	0f403064 	jal	9d00c190 <__divdf3>
9d00b81c:	00602825 	move	a1,v1
9d00b820:	00408025 	move	s0,v0
9d00b824:	00608825 	move	s1,v1
9d00b828:	0f404fff 	jal	9d013ffc <__floatunsidf>
9d00b82c:	02602025 	move	a0,s3
9d00b830:	00403025 	move	a2,v0
9d00b834:	00603825 	move	a3,v1
9d00b838:	02002025 	move	a0,s0
9d00b83c:	0f4038ac 	jal	9d00e2b0 <__muldf3>
9d00b840:	02202825 	move	a1,s1
9d00b844:	00402025 	move	a0,v0
9d00b848:	0f404bb1 	jal	9d012ec4 <__fixunsdfsi>
9d00b84c:	00602825 	move	a1,v1
9d00b850:	3c10bf80 	lui	s0,0xbf80
9d00b854:	ae023020 	sw	v0,12320(s0)
            LATAbits.LATA1 = dirxn; // set direction pin
9d00b858:	3c10bf88 	lui	s0,0xbf88
9d00b85c:	92116030 	lbu	s1,24624(s0)
9d00b860:	7e510844 	ins	s1,s2,0x1,0x1
9d00b864:	a2116030 	sb	s1,24624(s0)
            break;                 
9d00b868:	1000ffa0 	b	9d00b6ec <icontroller+0xc4>
9d00b86c:	3c10bf88 	lui	s0,0xbf88
            adcval = INA219_read_current();
9d00b870:	0f4041e1 	jal	9d010784 <INA219_read_current>
9d00b874:	00000000 	nop
9d00b878:	af828038 	sw	v0,-32712(gp)
            struct cont_dat curr = get_cont();
9d00b87c:	0f404223 	jal	9d01088c <get_cont>
9d00b880:	27c40010 	addiu	a0,s8,16
            e =  ma - adcval; // calc e
9d00b884:	8f858038 	lw	a1,-32712(gp)
9d00b888:	0f403cdd 	jal	9d00f374 <__subsf3>
9d00b88c:	8f848010 	lw	a0,-32752(gp)
9d00b890:	0f404c7b 	jal	9d0131ec <__fixsfsi>
9d00b894:	00402025 	move	a0,v0
            int eint = get_ieint() + e;
9d00b898:	0f404212 	jal	9d010848 <get_ieint>
9d00b89c:	af828034 	sw	v0,-32716(gp)
9d00b8a0:	8f838034 	lw	v1,-32716(gp)
9d00b8a4:	00431021 	addu	v0,v0,v1
9d00b8a8:	2844fc18 	slti	a0,v0,-1000
9d00b8ac:	2403fc18 	li	v1,-1000
9d00b8b0:	0064100b 	movn	v0,v1,a0
9d00b8b4:	285003e9 	slti	s0,v0,1001
9d00b8b8:	240303e8 	li	v1,1000
9d00b8bc:	0050180b 	movn	v1,v0,s0
9d00b8c0:	00608025 	move	s0,v1
            set_ieint(eint);
9d00b8c4:	0f40420f 	jal	9d01083c <set_ieint>
9d00b8c8:	00602025 	move	a0,v1
            float iKi = get_igain_ki();
9d00b8cc:	0f404209 	jal	9d010824 <get_igain_ki>
9d00b8d0:	00000000 	nop
            float iKp = get_igain_kp();
9d00b8d4:	0f40420c 	jal	9d010830 <get_igain_kp>
9d00b8d8:	00409025 	move	s2,v0
9d00b8dc:	00408825 	move	s1,v0
            float u = iKp*e + iKi*eint; // calc u    
9d00b8e0:	0f404e5b 	jal	9d01396c <__floatsisf>
9d00b8e4:	8f848034 	lw	a0,-32716(gp)
9d00b8e8:	02202825 	move	a1,s1
9d00b8ec:	0f403ee9 	jal	9d00fba4 <__mulsf3>
9d00b8f0:	00402025 	move	a0,v0
9d00b8f4:	00408825 	move	s1,v0
9d00b8f8:	0f404e5b 	jal	9d01396c <__floatsisf>
9d00b8fc:	02002025 	move	a0,s0
9d00b900:	02402825 	move	a1,s2
9d00b904:	0f403ee9 	jal	9d00fba4 <__mulsf3>
9d00b908:	00402025 	move	a0,v0
9d00b90c:	00402825 	move	a1,v0
9d00b910:	0f403cdf 	jal	9d00f37c <__addsf3>
9d00b914:	02202025 	move	a0,s1
            float unew = u + 0; // treat u as % centered at 0%
9d00b918:	00002825 	move	a1,zero
9d00b91c:	0f403cdf 	jal	9d00f37c <__addsf3>
9d00b920:	00402025 	move	a0,v0
9d00b924:	00408025 	move	s0,v0
            if (unew > 100.0){
9d00b928:	3c029d00 	lui	v0,0x9d00
9d00b92c:	8c4574bc 	lw	a1,29884(v0)
9d00b930:	0f404aad 	jal	9d012ab4 <__eqsf2>
9d00b934:	02002025 	move	a0,s0
9d00b938:	1c40004c 	bgtz	v0,9d00ba6c <icontroller+0x444>
9d00b93c:	3c029d00 	lui	v0,0x9d00
            if (unew < 0 && unew > -100.0){
9d00b940:	00002825 	move	a1,zero
9d00b944:	0f404ad4 	jal	9d012b50 <fpcmplt>
9d00b948:	02002025 	move	a0,s0
9d00b94c:	0441000a 	bgez	v0,9d00b978 <icontroller+0x350>
9d00b950:	24110001 	li	s1,1
9d00b954:	3c029d00 	lui	v0,0x9d00
9d00b958:	8c4574c0 	lw	a1,29888(v0)
9d00b95c:	0f404aad 	jal	9d012ab4 <__eqsf2>
9d00b960:	02002025 	move	a0,s0
9d00b964:	18400004 	blez	v0,9d00b978 <icontroller+0x350>
9d00b968:	24110001 	li	s1,1
                unew = -unew;
9d00b96c:	3c028000 	lui	v0,0x8000
9d00b970:	00508026 	xor	s0,v0,s0
                dirxn = 0;  //unsure
9d00b974:	00008825 	move	s1,zero
            if (unew < -100.0){
9d00b978:	3c029d00 	lui	v0,0x9d00
9d00b97c:	8c4574c0 	lw	a1,29888(v0)
9d00b980:	0f404ad4 	jal	9d012b50 <fpcmplt>
9d00b984:	02002025 	move	a0,s0
9d00b988:	04410003 	bgez	v0,9d00b998 <icontroller+0x370>
9d00b98c:	3c029d00 	lui	v0,0x9d00
                unew = 100.0;
9d00b990:	8c5074bc 	lw	s0,29884(v0)
                dirxn = 0;  //unsure
9d00b994:	00008825 	move	s1,zero
            OC1RS = (unsigned int) ((unew/100.0) * PR3); // set duty based on PWM
9d00b998:	3c02bf80 	lui	v0,0xbf80
9d00b99c:	8c540a20 	lw	s4,2592(v0)
9d00b9a0:	0f40498c 	jal	9d012630 <__extendsfdf2>
9d00b9a4:	02002025 	move	a0,s0
9d00b9a8:	3c049d00 	lui	a0,0x9d00
9d00b9ac:	8c8674c8 	lw	a2,29896(a0)
9d00b9b0:	8c8774cc 	lw	a3,29900(a0)
9d00b9b4:	00402025 	move	a0,v0
9d00b9b8:	0f403064 	jal	9d00c190 <__divdf3>
9d00b9bc:	00602825 	move	a1,v1
9d00b9c0:	00409025 	move	s2,v0
9d00b9c4:	00609825 	move	s3,v1
9d00b9c8:	0f404fff 	jal	9d013ffc <__floatunsidf>
9d00b9cc:	02802025 	move	a0,s4
9d00b9d0:	00403025 	move	a2,v0
9d00b9d4:	00603825 	move	a3,v1
9d00b9d8:	02402025 	move	a0,s2
9d00b9dc:	0f4038ac 	jal	9d00e2b0 <__muldf3>
9d00b9e0:	02602825 	move	a1,s3
9d00b9e4:	00402025 	move	a0,v0
9d00b9e8:	0f404bb1 	jal	9d012ec4 <__fixunsdfsi>
9d00b9ec:	00602825 	move	a1,v1
9d00b9f0:	3c10bf80 	lui	s0,0xbf80
9d00b9f4:	ae023020 	sw	v0,12320(s0)
            LATAbits.LATA1 = dirxn; // set direction pin
9d00b9f8:	3c02bf88 	lui	v0,0xbf88
9d00b9fc:	90506030 	lbu	s0,24624(v0)
9d00ba00:	7e300844 	ins	s0,s1,0x1,0x1
9d00ba04:	a0506030 	sb	s0,24624(v0)
            if (get_stor()) {
9d00ba08:	0f404247 	jal	9d01091c <get_stor>
9d00ba0c:	00000000 	nop
9d00ba10:	1040000b 	beqz	v0,9d00ba40 <icontroller+0x418>
9d00ba14:	8f908030 	lw	s0,-32720(gp)
                if (decctr == DECIMATION) { // after DECIMATION control loops,
9d00ba18:	12000017 	beqz	s0,9d00ba78 <icontroller+0x450>
9d00ba1c:	26110001 	addiu	s1,s0,1
            decctr++;
9d00ba20:	af918030 	sw	s1,-32720(gp)
                if (plotind == PLOTPTS) { // if max number of plot points plot is reached,
9d00ba24:	8f91802c 	lw	s1,-32724(gp)
9d00ba28:	241000c8 	li	s0,200
9d00ba2c:	16300005 	bne	s1,s0,9d00ba44 <icontroller+0x41c>
9d00ba30:	8f928028 	lw	s2,-32728(gp)
                    plotind = 0; // reset the plot index
9d00ba34:	af80802c 	sw	zero,-32724(gp)
                    set_stor(0); // tell main data is ready to be sent to python
9d00ba38:	0f404244 	jal	9d010910 <set_stor>
9d00ba3c:	00002025 	move	a0,zero
            counter++; // add one to counter every time ISR is entered
9d00ba40:	8f928028 	lw	s2,-32728(gp)
9d00ba44:	26520001 	addiu	s2,s2,1
            if (counter == PLOTPTS ){
9d00ba48:	241000c8 	li	s0,200
9d00ba4c:	16500014 	bne	s2,s0,9d00baa0 <icontroller+0x478>
9d00ba50:	af928028 	sw	s2,-32728(gp)
                counter = 0; // roll the counter over when needed
9d00ba54:	af808028 	sw	zero,-32728(gp)
                ma = -ma;
9d00ba58:	8f908010 	lw	s0,-32752(gp)
9d00ba5c:	3c118000 	lui	s1,0x8000
9d00ba60:	02118026 	xor	s0,s0,s1
9d00ba64:	1000ff20 	b	9d00b6e8 <icontroller+0xc0>
9d00ba68:	af908010 	sw	s0,-32752(gp)
                unew = 100.0;
9d00ba6c:	8c5074bc 	lw	s0,29884(v0)
9d00ba70:	1000ffc9 	b	9d00b998 <icontroller+0x370>
9d00ba74:	24110001 	li	s1,1
                    set_iADC(adcval,plotind);
9d00ba78:	8f85802c 	lw	a1,-32724(gp)
9d00ba7c:	0f404235 	jal	9d0108d4 <set_iADC>
9d00ba80:	8f848038 	lw	a0,-32712(gp)
                    set_iREF(ma,plotind);
9d00ba84:	8f85802c 	lw	a1,-32724(gp)
9d00ba88:	0f40423d 	jal	9d0108f4 <set_iREF>
9d00ba8c:	8f848010 	lw	a0,-32752(gp)
                    plotind++; // increment plot data index
9d00ba90:	8f90802c 	lw	s0,-32724(gp)
9d00ba94:	26100001 	addiu	s0,s0,1
9d00ba98:	1000ffe2 	b	9d00ba24 <icontroller+0x3fc>
9d00ba9c:	af90802c 	sw	s0,-32724(gp)
            if ((counter % 25)==0){
9d00baa0:	3c1051eb 	lui	s0,0x51eb
9d00baa4:	3610851f 	ori	s0,s0,0x851f
9d00baa8:	00008812 	mflo	s1
9d00baac:	afd10c90 	sw	s1,3216(s8)
9d00bab0:	02500018 	mult	s2,s0
9d00bab4:	00008010 	mfhi	s0
9d00bab8:	001080c3 	sra	s0,s0,0x3
9d00babc:	00128fc3 	sra	s1,s2,0x1f
9d00bac0:	02118023 	subu	s0,s0,s1
9d00bac4:	00108840 	sll	s1,s0,0x1
9d00bac8:	02308821 	addu	s1,s1,s0
9d00bacc:	001188c0 	sll	s1,s1,0x3
9d00bad0:	02308021 	addu	s0,s1,s0
9d00bad4:	1650ff04 	bne	s2,s0,9d00b6e8 <icontroller+0xc0>
9d00bad8:	8f908010 	lw	s0,-32752(gp)
9d00badc:	1000ffe0 	b	9d00ba60 <icontroller+0x438>
9d00bae0:	3c118000 	lui	s1,0x8000

9d00bae4 <icontrolstartup>:

void icontrolstartup(){
9d00bae4:	27bdfff0 	addiu	sp,sp,-16
9d00bae8:	afbf000c 	sw	ra,12(sp)

    RPA0Rbits.RPA0R = 0b0101; // use pin A0 for OC1
9d00baec:	3c02bf81 	lui	v0,0xbf81
9d00baf0:	9043fb00 	lbu	v1,-1280(v0)
9d00baf4:	24050005 	li	a1,5
9d00baf8:	7ca31804 	ins	v1,a1,0x0,0x4
9d00bafc:	a043fb00 	sb	v1,-1280(v0)
    volatile int duty = 25;
9d00bb00:	24020019 	li	v0,25
9d00bb04:	afa20000 	sw	v0,0(sp)
    volatile int dir = 0;
9d00bb08:	afa00004 	sw	zero,4(sp)
    TRISAbits.TRISA1 = 0; // configure pin A1 to output dirxn
9d00bb0c:	3c02bf88 	lui	v0,0xbf88
9d00bb10:	90436010 	lbu	v1,24592(v0)
9d00bb14:	7c030844 	ins	v1,zero,0x1,0x1
9d00bb18:	a0436010 	sb	v1,24592(v0)
    
    /* 20 kHz PWM, Timer3, duty cycle 75% */
    __builtin_disable_interrupts(); // INT step 2: disable interrupts at CPU
9d00bb1c:	41626000 	di	v0
9d00bb20:	000000c0 	ehb
    T3CONbits.TCKPS = 0;    // Timer3 prescaler N=1 (1:1)
9d00bb24:	3c04bf80 	lui	a0,0xbf80
9d00bb28:	94820a00 	lhu	v0,2560(a0)
9d00bb2c:	7c023104 	ins	v0,zero,0x4,0x3
9d00bb30:	a4820a00 	sh	v0,2560(a0)
    PR3 = 2400 - 1;         // PR = PBCLK(48MHz)/20KHz(Desired PWM)-1
9d00bb34:	3c02bf80 	lui	v0,0xbf80
9d00bb38:	2403095f 	li	v1,2399
9d00bb3c:	ac430a20 	sw	v1,2592(v0)
    TMR3 = 0;               // initial TMR3 count is 0
9d00bb40:	3c02bf80 	lui	v0,0xbf80
9d00bb44:	ac400a10 	sw	zero,2576(v0)
    OC1CONbits.OCTSEL = 1; // chooses TMR3 for OC1 
9d00bb48:	3c02bf80 	lui	v0,0xbf80
9d00bb4c:	94463000 	lhu	a2,12288(v0)
9d00bb50:	24030001 	li	v1,1
9d00bb54:	7c6618c4 	ins	a2,v1,0x3,0x1
9d00bb58:	a4463000 	sh	a2,12288(v0)
    OC1CONbits.OCM = 0b110; // PWM mode without fault pin; other OC1CON bits are defaults
9d00bb5c:	94463000 	lhu	a2,12288(v0)
9d00bb60:	24070006 	li	a3,6
9d00bb64:	7ce61004 	ins	a2,a3,0x0,0x3
9d00bb68:	a4463000 	sh	a2,12288(v0)
    OC1RS = 0;              // duty cycle = OC1RS/(PR3+1) = 75%
9d00bb6c:	3c06bf80 	lui	a2,0xbf80
9d00bb70:	acc03020 	sw	zero,12320(a2)
    OC1R = 0;               // initialize before turning OC1 on; afterward it is read-only
9d00bb74:	3c06bf80 	lui	a2,0xbf80
9d00bb78:	acc03010 	sw	zero,12304(a2)
    T3CONbits.ON = 1;       // turn on Timer3
9d00bb7c:	94860a00 	lhu	a2,2560(a0)
9d00bb80:	7c667bc4 	ins	a2,v1,0xf,0x1
9d00bb84:	a4860a00 	sh	a2,2560(a0)
    OC1CONbits.ON = 1;      // turn on OC1
9d00bb88:	94443000 	lhu	a0,12288(v0)
9d00bb8c:	7c647bc4 	ins	a0,v1,0xf,0x1
9d00bb90:	a4443000 	sh	a0,12288(v0)

    // 5 Khz TMR2 ISR
    PR2 = 9600 - 1;                // set period register
9d00bb94:	3c02bf80 	lui	v0,0xbf80
9d00bb98:	2404257f 	li	a0,9599
9d00bb9c:	ac440820 	sw	a0,2080(v0)
    TMR2 = 0;                       // initialize count to 0
9d00bba0:	3c02bf80 	lui	v0,0xbf80
9d00bba4:	ac400810 	sw	zero,2064(v0)
    T2CONbits.TCKPS = 0;            // set prescaler to 1
9d00bba8:	3c02bf80 	lui	v0,0xbf80
9d00bbac:	94440800 	lhu	a0,2048(v0)
9d00bbb0:	7c043104 	ins	a0,zero,0x4,0x3
9d00bbb4:	a4440800 	sh	a0,2048(v0)
    T2CONbits.ON = 1;               // turn on Timer2
9d00bbb8:	94440800 	lhu	a0,2048(v0)
9d00bbbc:	7c647bc4 	ins	a0,v1,0xf,0x1
9d00bbc0:	a4440800 	sh	a0,2048(v0)
    IPC2bits.T2IP = 5;              // INT step 4: priority
9d00bbc4:	3c02bf88 	lui	v0,0xbf88
9d00bbc8:	8c4410b0 	lw	a0,4272(v0)
9d00bbcc:	7ca42084 	ins	a0,a1,0x2,0x3
9d00bbd0:	ac4410b0 	sw	a0,4272(v0)
    IPC2bits.T2IS = 0;              // subpriority
9d00bbd4:	8c4410b0 	lw	a0,4272(v0)
9d00bbd8:	7c040804 	ins	a0,zero,0x0,0x2
9d00bbdc:	ac4410b0 	sw	a0,4272(v0)
    IFS0bits.T2IF = 0;              // INT step 5: clear interrupt flag
9d00bbe0:	3c02bf88 	lui	v0,0xbf88
9d00bbe4:	8c441030 	lw	a0,4144(v0)
9d00bbe8:	7c044a44 	ins	a0,zero,0x9,0x1
9d00bbec:	ac441030 	sw	a0,4144(v0)
    IEC0bits.T2IE = 1;              // INT step 6: enable interrupt
9d00bbf0:	3c02bf88 	lui	v0,0xbf88
9d00bbf4:	8c441060 	lw	a0,4192(v0)
9d00bbf8:	7c644a44 	ins	a0,v1,0x9,0x1
9d00bbfc:	ac441060 	sw	a0,4192(v0)
    __builtin_enable_interrupts();  // INT step 7: enable interrupts at CPU
9d00bc00:	41626020 	ei	v0
    // end of initialize interrupt for waveform
}
9d00bc04:	8fbf000c 	lw	ra,12(sp)
9d00bc08:	03e00008 	jr	ra
9d00bc0c:	27bd0010 	addiu	sp,sp,16

Disassembly of section .text.__printf_core:

9d00bc10 <__printf_core>:
9d00bc10:	27bdff18 	addiu	sp,sp,-232
9d00bc14:	afb500d8 	sw	s5,216(sp)
9d00bc18:	3c159d00 	lui	s5,0x9d00
9d00bc1c:	afb600dc 	sw	s6,220(sp)
9d00bc20:	afb400d4 	sw	s4,212(sp)
9d00bc24:	afb300d0 	sw	s3,208(sp)
9d00bc28:	afb200cc 	sw	s2,204(sp)
9d00bc2c:	afb100c8 	sw	s1,200(sp)
9d00bc30:	afbf00e4 	sw	ra,228(sp)
9d00bc34:	afb700e0 	sw	s7,224(sp)
9d00bc38:	afb000c4 	sw	s0,196(sp)
9d00bc3c:	00809025 	move	s2,a0
9d00bc40:	00c08825 	move	s1,a2
9d00bc44:	afa500b0 	sw	a1,176(sp)
9d00bc48:	00009825 	move	s3,zero
9d00bc4c:	27b60010 	addiu	s6,sp,16
9d00bc50:	24140025 	li	s4,37
9d00bc54:	26b57670 	addiu	s5,s5,30320
9d00bc58:	8fa500b0 	lw	a1,176(sp)
9d00bc5c:	80a20000 	lb	v0,0(a1)
9d00bc60:	104000e0 	beqz	v0,9d00bfe4 <__printf_core+0x3d4>
9d00bc64:	2402ffff 	li	v0,-1
9d00bc68:	afa20094 	sw	v0,148(sp)
9d00bc6c:	24020080 	li	v0,128
9d00bc70:	afa00090 	sw	zero,144(sp)
9d00bc74:	afa00098 	sw	zero,152(sp)
9d00bc78:	afb6009c 	sw	s6,156(sp)
9d00bc7c:	afa200a0 	sw	v0,160(sp)
9d00bc80:	00008025 	move	s0,zero
9d00bc84:	00b01021 	addu	v0,a1,s0
9d00bc88:	80420000 	lb	v0,0(v0)
9d00bc8c:	10400003 	beqz	v0,9d00bc9c <__printf_core+0x8c>
9d00bc90:	00000000 	nop
9d00bc94:	5454fffb 	bnel	v0,s4,9d00bc84 <__printf_core+0x74>
9d00bc98:	26100001 	addiu	s0,s0,1
9d00bc9c:	12000006 	beqz	s0,9d00bcb8 <__printf_core+0xa8>
9d00bca0:	02003025 	move	a2,s0
9d00bca4:	0f404b8e 	jal	9d012e38 <__out>
9d00bca8:	02402025 	move	a0,s2
9d00bcac:	8fa200b0 	lw	v0,176(sp)
9d00bcb0:	00501021 	addu	v0,v0,s0
9d00bcb4:	afa200b0 	sw	v0,176(sp)
9d00bcb8:	8fb700b0 	lw	s7,176(sp)
9d00bcbc:	82e20000 	lb	v0,0(s7)
9d00bcc0:	145400c1 	bne	v0,s4,9d00bfc8 <__printf_core+0x3b8>
9d00bcc4:	26f70001 	addiu	s7,s7,1
9d00bcc8:	afb700b0 	sw	s7,176(sp)
9d00bccc:	2405002b 	li	a1,43
9d00bcd0:	2406002d 	li	a2,45
9d00bcd4:	24030030 	li	v1,48
9d00bcd8:	24070020 	li	a3,32
9d00bcdc:	24080023 	li	t0,35
9d00bce0:	8fa400b0 	lw	a0,176(sp)
9d00bce4:	80820000 	lb	v0,0(a0)
9d00bce8:	5045001b 	beql	v0,a1,9d00bd58 <__printf_core+0x148>
9d00bcec:	8fa20090 	lw	v0,144(sp)
9d00bcf0:	2849002c 	slti	t1,v0,44
9d00bcf4:	1120001e 	beqz	t1,9d00bd70 <__printf_core+0x160>
9d00bcf8:	00000000 	nop
9d00bcfc:	50470018 	beql	v0,a3,9d00bd60 <__printf_core+0x150>
9d00bd00:	8fa20090 	lw	v0,144(sp)
9d00bd04:	50480018 	beql	v0,t0,9d00bd68 <__printf_core+0x158>
9d00bd08:	8fa20090 	lw	v0,144(sp)
9d00bd0c:	2403002a 	li	v1,42
9d00bd10:	5043001e 	beql	v0,v1,9d00bd8c <__printf_core+0x17c>
9d00bd14:	8e220000 	lw	v0,0(s1)
9d00bd18:	0f404cbb 	jal	9d0132ec <atoi>
9d00bd1c:	00000000 	nop
9d00bd20:	afa20098 	sw	v0,152(sp)
9d00bd24:	8fa300b0 	lw	v1,176(sp)
9d00bd28:	80620000 	lb	v0,0(v1)
9d00bd2c:	2442ffd0 	addiu	v0,v0,-48
9d00bd30:	2c42000a 	sltiu	v0,v0,10
9d00bd34:	10400021 	beqz	v0,9d00bdbc <__printf_core+0x1ac>
9d00bd38:	24630001 	addiu	v1,v1,1
9d00bd3c:	1000fff9 	b	9d00bd24 <__printf_core+0x114>
9d00bd40:	afa300b0 	sw	v1,176(sp)
9d00bd44:	34420001 	ori	v0,v0,0x1
9d00bd48:	24840001 	addiu	a0,a0,1
9d00bd4c:	afa20090 	sw	v0,144(sp)
9d00bd50:	1000ffe3 	b	9d00bce0 <__printf_core+0xd0>
9d00bd54:	afa400b0 	sw	a0,176(sp)
9d00bd58:	1000fffb 	b	9d00bd48 <__printf_core+0x138>
9d00bd5c:	34420004 	ori	v0,v0,0x4
9d00bd60:	1000fff9 	b	9d00bd48 <__printf_core+0x138>
9d00bd64:	34420008 	ori	v0,v0,0x8
9d00bd68:	1000fff7 	b	9d00bd48 <__printf_core+0x138>
9d00bd6c:	34420010 	ori	v0,v0,0x10
9d00bd70:	5046fff4 	beql	v0,a2,9d00bd44 <__printf_core+0x134>
9d00bd74:	8fa20090 	lw	v0,144(sp)
9d00bd78:	5443ffe5 	bnel	v0,v1,9d00bd10 <__printf_core+0x100>
9d00bd7c:	2403002a 	li	v1,42
9d00bd80:	8fa20090 	lw	v0,144(sp)
9d00bd84:	1000fff0 	b	9d00bd48 <__printf_core+0x138>
9d00bd88:	34420002 	ori	v0,v0,0x2
9d00bd8c:	24840001 	addiu	a0,a0,1
9d00bd90:	afa400b0 	sw	a0,176(sp)
9d00bd94:	24430004 	addiu	v1,v0,4
9d00bd98:	8c420000 	lw	v0,0(v0)
9d00bd9c:	ae230000 	sw	v1,0(s1)
9d00bda0:	04410006 	bgez	v0,9d00bdbc <__printf_core+0x1ac>
9d00bda4:	afa20098 	sw	v0,152(sp)
9d00bda8:	8fa30090 	lw	v1,144(sp)
9d00bdac:	00021023 	negu	v0,v0
9d00bdb0:	afa20098 	sw	v0,152(sp)
9d00bdb4:	38630001 	xori	v1,v1,0x1
9d00bdb8:	afa30090 	sw	v1,144(sp)
9d00bdbc:	8fa20090 	lw	v0,144(sp)
9d00bdc0:	30430001 	andi	v1,v0,0x1
9d00bdc4:	10600002 	beqz	v1,9d00bdd0 <__printf_core+0x1c0>
9d00bdc8:	7c020844 	ins	v0,zero,0x1,0x1
9d00bdcc:	afa20090 	sw	v0,144(sp)
9d00bdd0:	8fa200b0 	lw	v0,176(sp)
9d00bdd4:	2403002e 	li	v1,46
9d00bdd8:	80440000 	lb	a0,0(v0)
9d00bddc:	1483000d 	bne	a0,v1,9d00be14 <__printf_core+0x204>
9d00bde0:	24440001 	addiu	a0,v0,1
9d00bde4:	afa00094 	sw	zero,148(sp)
9d00bde8:	afa400b0 	sw	a0,176(sp)
9d00bdec:	80450001 	lb	a1,1(v0)
9d00bdf0:	2403002a 	li	v1,42
9d00bdf4:	14a30023 	bne	a1,v1,9d00be84 <__printf_core+0x274>
9d00bdf8:	24420002 	addiu	v0,v0,2
9d00bdfc:	afa200b0 	sw	v0,176(sp)
9d00be00:	8e220000 	lw	v0,0(s1)
9d00be04:	24430004 	addiu	v1,v0,4
9d00be08:	8c420000 	lw	v0,0(v0)
9d00be0c:	ae230000 	sw	v1,0(s1)
9d00be10:	afa20094 	sw	v0,148(sp)
9d00be14:	0f404eb8 	jal	9d013ae0 <__fmt_state>
9d00be18:	27a400b0 	addiu	a0,sp,176
9d00be1c:	afa200b8 	sw	v0,184(sp)
9d00be20:	8fa200b0 	lw	v0,176(sp)
9d00be24:	0f4051de 	jal	9d014778 <tolower>
9d00be28:	80440000 	lb	a0,0(v0)
9d00be2c:	24030069 	li	v1,105
9d00be30:	10430078 	beq	v0,v1,9d00c014 <__printf_core+0x404>
9d00be34:	8fa500b8 	lw	a1,184(sp)
9d00be38:	2843006a 	slti	v1,v0,106
9d00be3c:	1060002e 	beqz	v1,9d00bef8 <__printf_core+0x2e8>
9d00be40:	24030063 	li	v1,99
9d00be44:	104300bc 	beq	v0,v1,9d00c138 <__printf_core+0x528>
9d00be48:	28430064 	slti	v1,v0,100
9d00be4c:	10600018 	beqz	v1,9d00beb0 <__printf_core+0x2a0>
9d00be50:	24030064 	li	v1,100
9d00be54:	105400c5 	beq	v0,s4,9d00c16c <__printf_core+0x55c>
9d00be58:	24030061 	li	v1,97
9d00be5c:	5043004e 	beql	v0,v1,9d00bf98 <__printf_core+0x388>
9d00be60:	02203025 	move	a2,s1
9d00be64:	24020025 	li	v0,37
9d00be68:	a3a200a8 	sb	v0,168(sp)
9d00be6c:	2402ffff 	li	v0,-1
9d00be70:	afb700b0 	sw	s7,176(sp)
9d00be74:	afa00090 	sw	zero,144(sp)
9d00be78:	afa00098 	sw	zero,152(sp)
9d00be7c:	100000b8 	b	9d00c160 <__printf_core+0x550>
9d00be80:	afa20094 	sw	v0,148(sp)
9d00be84:	0f404cbb 	jal	9d0132ec <atoi>
9d00be88:	00000000 	nop
9d00be8c:	afa20094 	sw	v0,148(sp)
9d00be90:	8fa300b0 	lw	v1,176(sp)
9d00be94:	80620000 	lb	v0,0(v1)
9d00be98:	2442ffd0 	addiu	v0,v0,-48
9d00be9c:	2c42000a 	sltiu	v0,v0,10
9d00bea0:	1040ffdc 	beqz	v0,9d00be14 <__printf_core+0x204>
9d00bea4:	24630001 	addiu	v1,v1,1
9d00bea8:	1000fff9 	b	9d00be90 <__printf_core+0x280>
9d00beac:	afa300b0 	sw	v1,176(sp)
9d00beb0:	10430058 	beq	v0,v1,9d00c014 <__printf_core+0x404>
9d00beb4:	28420068 	slti	v0,v0,104
9d00beb8:	1040ffeb 	beqz	v0,9d00be68 <__printf_core+0x258>
9d00bebc:	24020025 	li	v0,37
9d00bec0:	02203025 	move	a2,s1
9d00bec4:	0f404f24 	jal	9d013c90 <__pop_float>
9d00bec8:	27a400a8 	addiu	a0,sp,168
9d00becc:	10400096 	beqz	v0,9d00c128 <__printf_core+0x518>
9d00bed0:	8fa200b0 	lw	v0,176(sp)
9d00bed4:	27a600a8 	addiu	a2,sp,168
9d00bed8:	27a50090 	addiu	a1,sp,144
9d00bedc:	24430001 	addiu	v1,v0,1
9d00bee0:	afa300b0 	sw	v1,176(sp)
9d00bee4:	80470000 	lb	a3,0(v0)
9d00bee8:	0f402439 	jal	9d0090e4 <__fmt_fp>
9d00beec:	02402025 	move	a0,s2
9d00bef0:	10000035 	b	9d00bfc8 <__printf_core+0x3b8>
9d00bef4:	02028021 	addu	s0,s0,v0
9d00bef8:	24030070 	li	v1,112
9d00befc:	10430070 	beq	v0,v1,9d00c0c0 <__printf_core+0x4b0>
9d00bf00:	28430071 	slti	v1,v0,113
9d00bf04:	10600013 	beqz	v1,9d00bf54 <__printf_core+0x344>
9d00bf08:	2403006e 	li	v1,110
9d00bf0c:	10430082 	beq	v0,v1,9d00c118 <__printf_core+0x508>
9d00bf10:	2403006f 	li	v1,111
9d00bf14:	1443ffd4 	bne	v0,v1,9d00be68 <__printf_core+0x258>
9d00bf18:	24020025 	li	v0,37
9d00bf1c:	02203825 	move	a3,s1
9d00bf20:	00003025 	move	a2,zero
9d00bf24:	0f404022 	jal	9d010088 <__pop_int>
9d00bf28:	27a400a8 	addiu	a0,sp,168
9d00bf2c:	1040007e 	beqz	v0,9d00c128 <__printf_core+0x518>
9d00bf30:	8fa200b0 	lw	v0,176(sp)
9d00bf34:	27a600a8 	addiu	a2,sp,168
9d00bf38:	27a50090 	addiu	a1,sp,144
9d00bf3c:	24420001 	addiu	v0,v0,1
9d00bf40:	02402025 	move	a0,s2
9d00bf44:	0f404702 	jal	9d011c08 <__fmt_o>
9d00bf48:	afa200b0 	sw	v0,176(sp)
9d00bf4c:	1000001e 	b	9d00bfc8 <__printf_core+0x3b8>
9d00bf50:	02028021 	addu	s0,s0,v0
9d00bf54:	24030075 	li	v1,117
9d00bf58:	1043003c 	beq	v0,v1,9d00c04c <__printf_core+0x43c>
9d00bf5c:	24030078 	li	v1,120
9d00bf60:	10430048 	beq	v0,v1,9d00c084 <__printf_core+0x474>
9d00bf64:	24030073 	li	v1,115
9d00bf68:	1443ffbe 	bne	v0,v1,9d00be64 <__printf_core+0x254>
9d00bf6c:	24020080 	li	v0,128
9d00bf70:	14a2006d 	bne	a1,v0,9d00c128 <__printf_core+0x518>
9d00bf74:	8fa200b0 	lw	v0,176(sp)
9d00bf78:	00003825 	move	a3,zero
9d00bf7c:	24420001 	addiu	v0,v0,1
9d00bf80:	afa200b0 	sw	v0,176(sp)
9d00bf84:	8e220000 	lw	v0,0(s1)
9d00bf88:	24430004 	addiu	v1,v0,4
9d00bf8c:	ae230000 	sw	v1,0(s1)
9d00bf90:	1000005a 	b	9d00c0fc <__printf_core+0x4ec>
9d00bf94:	8c460000 	lw	a2,0(v0)
9d00bf98:	0f404f24 	jal	9d013c90 <__pop_float>
9d00bf9c:	27a400a8 	addiu	a0,sp,168
9d00bfa0:	10400061 	beqz	v0,9d00c128 <__printf_core+0x518>
9d00bfa4:	8fa200b0 	lw	v0,176(sp)
9d00bfa8:	27a600a8 	addiu	a2,sp,168
9d00bfac:	27a50090 	addiu	a1,sp,144
9d00bfb0:	24430001 	addiu	v1,v0,1
9d00bfb4:	afa300b0 	sw	v1,176(sp)
9d00bfb8:	80470000 	lb	a3,0(v0)
9d00bfbc:	0f40526c 	jal	9d0149b0 <__fmt_a>
9d00bfc0:	02402025 	move	a0,s2
9d00bfc4:	02028021 	addu	s0,s0,v0
9d00bfc8:	02708021 	addu	s0,s3,s0
9d00bfcc:	0213982a 	slt	s3,s0,s3
9d00bfd0:	1260006d 	beqz	s3,9d00c188 <__printf_core+0x578>
9d00bfd4:	3c02a000 	lui	v0,0xa000
9d00bfd8:	2403004f 	li	v1,79
9d00bfdc:	ac43107c 	sw	v1,4220(v0)
9d00bfe0:	2413ffff 	li	s3,-1
9d00bfe4:	8fbf00e4 	lw	ra,228(sp)
9d00bfe8:	02601025 	move	v0,s3
9d00bfec:	8fb700e0 	lw	s7,224(sp)
9d00bff0:	8fb600dc 	lw	s6,220(sp)
9d00bff4:	8fb500d8 	lw	s5,216(sp)
9d00bff8:	8fb400d4 	lw	s4,212(sp)
9d00bffc:	8fb300d0 	lw	s3,208(sp)
9d00c000:	8fb200cc 	lw	s2,204(sp)
9d00c004:	8fb100c8 	lw	s1,200(sp)
9d00c008:	8fb000c4 	lw	s0,196(sp)
9d00c00c:	03e00008 	jr	ra
9d00c010:	27bd00e8 	addiu	sp,sp,232
9d00c014:	02203825 	move	a3,s1
9d00c018:	24060001 	li	a2,1
9d00c01c:	0f404022 	jal	9d010088 <__pop_int>
9d00c020:	27a400a8 	addiu	a0,sp,168
9d00c024:	10400040 	beqz	v0,9d00c128 <__printf_core+0x518>
9d00c028:	8fa200b0 	lw	v0,176(sp)
9d00c02c:	27a600a8 	addiu	a2,sp,168
9d00c030:	27a50090 	addiu	a1,sp,144
9d00c034:	24420001 	addiu	v0,v0,1
9d00c038:	02402025 	move	a0,s2
9d00c03c:	0f40434a 	jal	9d010d28 <__fmt_d>
9d00c040:	afa200b0 	sw	v0,176(sp)
9d00c044:	1000ffe0 	b	9d00bfc8 <__printf_core+0x3b8>
9d00c048:	02028021 	addu	s0,s0,v0
9d00c04c:	02203825 	move	a3,s1
9d00c050:	00003025 	move	a2,zero
9d00c054:	0f404022 	jal	9d010088 <__pop_int>
9d00c058:	27a400a8 	addiu	a0,sp,168
9d00c05c:	10400032 	beqz	v0,9d00c128 <__printf_core+0x518>
9d00c060:	8fa200b0 	lw	v0,176(sp)
9d00c064:	27a600a8 	addiu	a2,sp,168
9d00c068:	27a50090 	addiu	a1,sp,144
9d00c06c:	24420001 	addiu	v0,v0,1
9d00c070:	02402025 	move	a0,s2
9d00c074:	0f40487f 	jal	9d0121fc <__fmt_u>
9d00c078:	afa200b0 	sw	v0,176(sp)
9d00c07c:	1000ffd2 	b	9d00bfc8 <__printf_core+0x3b8>
9d00c080:	02028021 	addu	s0,s0,v0
9d00c084:	02203825 	move	a3,s1
9d00c088:	00003025 	move	a2,zero
9d00c08c:	0f404022 	jal	9d010088 <__pop_int>
9d00c090:	27a400a8 	addiu	a0,sp,168
9d00c094:	10400024 	beqz	v0,9d00c128 <__printf_core+0x518>
9d00c098:	8fa200b0 	lw	v0,176(sp)
9d00c09c:	24430001 	addiu	v1,v0,1
9d00c0a0:	afa300b0 	sw	v1,176(sp)
9d00c0a4:	80470000 	lb	a3,0(v0)
9d00c0a8:	27a600a8 	addiu	a2,sp,168
9d00c0ac:	27a50090 	addiu	a1,sp,144
9d00c0b0:	0f403d7b 	jal	9d00f5ec <__fmt_x>
9d00c0b4:	02402025 	move	a0,s2
9d00c0b8:	1000ffc3 	b	9d00bfc8 <__printf_core+0x3b8>
9d00c0bc:	02028021 	addu	s0,s0,v0
9d00c0c0:	02203825 	move	a3,s1
9d00c0c4:	00003025 	move	a2,zero
9d00c0c8:	240500f0 	li	a1,240
9d00c0cc:	0f404022 	jal	9d010088 <__pop_int>
9d00c0d0:	27a400a8 	addiu	a0,sp,168
9d00c0d4:	10400014 	beqz	v0,9d00c128 <__printf_core+0x518>
9d00c0d8:	8fa200b0 	lw	v0,176(sp)
9d00c0dc:	8fa300ac 	lw	v1,172(sp)
9d00c0e0:	24420001 	addiu	v0,v0,1
9d00c0e4:	afa200b0 	sw	v0,176(sp)
9d00c0e8:	8fa200a8 	lw	v0,168(sp)
9d00c0ec:	00431025 	or	v0,v0,v1
9d00c0f0:	14400007 	bnez	v0,9d00c110 <__printf_core+0x500>
9d00c0f4:	02a03025 	move	a2,s5
9d00c0f8:	00003825 	move	a3,zero
9d00c0fc:	27a50090 	addiu	a1,sp,144
9d00c100:	0f404a0b 	jal	9d01282c <__fmt_s>
9d00c104:	02402025 	move	a0,s2
9d00c108:	1000ffaf 	b	9d00bfc8 <__printf_core+0x3b8>
9d00c10c:	02028021 	addu	s0,s0,v0
9d00c110:	1000ffe5 	b	9d00c0a8 <__printf_core+0x498>
9d00c114:	24070078 	li	a3,120
9d00c118:	02203825 	move	a3,s1
9d00c11c:	02703021 	addu	a2,s3,s0
9d00c120:	0f40477b 	jal	9d011dec <__pop_ptr>
9d00c124:	27a400a8 	addiu	a0,sp,168
9d00c128:	8fa200b0 	lw	v0,176(sp)
9d00c12c:	24420001 	addiu	v0,v0,1
9d00c130:	1000ffa5 	b	9d00bfc8 <__printf_core+0x3b8>
9d00c134:	afa200b0 	sw	v0,176(sp)
9d00c138:	24020080 	li	v0,128
9d00c13c:	14a2fffa 	bne	a1,v0,9d00c128 <__printf_core+0x518>
9d00c140:	8fa200b0 	lw	v0,176(sp)
9d00c144:	24420001 	addiu	v0,v0,1
9d00c148:	afa200b0 	sw	v0,176(sp)
9d00c14c:	8e220000 	lw	v0,0(s1)
9d00c150:	24430004 	addiu	v1,v0,4
9d00c154:	8c420000 	lw	v0,0(v0)
9d00c158:	ae230000 	sw	v1,0(s1)
9d00c15c:	a3a200a8 	sb	v0,168(sp)
9d00c160:	24070001 	li	a3,1
9d00c164:	1000ffe5 	b	9d00c0fc <__printf_core+0x4ec>
9d00c168:	27a600a8 	addiu	a2,sp,168
9d00c16c:	24020080 	li	v0,128
9d00c170:	14a2ffed 	bne	a1,v0,9d00c128 <__printf_core+0x518>
9d00c174:	8fa200b0 	lw	v0,176(sp)
9d00c178:	a3b400a8 	sb	s4,168(sp)
9d00c17c:	24420001 	addiu	v0,v0,1
9d00c180:	1000fff7 	b	9d00c160 <__printf_core+0x550>
9d00c184:	afa200b0 	sw	v0,176(sp)
9d00c188:	1000feb3 	b	9d00bc58 <__printf_core+0x48>
9d00c18c:	02009825 	move	s3,s0

Disassembly of section .text.dp32mul:

9d00c190 <__divdf3>:
9d00c190:	00055040 000a5542 00054ac0 00047d42     @P..BU...J..B}..
9d00c1a0:	012f4825 000442c0 3c0e8000 012e4825     %H/..B.....<%H..
9d00c1b0:	00076840 000d6d42 000762c0 00067d42     @h..Bm...b..B}..
9d00c1c0:	018f6025 00065ac0 018e6025 00a72826     %`...Z..%`..&(..
9d00c1d0:	00ae2824 254fffff 2de107fe 102000cb     $(....O%...-.. .
9d00c1e0:	00000000                                ....

9d00c1e4 <Dlab1>:
9d00c1e4:	25afffff 	addiu	t7,t5,-1
9d00c1e8:	2de107fe 	sltiu	at,t7,2046
9d00c1ec:	102000f4 	beqz	at,9d00c5c0 <DspecB>
9d00c1f0:	00000000 	nop

9d00c1f4 <Dlab2>:
9d00c1f4:	014d5023 	subu	t2,t2,t5
9d00c1f8:	254a03ff 	addiu	t2,t2,1023
9d00c1fc:	00084042 	srl	t0,t0,0x1
9d00c200:	00097fc0 	sll	t7,t1,0x1f
9d00c204:	010f4025 	or	t0,t0,t7
9d00c208:	00094842 	srl	t1,t1,0x1
9d00c20c:	000c3c02 	srl	a3,t4,0x10
9d00c210:	00e001f4 	teq	a3,zero,0x7
9d00c214:	0127001b 	divu	zero,t1,a3
9d00c218:	00007012 	mflo	t6
9d00c21c:	00004810 	mfhi	t1
9d00c220:	3186ffff 	andi	a2,t4,0xffff
9d00c224:	00ce0019 	multu	a2,t6
9d00c228:	00002012 	mflo	a0
9d00c22c:	00094c00 	sll	t1,t1,0x10
9d00c230:	00087c02 	srl	t7,t0,0x10
9d00c234:	012f4825 	or	t1,t1,t7
9d00c238:	0124782b 	sltu	t7,t1,a0
9d00c23c:	11e00006 	beqz	t7,9d00c258 <i20>
9d00c240:	01244823 	subu	t1,t1,a0

9d00c244 <b21>:
9d00c244:	25ceffff 	addiu	t6,t6,-1
9d00c248:	012c4821 	addu	t1,t1,t4
9d00c24c:	012c082b 	sltu	at,t1,t4
9d00c250:	1020fffc 	beqz	at,9d00c244 <b21>
9d00c254:	00000000 	nop

9d00c258 <i20>:
9d00c258:	00e001f4 	teq	a3,zero,0x7
9d00c25c:	0127001b 	divu	zero,t1,a3
9d00c260:	00003812 	mflo	a3
9d00c264:	00004810 	mfhi	t1
9d00c268:	00c70019 	multu	a2,a3
9d00c26c:	00002012 	mflo	a0
9d00c270:	00094c00 	sll	t1,t1,0x10
9d00c274:	310fffff 	andi	t7,t0,0xffff
9d00c278:	012f4825 	or	t1,t1,t7
9d00c27c:	0124782b 	sltu	t7,t1,a0
9d00c280:	11e00006 	beqz	t7,9d00c29c <i22>
9d00c284:	01244823 	subu	t1,t1,a0

9d00c288 <b23>:
9d00c288:	24e7ffff 	addiu	a3,a3,-1
9d00c28c:	012c4821 	addu	t1,t1,t4
9d00c290:	012c082b 	sltu	at,t1,t4
9d00c294:	1020fffc 	beqz	at,9d00c288 <b23>
9d00c298:	00000000 	nop

9d00c29c <i22>:
9d00c29c:	000e7400 	sll	t6,t6,0x10
9d00c2a0:	01c77021 	addu	t6,t6,a3
9d00c2a4:	01cb0019 	multu	t6,t3
9d00c2a8:	00003812 	mflo	a3
9d00c2ac:	00002010 	mfhi	a0
9d00c2b0:	24080000 	li	t0,0
9d00c2b4:	0107782b 	sltu	t7,t0,a3
9d00c2b8:	01074023 	subu	t0,t0,a3
9d00c2bc:	012f102b 	sltu	v0,t1,t7
9d00c2c0:	012f4823 	subu	t1,t1,t7
9d00c2c4:	0124782b 	sltu	t7,t1,a0
9d00c2c8:	01e27825 	or	t7,t7,v0
9d00c2cc:	11e0000b 	beqz	t7,9d00c2fc <i24>
9d00c2d0:	01244823 	subu	t1,t1,a0

9d00c2d4 <Dlab3>:
9d00c2d4:	25ceffff 	addiu	t6,t6,-1
9d00c2d8:	010b4021 	addu	t0,t0,t3
9d00c2dc:	010b782b 	sltu	t7,t0,t3
9d00c2e0:	012c4821 	addu	t1,t1,t4
9d00c2e4:	012f4821 	addu	t1,t1,t7
9d00c2e8:	112c0002 	beq	t1,t4,9d00c2f4 <L31>
9d00c2ec:	00000000 	nop
9d00c2f0:	012c782b 	sltu	t7,t1,t4

9d00c2f4 <L31>:
9d00c2f4:	11e0fff7 	beqz	t7,9d00c2d4 <Dlab3>
9d00c2f8:	00000000 	nop

9d00c2fc <i24>:
9d00c2fc:	152c0006 	bne	t1,t4,9d00c318 <i25>
9d00c300:	00000000 	nop
9d00c304:	000b2025 	or	a0,zero,t3
9d00c308:	00084825 	or	t1,zero,t0
9d00c30c:	240d0000 	li	t5,0
9d00c310:	1000002a 	b	9d00c3bc <e25>
9d00c314:	000d3825 	or	a3,zero,t5

9d00c318 <i25>:
9d00c318:	000c3c02 	srl	a3,t4,0x10
9d00c31c:	00e001f4 	teq	a3,zero,0x7
9d00c320:	0127001b 	divu	zero,t1,a3
9d00c324:	00006812 	mflo	t5
9d00c328:	00004810 	mfhi	t1
9d00c32c:	3186ffff 	andi	a2,t4,0xffff
9d00c330:	00cd0019 	multu	a2,t5
9d00c334:	00002012 	mflo	a0
9d00c338:	00094c00 	sll	t1,t1,0x10
9d00c33c:	00087c02 	srl	t7,t0,0x10
9d00c340:	012f4825 	or	t1,t1,t7
9d00c344:	0124782b 	sltu	t7,t1,a0
9d00c348:	11e00006 	beqz	t7,9d00c364 <i26>
9d00c34c:	01244823 	subu	t1,t1,a0

9d00c350 <b27>:
9d00c350:	25adffff 	addiu	t5,t5,-1
9d00c354:	012c4821 	addu	t1,t1,t4
9d00c358:	012c082b 	sltu	at,t1,t4
9d00c35c:	1020fffc 	beqz	at,9d00c350 <b27>
9d00c360:	00000000 	nop

9d00c364 <i26>:
9d00c364:	00e001f4 	teq	a3,zero,0x7
9d00c368:	0127001b 	divu	zero,t1,a3
9d00c36c:	00003812 	mflo	a3
9d00c370:	00004810 	mfhi	t1
9d00c374:	00c70019 	multu	a2,a3
9d00c378:	00002012 	mflo	a0
9d00c37c:	00094c00 	sll	t1,t1,0x10
9d00c380:	310fffff 	andi	t7,t0,0xffff
9d00c384:	012f4825 	or	t1,t1,t7
9d00c388:	0124782b 	sltu	t7,t1,a0
9d00c38c:	11e00006 	beqz	t7,9d00c3a8 <i28>
9d00c390:	01244823 	subu	t1,t1,a0

9d00c394 <b29>:
9d00c394:	24e7ffff 	addiu	a3,a3,-1
9d00c398:	012c4821 	addu	t1,t1,t4
9d00c39c:	012c082b 	sltu	at,t1,t4
9d00c3a0:	1020fffc 	beqz	at,9d00c394 <b29>
9d00c3a4:	00000000 	nop

9d00c3a8 <i28>:
9d00c3a8:	000d6c00 	sll	t5,t5,0x10
9d00c3ac:	01a76821 	addu	t5,t5,a3
9d00c3b0:	01ab0019 	multu	t5,t3
9d00c3b4:	00003812 	mflo	a3
9d00c3b8:	00002010 	mfhi	a0

9d00c3bc <e25>:
9d00c3bc:	24080000 	li	t0,0
9d00c3c0:	0107782b 	sltu	t7,t0,a3
9d00c3c4:	01074023 	subu	t0,t0,a3
9d00c3c8:	012f102b 	sltu	v0,t1,t7
9d00c3cc:	012f4823 	subu	t1,t1,t7
9d00c3d0:	0124782b 	sltu	t7,t1,a0
9d00c3d4:	01e27825 	or	t7,t7,v0
9d00c3d8:	11e0000b 	beqz	t7,9d00c408 <i30>
9d00c3dc:	01244823 	subu	t1,t1,a0

9d00c3e0 <Dlab4>:
9d00c3e0:	25adffff 	addiu	t5,t5,-1
9d00c3e4:	010b4021 	addu	t0,t0,t3
9d00c3e8:	010b782b 	sltu	t7,t0,t3
9d00c3ec:	012c4821 	addu	t1,t1,t4
9d00c3f0:	012f4821 	addu	t1,t1,t7
9d00c3f4:	112c0002 	beq	t1,t4,9d00c400 <L32>
9d00c3f8:	00000000 	nop
9d00c3fc:	012c782b 	sltu	t7,t1,t4

9d00c400 <L32>:
9d00c400:	11e0fff7 	beqz	t7,9d00c3e0 <Dlab4>
9d00c404:	00000000 	nop

9d00c408 <i30>:
9d00c408:	05c00006 	bltz	t6,9d00c424 <i31>
9d00c40c:	00000000 	nop
9d00c410:	01a0782a 	slt	t7,t5,zero
9d00c414:	01ad6821 	addu	t5,t5,t5
9d00c418:	01ce7021 	addu	t6,t6,t6
9d00c41c:	01cf7021 	addu	t6,t6,t7
9d00c420:	254affff 	addiu	t2,t2,-1

9d00c424 <i31>:
9d00c424:	01287825 	or	t7,t1,t0
9d00c428:	11e00002 	beqz	t7,9d00c434 <i32>
9d00c42c:	00000000 	nop
9d00c430:	35ad0001 	ori	t5,t5,0x1

9d00c434 <i32>:
9d00c434:	000e4825 	or	t1,zero,t6
9d00c438:	000d4025 	or	t0,zero,t5
9d00c43c:	254fffff 	addiu	t7,t2,-1
9d00c440:	2de107fe 	sltiu	at,t7,2046
9d00c444:	10200015 	beqz	at,9d00c49c <Doveund>
9d00c448:	00000000 	nop
9d00c44c:	25080400 	addiu	t0,t0,1024
9d00c450:	2d0f0400 	sltiu	t7,t0,1024
9d00c454:	012f4821 	addu	t1,t1,t7
9d00c458:	012f782b 	sltu	t7,t1,t7
9d00c45c:	014f5021 	addu	t2,t2,t7

9d00c460 <Dlab8>:
9d00c460:	00087ac2 	srl	t7,t0,0xb
9d00c464:	31ef0001 	andi	t7,t7,0x1
9d00c468:	010f4023 	subu	t0,t0,t7
9d00c46c:	000822c2 	srl	a0,t0,0xb
9d00c470:	00097d40 	sll	t7,t1,0x15
9d00c474:	008f2025 	or	a0,a0,t7
9d00c478:	00097840 	sll	t7,t1,0x1
9d00c47c:	000f7b02 	srl	t7,t7,0xc
9d00c480:	00af2825 	or	a1,a1,t7
9d00c484:	000a7d00 	sll	t7,t2,0x14
9d00c488:	00af2825 	or	a1,a1,t7

9d00c48c <Dret>:
9d00c48c:	00041025 	or	v0,zero,a0
9d00c490:	00051825 	or	v1,zero,a1

9d00c494 <D999>:
9d00c494:	03e00008 	jr	ra
9d00c498:	00000000 	nop

9d00c49c <Doveund>:
9d00c49c:	1d400044 	bgtz	t2,9d00c5b0 <Dinf>
9d00c4a0:	00000000 	nop
9d00c4a4:	240e0001 	li	t6,1
9d00c4a8:	01ca7023 	subu	t6,t6,t2

9d00c4ac <L33>:
9d00c4ac:	2dc10020 	sltiu	at,t6,32
9d00c4b0:	14200007 	bnez	at,9d00c4d0 <L34>
9d00c4b4:	00000000 	nop
9d00c4b8:	21ceffe0 	addi	t6,t6,-32
9d00c4bc:	0008202b 	sltu	a0,zero,t0
9d00c4c0:	1009000d 	beq	zero,t1,9d00c4f8 <L35>
9d00c4c4:	01244025 	or	t0,t1,a0
9d00c4c8:	1000fff8 	b	9d00c4ac <L33>
9d00c4cc:	34090000 	li	t1,0x0

9d00c4d0 <L34>:
9d00c4d0:	11c00009 	beqz	t6,9d00c4f8 <L35>
9d00c4d4:	00000000 	nop
9d00c4d8:	000e3022 	neg	a2,t6
9d00c4dc:	00c82004 	sllv	a0,t0,a2
9d00c4e0:	00c93004 	sllv	a2,t1,a2
9d00c4e4:	01c84006 	srlv	t0,t0,t6
9d00c4e8:	01c94806 	srlv	t1,t1,t6
9d00c4ec:	10800002 	beqz	a0,9d00c4f8 <L35>
9d00c4f0:	00c84025 	or	t0,a2,t0
9d00c4f4:	35080002 	ori	t0,t0,0x2

9d00c4f8 <L35>:
9d00c4f8:	25080400 	addiu	t0,t0,1024
9d00c4fc:	2d0f0400 	sltiu	t7,t0,1024
9d00c500:	012f4821 	addu	t1,t1,t7
9d00c504:	1000ffd6 	b	9d00c460 <Dlab8>
9d00c508:	000957c2 	srl	t2,t1,0x1f

9d00c50c <DspecA>:
9d00c50c:	0100782a 	slt	t7,t0,zero
9d00c510:	01084021 	addu	t0,t0,t0
9d00c514:	01294821 	addu	t1,t1,t1
9d00c518:	15400017 	bnez	t2,9d00c578 <i33>
9d00c51c:	012f4821 	addu	t1,t1,t7
9d00c520:	01287825 	or	t7,t1,t0
9d00c524:	11e00014 	beqz	t7,9d00c578 <i33>
9d00c528:	00000000 	nop
9d00c52c:	15200008 	bnez	t1,9d00c550 <L36>
9d00c530:	00000000 	nop
9d00c534:	15000003 	bnez	t0,9d00c544 <L37>
9d00c538:	00000000 	nop
9d00c53c:	1000ff29 	b	9d00c1e4 <Dlab1>
9d00c540:	240a0000 	li	t2,0

9d00c544 <L37>:
9d00c544:	01004825 	move	t1,t0
9d00c548:	24080000 	li	t0,0
9d00c54c:	254affe0 	addiu	t2,t2,-32

9d00c550 <L36>:
9d00c550:	712e7020 	clz	t6,t1
9d00c554:	11c0ff23 	beqz	t6,9d00c1e4 <Dlab1>
9d00c558:	00000000 	nop
9d00c55c:	014e5023 	subu	t2,t2,t6
9d00c560:	000e3022 	neg	a2,t6
9d00c564:	00c83006 	srlv	a2,t0,a2
9d00c568:	01c84004 	sllv	t0,t0,t6
9d00c56c:	01c94804 	sllv	t1,t1,t6
9d00c570:	1000ff1c 	b	9d00c1e4 <Dlab1>
9d00c574:	01264825 	or	t1,t1,a2

9d00c578 <i33>:
9d00c578:	154d0005 	bne	t2,t5,9d00c590 <i35>
9d00c57c:	00000000 	nop
9d00c580:	000c7840 	sll	t7,t4,0x1
9d00c584:	01eb7825 	or	t7,t7,t3
9d00c588:	11e0002b 	beqz	t7,9d00c638 <Dnan>
9d00c58c:	00000000 	nop

9d00c590 <i35>:
9d00c590:	240107ff 	li	at,2047
9d00c594:	11a1000a 	beq	t5,at,9d00c5c0 <DspecB>
9d00c598:	00000000 	nop
9d00c59c:	1140ffbb 	beqz	t2,9d00c48c <Dret>
9d00c5a0:	00000000 	nop
9d00c5a4:	01287825 	or	t7,t1,t0
9d00c5a8:	15e00023 	bnez	t7,9d00c638 <Dnan>
9d00c5ac:	00000000 	nop

9d00c5b0 <Dinf>:
9d00c5b0:	3c017ff0 	lui	at,0x7ff0
9d00c5b4:	00a12825 	or	a1,a1,at
9d00c5b8:	1000ffb4 	b	9d00c48c <Dret>
9d00c5bc:	24040000 	li	a0,0

9d00c5c0 <DspecB>:
9d00c5c0:	0160782a 	slt	t7,t3,zero
9d00c5c4:	016b5821 	addu	t3,t3,t3
9d00c5c8:	018c6021 	addu	t4,t4,t4
9d00c5cc:	15a00017 	bnez	t5,9d00c62c <i36>
9d00c5d0:	018f6021 	addu	t4,t4,t7
9d00c5d4:	018b7825 	or	t7,t4,t3
9d00c5d8:	11e0fff5 	beqz	t7,9d00c5b0 <Dinf>
9d00c5dc:	00000000 	nop
9d00c5e0:	15800008 	bnez	t4,9d00c604 <L39>
9d00c5e4:	00000000 	nop
9d00c5e8:	15600003 	bnez	t3,9d00c5f8 <L40>
9d00c5ec:	00000000 	nop
9d00c5f0:	1000ff00 	b	9d00c1f4 <Dlab2>
9d00c5f4:	240d0000 	li	t5,0

9d00c5f8 <L40>:
9d00c5f8:	01606025 	move	t4,t3
9d00c5fc:	240b0000 	li	t3,0
9d00c600:	25adffe0 	addiu	t5,t5,-32

9d00c604 <L39>:
9d00c604:	718e7020 	clz	t6,t4
9d00c608:	11c0fefa 	beqz	t6,9d00c1f4 <Dlab2>
9d00c60c:	00000000 	nop
9d00c610:	01ae6823 	subu	t5,t5,t6
9d00c614:	000e3022 	neg	a2,t6
9d00c618:	00cb3006 	srlv	a2,t3,a2
9d00c61c:	01cb5804 	sllv	t3,t3,t6
9d00c620:	01cc6004 	sllv	t4,t4,t6
9d00c624:	1000fef3 	b	9d00c1f4 <Dlab2>
9d00c628:	01866025 	or	t4,t4,a2

9d00c62c <i36>:
9d00c62c:	018b7825 	or	t7,t4,t3
9d00c630:	11e00002 	beqz	t7,9d00c63c <i38>
9d00c634:	00000000 	nop

9d00c638 <Dnan>:
9d00c638:	3c05fff8 	lui	a1,0xfff8

9d00c63c <i38>:
9d00c63c:	1000ff93 	b	9d00c48c <Dret>
9d00c640:	24040000 	li	a0,0
9d00c644:	00000000 	nop

Disassembly of section .text.dreml:

9d00c648 <dreml>:
9d00c648:	27bdffa8 	addiu	sp,sp,-88
9d00c64c:	afa70064 	sw	a3,100(sp)
9d00c650:	afa5005c 	sw	a1,92(sp)
9d00c654:	afbe0050 	sw	s8,80(sp)
9d00c658:	afb10034 	sw	s1,52(sp)
9d00c65c:	97be005e 	lhu	s8,94(sp)
9d00c660:	97b10066 	lhu	s1,102(sp)
9d00c664:	afb40040 	sw	s4,64(sp)
9d00c668:	afb00030 	sw	s0,48(sp)
9d00c66c:	24147ff0 	li	s4,32752
9d00c670:	32307fff 	andi	s0,s1,0x7fff
9d00c674:	33c27ff0 	andi	v0,s8,0x7ff0
9d00c678:	afbf0054 	sw	ra,84(sp)
9d00c67c:	afb7004c 	sw	s7,76(sp)
9d00c680:	afb60048 	sw	s6,72(sp)
9d00c684:	afb50044 	sw	s5,68(sp)
9d00c688:	afb3003c 	sw	s3,60(sp)
9d00c68c:	afb20038 	sw	s2,56(sp)
9d00c690:	afa60060 	sw	a2,96(sp)
9d00c694:	afa40058 	sw	a0,88(sp)
9d00c698:	105400a6 	beq	v0,s4,9d00c934 <dreml+0x2ec>
9d00c69c:	a7b00066 	sh	s0,102(sp)
9d00c6a0:	8fb20060 	lw	s2,96(sp)
9d00c6a4:	8fb30064 	lw	s3,100(sp)
9d00c6a8:	00003025 	move	a2,zero
9d00c6ac:	00003825 	move	a3,zero
9d00c6b0:	02402025 	move	a0,s2
9d00c6b4:	0f40448e 	jal	9d011238 <__eqdf2>
9d00c6b8:	02602825 	move	a1,s3
9d00c6bc:	10400088 	beqz	v0,9d00c8e0 <dreml+0x298>
9d00c6c0:	32317ff0 	andi	s1,s1,0x7ff0
9d00c6c4:	123400b3 	beq	s1,s4,9d00c994 <dreml+0x34c>
9d00c6c8:	00108103 	sra	s0,s0,0x4
9d00c6cc:	321007fe 	andi	s0,s0,0x7fe
9d00c6d0:	120000cb 	beqz	s0,9d00ca00 <dreml+0x3b8>
9d00c6d4:	3c109d00 	lui	s0,0x9d00
9d00c6d8:	8e067700 	lw	a2,30464(s0)
9d00c6dc:	8e077704 	lw	a3,30468(s0)
9d00c6e0:	02402025 	move	a0,s2
9d00c6e4:	0f4038ac 	jal	9d00e2b0 <__muldf3>
9d00c6e8:	02602825 	move	a1,s3
9d00c6ec:	afa20020 	sw	v0,32(sp)
9d00c6f0:	3c029d00 	lui	v0,0x9d00
9d00c6f4:	8c467708 	lw	a2,30472(v0)
9d00c6f8:	8c47770c 	lw	a3,30476(v0)
9d00c6fc:	02402025 	move	a0,s2
9d00c700:	02602825 	move	a1,s3
9d00c704:	0f40448e 	jal	9d011238 <__eqdf2>
9d00c708:	afa30024 	sw	v1,36(sp)
9d00c70c:	044100aa 	bgez	v0,9d00c9b8 <dreml+0x370>
9d00c710:	33c87fff 	andi	t0,s8,0x7fff
9d00c714:	02403025 	move	a2,s2
9d00c718:	02603825 	move	a3,s3
9d00c71c:	02402025 	move	a0,s2
9d00c720:	02602825 	move	a1,s3
9d00c724:	0f4034c7 	jal	9d00d31c <__adddf3>
9d00c728:	afa80018 	sw	t0,24(sp)
9d00c72c:	8fa80018 	lw	t0,24(sp)
9d00c730:	8fb00058 	lw	s0,88(sp)
9d00c734:	7c1e7004 	ins	s8,zero,0x0,0xf
9d00c738:	a7a8005e 	sh	t0,94(sp)
9d00c73c:	8fb1005c 	lw	s1,92(sp)
9d00c740:	00402025 	move	a0,v0
9d00c744:	0040a825 	move	s5,v0
9d00c748:	00602825 	move	a1,v1
9d00c74c:	7c1e1620 	seh	v0,s8
9d00c750:	02003025 	move	a2,s0
9d00c754:	02203825 	move	a3,s1
9d00c758:	0003b402 	srl	s6,v1,0x10
9d00c75c:	0060a025 	move	s4,v1
9d00c760:	0f4044d9 	jal	9d011364 <dpcmplt>
9d00c764:	afa20028 	sw	v0,40(sp)
9d00c768:	32d77ff0 	andi	s7,s6,0x7ff0
9d00c76c:	04400003 	bltz	v0,9d00c77c <dreml+0x134>
9d00c770:	8fa80018 	lw	t0,24(sp)
9d00c774:	10000029 	b	9d00c81c <dreml+0x1d4>
9d00c778:	8fb40020 	lw	s4,32(sp)
9d00c77c:	31037ff0 	andi	v1,t0,0x7ff0
9d00c780:	02c31821 	addu	v1,s6,v1
9d00c784:	00771823 	subu	v1,v1,s7
9d00c788:	307effff 	andi	s8,v1,0xffff
9d00c78c:	afb40014 	sw	s4,20(sp)
9d00c790:	afb50010 	sw	s5,16(sp)
9d00c794:	a7be0016 	sh	s8,22(sp)
9d00c798:	8fa80010 	lw	t0,16(sp)
9d00c79c:	8fa90014 	lw	t1,20(sp)
9d00c7a0:	02003025 	move	a2,s0
9d00c7a4:	01002025 	move	a0,t0
9d00c7a8:	01202825 	move	a1,t1
9d00c7ac:	02203825 	move	a3,s1
9d00c7b0:	afa80018 	sw	t0,24(sp)
9d00c7b4:	0f40448e 	jal	9d011238 <__eqdf2>
9d00c7b8:	afa9001c 	sw	t1,28(sp)
9d00c7bc:	02002025 	move	a0,s0
9d00c7c0:	02202825 	move	a1,s1
9d00c7c4:	27c3fff0 	addiu	v1,s8,-16
9d00c7c8:	8fa80018 	lw	t0,24(sp)
9d00c7cc:	18400004 	blez	v0,9d00c7e0 <dreml+0x198>
9d00c7d0:	8fa9001c 	lw	t1,28(sp)
9d00c7d4:	a7a30016 	sh	v1,22(sp)
9d00c7d8:	8fa80010 	lw	t0,16(sp)
9d00c7dc:	8fa90014 	lw	t1,20(sp)
9d00c7e0:	01003025 	move	a2,t0
9d00c7e4:	0f4034c5 	jal	9d00d314 <__subdf3>
9d00c7e8:	01203825 	move	a3,t1
9d00c7ec:	00403025 	move	a2,v0
9d00c7f0:	02a02025 	move	a0,s5
9d00c7f4:	02802825 	move	a1,s4
9d00c7f8:	00603825 	move	a3,v1
9d00c7fc:	00408025 	move	s0,v0
9d00c800:	00608825 	move	s1,v1
9d00c804:	afa20058 	sw	v0,88(sp)
9d00c808:	0f4044d9 	jal	9d011364 <dpcmplt>
9d00c80c:	afa3005c 	sw	v1,92(sp)
9d00c810:	0440ffda 	bltz	v0,9d00c77c <dreml+0x134>
9d00c814:	97a8005e 	lhu	t0,94(sp)
9d00c818:	8fb40020 	lw	s4,32(sp)
9d00c81c:	8fb50024 	lw	s5,36(sp)
9d00c820:	02002025 	move	a0,s0
9d00c824:	02803025 	move	a2,s4
9d00c828:	02a03825 	move	a3,s5
9d00c82c:	0f40448e 	jal	9d011238 <__eqdf2>
9d00c830:	02202825 	move	a1,s1
9d00c834:	18400017 	blez	v0,9d00c894 <dreml+0x24c>
9d00c838:	97a2005e 	lhu	v0,94(sp)
9d00c83c:	02002025 	move	a0,s0
9d00c840:	02202825 	move	a1,s1
9d00c844:	02403025 	move	a2,s2
9d00c848:	0f4034c5 	jal	9d00d314 <__subdf3>
9d00c84c:	02603825 	move	a3,s3
9d00c850:	00402025 	move	a0,v0
9d00c854:	02803025 	move	a2,s4
9d00c858:	02a03825 	move	a3,s5
9d00c85c:	00602825 	move	a1,v1
9d00c860:	00408025 	move	s0,v0
9d00c864:	0f40448e 	jal	9d011238 <__eqdf2>
9d00c868:	00608825 	move	s1,v1
9d00c86c:	04420089 	bltzl	v0,9d00ca94 <dreml+0x44c>
9d00c870:	afb00058 	sw	s0,88(sp)
9d00c874:	02403025 	move	a2,s2
9d00c878:	02603825 	move	a3,s3
9d00c87c:	02002025 	move	a0,s0
9d00c880:	0f4034c5 	jal	9d00d314 <__subdf3>
9d00c884:	02202825 	move	a1,s1
9d00c888:	afa20058 	sw	v0,88(sp)
9d00c88c:	afa3005c 	sw	v1,92(sp)
9d00c890:	97a2005e 	lhu	v0,94(sp)
9d00c894:	8fa30028 	lw	v1,40(sp)
9d00c898:	0062f026 	xor	s8,v1,v0
9d00c89c:	a7be005e 	sh	s8,94(sp)
9d00c8a0:	8fb20058 	lw	s2,88(sp)
9d00c8a4:	8fb3005c 	lw	s3,92(sp)
9d00c8a8:	8fbf0054 	lw	ra,84(sp)
9d00c8ac:	02401025 	move	v0,s2
9d00c8b0:	02601825 	move	v1,s3
9d00c8b4:	8fbe0050 	lw	s8,80(sp)
9d00c8b8:	8fb7004c 	lw	s7,76(sp)
9d00c8bc:	8fb60048 	lw	s6,72(sp)
9d00c8c0:	8fb50044 	lw	s5,68(sp)
9d00c8c4:	8fb40040 	lw	s4,64(sp)
9d00c8c8:	8fb3003c 	lw	s3,60(sp)
9d00c8cc:	8fb20038 	lw	s2,56(sp)
9d00c8d0:	8fb10034 	lw	s1,52(sp)
9d00c8d4:	8fb00030 	lw	s0,48(sp)
9d00c8d8:	03e00008 	jr	ra
9d00c8dc:	27bd0058 	addiu	sp,sp,88
9d00c8e0:	00003025 	move	a2,zero
9d00c8e4:	00003825 	move	a3,zero
9d00c8e8:	00c02025 	move	a0,a2
9d00c8ec:	0f403064 	jal	9d00c190 <__divdf3>
9d00c8f0:	00e02825 	move	a1,a3
9d00c8f4:	00409025 	move	s2,v0
9d00c8f8:	00609825 	move	s3,v1
9d00c8fc:	8fbf0054 	lw	ra,84(sp)
9d00c900:	02401025 	move	v0,s2
9d00c904:	02601825 	move	v1,s3
9d00c908:	8fbe0050 	lw	s8,80(sp)
9d00c90c:	8fb7004c 	lw	s7,76(sp)
9d00c910:	8fb60048 	lw	s6,72(sp)
9d00c914:	8fb50044 	lw	s5,68(sp)
9d00c918:	8fb40040 	lw	s4,64(sp)
9d00c91c:	8fb3003c 	lw	s3,60(sp)
9d00c920:	8fb20038 	lw	s2,56(sp)
9d00c924:	8fb10034 	lw	s1,52(sp)
9d00c928:	8fb00030 	lw	s0,48(sp)
9d00c92c:	03e00008 	jr	ra
9d00c930:	27bd0058 	addiu	sp,sp,88
9d00c934:	8fa60060 	lw	a2,96(sp)
9d00c938:	0f4034c5 	jal	9d00d314 <__subdf3>
9d00c93c:	8fa70064 	lw	a3,100(sp)
9d00c940:	00403025 	move	a2,v0
9d00c944:	00603825 	move	a3,v1
9d00c948:	00402025 	move	a0,v0
9d00c94c:	0f4034c5 	jal	9d00d314 <__subdf3>
9d00c950:	00602825 	move	a1,v1
9d00c954:	8fbf0054 	lw	ra,84(sp)
9d00c958:	00409025 	move	s2,v0
9d00c95c:	00609825 	move	s3,v1
9d00c960:	02401025 	move	v0,s2
9d00c964:	02601825 	move	v1,s3
9d00c968:	8fbe0050 	lw	s8,80(sp)
9d00c96c:	8fb7004c 	lw	s7,76(sp)
9d00c970:	8fb60048 	lw	s6,72(sp)
9d00c974:	8fb50044 	lw	s5,68(sp)
9d00c978:	8fb40040 	lw	s4,64(sp)
9d00c97c:	8fb3003c 	lw	s3,60(sp)
9d00c980:	8fb20038 	lw	s2,56(sp)
9d00c984:	8fb10034 	lw	s1,52(sp)
9d00c988:	8fb00030 	lw	s0,48(sp)
9d00c98c:	03e00008 	jr	ra
9d00c990:	27bd0058 	addiu	sp,sp,88
9d00c994:	02403025 	move	a2,s2
9d00c998:	02603825 	move	a3,s3
9d00c99c:	02402025 	move	a0,s2
9d00c9a0:	0f40448e 	jal	9d011238 <__eqdf2>
9d00c9a4:	02602825 	move	a1,s3
9d00c9a8:	1440ffd5 	bnez	v0,9d00c900 <dreml+0x2b8>
9d00c9ac:	8fbf0054 	lw	ra,84(sp)
9d00c9b0:	1000ffbc 	b	9d00c8a4 <dreml+0x25c>
9d00c9b4:	8fb20058 	lw	s2,88(sp)
9d00c9b8:	8e067700 	lw	a2,30464(s0)
9d00c9bc:	8e077704 	lw	a3,30468(s0)
9d00c9c0:	8fa40058 	lw	a0,88(sp)
9d00c9c4:	0f4038ac 	jal	9d00e2b0 <__muldf3>
9d00c9c8:	8fa5005c 	lw	a1,92(sp)
9d00c9cc:	8fa60020 	lw	a2,32(sp)
9d00c9d0:	8fa70024 	lw	a3,36(sp)
9d00c9d4:	00402025 	move	a0,v0
9d00c9d8:	0f403192 	jal	9d00c648 <dreml>
9d00c9dc:	00602825 	move	a1,v1
9d00c9e0:	00403025 	move	a2,v0
9d00c9e4:	00603825 	move	a3,v1
9d00c9e8:	00402025 	move	a0,v0
9d00c9ec:	0f4034c7 	jal	9d00d31c <__adddf3>
9d00c9f0:	00602825 	move	a1,v1
9d00c9f4:	00409025 	move	s2,v0
9d00c9f8:	1000ffc0 	b	9d00c8fc <dreml+0x2b4>
9d00c9fc:	00609825 	move	s3,v1
9d00ca00:	3c029d00 	lui	v0,0x9d00
9d00ca04:	8c4476f8 	lw	a0,30456(v0)
9d00ca08:	8c4576fc 	lw	a1,30460(v0)
9d00ca0c:	0f40413e 	jal	9d0104f8 <__mchp_ldexp>
9d00ca10:	24060036 	li	a2,54
9d00ca14:	00403025 	move	a2,v0
9d00ca18:	02402025 	move	a0,s2
9d00ca1c:	02602825 	move	a1,s3
9d00ca20:	00603825 	move	a3,v1
9d00ca24:	00408025 	move	s0,v0
9d00ca28:	0f4038ac 	jal	9d00e2b0 <__muldf3>
9d00ca2c:	00608825 	move	s1,v1
9d00ca30:	8fa40058 	lw	a0,88(sp)
9d00ca34:	8fa5005c 	lw	a1,92(sp)
9d00ca38:	00403025 	move	a2,v0
9d00ca3c:	00603825 	move	a3,v1
9d00ca40:	00409025 	move	s2,v0
9d00ca44:	0f403192 	jal	9d00c648 <dreml>
9d00ca48:	00609825 	move	s3,v1
9d00ca4c:	00402025 	move	a0,v0
9d00ca50:	02003025 	move	a2,s0
9d00ca54:	02203825 	move	a3,s1
9d00ca58:	0f4038ac 	jal	9d00e2b0 <__muldf3>
9d00ca5c:	00602825 	move	a1,v1
9d00ca60:	00402025 	move	a0,v0
9d00ca64:	02403025 	move	a2,s2
9d00ca68:	02603825 	move	a3,s3
9d00ca6c:	0f403192 	jal	9d00c648 <dreml>
9d00ca70:	00602825 	move	a1,v1
9d00ca74:	00402025 	move	a0,v0
9d00ca78:	02003025 	move	a2,s0
9d00ca7c:	02203825 	move	a3,s1
9d00ca80:	0f403064 	jal	9d00c190 <__divdf3>
9d00ca84:	00602825 	move	a1,v1
9d00ca88:	00409025 	move	s2,v0
9d00ca8c:	1000ff9b 	b	9d00c8fc <dreml+0x2b4>
9d00ca90:	00609825 	move	s3,v1
9d00ca94:	1000ff7e 	b	9d00c890 <dreml+0x248>
9d00ca98:	afb1005c 	sw	s1,92(sp)

Disassembly of section .text:

9d00ca9c <__divdi3>:
9d00ca9c:	04a10007 	bgez	a1,9d00cabc <__divdi3+0x20>
9d00caa0:	00005025 	move	t2,zero
9d00caa4:	00041023 	negu	v0,a0
9d00caa8:	0002182b 	sltu	v1,zero,v0
9d00caac:	00052823 	negu	a1,a1
9d00cab0:	00402025 	move	a0,v0
9d00cab4:	00a32823 	subu	a1,a1,v1
9d00cab8:	240affff 	li	t2,-1
9d00cabc:	04e10008 	bgez	a3,9d00cae0 <__divdi3+0x44>
9d00cac0:	00c04025 	move	t0,a2
9d00cac4:	00061023 	negu	v0,a2
9d00cac8:	0002182b 	sltu	v1,zero,v0
9d00cacc:	00073823 	negu	a3,a3
9d00cad0:	000a5027 	nor	t2,zero,t2
9d00cad4:	00403025 	move	a2,v0
9d00cad8:	00e33823 	subu	a3,a3,v1
9d00cadc:	00c04025 	move	t0,a2
9d00cae0:	00e01825 	move	v1,a3
9d00cae4:	00804825 	move	t1,a0
9d00cae8:	14e000ab 	bnez	a3,9d00cd98 <__divdi3+0x2fc>
9d00caec:	00a01025 	move	v0,a1
9d00caf0:	00a6302b 	sltu	a2,a1,a2
9d00caf4:	10c0003c 	beqz	a2,9d00cbe8 <__divdi3+0x14c>
9d00caf8:	00000000 	nop
9d00cafc:	71052820 	clz	a1,t0
9d00cb00:	10a00006 	beqz	a1,9d00cb1c <__divdi3+0x80>
9d00cb04:	00a22004 	sllv	a0,v0,a1
9d00cb08:	00051023 	negu	v0,a1
9d00cb0c:	00491006 	srlv	v0,t1,v0
9d00cb10:	00a84004 	sllv	t0,t0,a1
9d00cb14:	00441025 	or	v0,v0,a0
9d00cb18:	00a94804 	sllv	t1,t1,a1
9d00cb1c:	00083402 	srl	a2,t0,0x10
9d00cb20:	0046001b 	divu	zero,v0,a2
9d00cb24:	00c001f4 	teq	a2,zero,0x7
9d00cb28:	310bffff 	andi	t3,t0,0xffff
9d00cb2c:	00091402 	srl	v0,t1,0x10
9d00cb30:	00003812 	mflo	a3
9d00cb34:	00002010 	mfhi	a0
9d00cb38:	00042400 	sll	a0,a0,0x10
9d00cb3c:	00821025 	or	v0,a0,v0
9d00cb40:	71676002 	mul	t4,t3,a3
9d00cb44:	004c202b 	sltu	a0,v0,t4
9d00cb48:	1080000a 	beqz	a0,9d00cb74 <__divdi3+0xd8>
9d00cb4c:	00e02825 	move	a1,a3
9d00cb50:	00481021 	addu	v0,v0,t0
9d00cb54:	0048202b 	sltu	a0,v0,t0
9d00cb58:	14800006 	bnez	a0,9d00cb74 <__divdi3+0xd8>
9d00cb5c:	24e5ffff 	addiu	a1,a3,-1
9d00cb60:	004c202b 	sltu	a0,v0,t4
9d00cb64:	50800004 	beqzl	a0,9d00cb78 <__divdi3+0xdc>
9d00cb68:	004c1023 	subu	v0,v0,t4
9d00cb6c:	24e5fffe 	addiu	a1,a3,-2
9d00cb70:	00481021 	addu	v0,v0,t0
9d00cb74:	004c1023 	subu	v0,v0,t4
9d00cb78:	0046001b 	divu	zero,v0,a2
9d00cb7c:	00c001f4 	teq	a2,zero,0x7
9d00cb80:	3129ffff 	andi	t1,t1,0xffff
9d00cb84:	00001012 	mflo	v0
9d00cb88:	00003010 	mfhi	a2
9d00cb8c:	00063400 	sll	a2,a2,0x10
9d00cb90:	00c94825 	or	t1,a2,t1
9d00cb94:	71625802 	mul	t3,t3,v0
9d00cb98:	012b302b 	sltu	a2,t1,t3
9d00cb9c:	10c00008 	beqz	a2,9d00cbc0 <__divdi3+0x124>
9d00cba0:	00402025 	move	a0,v0
9d00cba4:	01094821 	addu	t1,t0,t1
9d00cba8:	0128402b 	sltu	t0,t1,t0
9d00cbac:	15000004 	bnez	t0,9d00cbc0 <__divdi3+0x124>
9d00cbb0:	2444ffff 	addiu	a0,v0,-1
9d00cbb4:	012b482b 	sltu	t1,t1,t3
9d00cbb8:	55200001 	bnezl	t1,9d00cbc0 <__divdi3+0x124>
9d00cbbc:	2444fffe 	addiu	a0,v0,-2
9d00cbc0:	00051400 	sll	v0,a1,0x10
9d00cbc4:	00441025 	or	v0,v0,a0
9d00cbc8:	11400005 	beqz	t2,9d00cbe0 <__divdi3+0x144>
9d00cbcc:	00000000 	nop
9d00cbd0:	00021023 	negu	v0,v0
9d00cbd4:	0002202b 	sltu	a0,zero,v0
9d00cbd8:	00031823 	negu	v1,v1
9d00cbdc:	00641823 	subu	v1,v1,a0
9d00cbe0:	03e00008 	jr	ra
9d00cbe4:	00000000 	nop
9d00cbe8:	15000006 	bnez	t0,9d00cc04 <__divdi3+0x168>
9d00cbec:	710b5820 	clz	t3,t0
9d00cbf0:	24080001 	li	t0,1
9d00cbf4:	0107001b 	divu	zero,t0,a3
9d00cbf8:	00e001f4 	teq	a3,zero,0x7
9d00cbfc:	00004012 	mflo	t0
9d00cc00:	710b5820 	clz	t3,t0
9d00cc04:	1560002d 	bnez	t3,9d00ccbc <__divdi3+0x220>
9d00cc08:	24030001 	li	v1,1
9d00cc0c:	00a82823 	subu	a1,a1,t0
9d00cc10:	00083c02 	srl	a3,t0,0x10
9d00cc14:	00a7001b 	divu	zero,a1,a3
9d00cc18:	00e001f4 	teq	a3,zero,0x7
9d00cc1c:	310bffff 	andi	t3,t0,0xffff
9d00cc20:	00091402 	srl	v0,t1,0x10
9d00cc24:	00002812 	mflo	a1
9d00cc28:	00002010 	mfhi	a0
9d00cc2c:	00042400 	sll	a0,a0,0x10
9d00cc30:	00821025 	or	v0,a0,v0
9d00cc34:	71656002 	mul	t4,t3,a1
9d00cc38:	004c202b 	sltu	a0,v0,t4
9d00cc3c:	1080000a 	beqz	a0,9d00cc68 <__divdi3+0x1cc>
9d00cc40:	00a03025 	move	a2,a1
9d00cc44:	00481021 	addu	v0,v0,t0
9d00cc48:	0048202b 	sltu	a0,v0,t0
9d00cc4c:	14800006 	bnez	a0,9d00cc68 <__divdi3+0x1cc>
9d00cc50:	24a6ffff 	addiu	a2,a1,-1
9d00cc54:	004c202b 	sltu	a0,v0,t4
9d00cc58:	50800004 	beqzl	a0,9d00cc6c <__divdi3+0x1d0>
9d00cc5c:	004c1023 	subu	v0,v0,t4
9d00cc60:	24a6fffe 	addiu	a2,a1,-2
9d00cc64:	00481021 	addu	v0,v0,t0
9d00cc68:	004c1023 	subu	v0,v0,t4
9d00cc6c:	0047001b 	divu	zero,v0,a3
9d00cc70:	00e001f4 	teq	a3,zero,0x7
9d00cc74:	3129ffff 	andi	t1,t1,0xffff
9d00cc78:	00001012 	mflo	v0
9d00cc7c:	00003810 	mfhi	a3
9d00cc80:	00073c00 	sll	a3,a3,0x10
9d00cc84:	00e93825 	or	a3,a3,t1
9d00cc88:	71622802 	mul	a1,t3,v0
9d00cc8c:	00e5482b 	sltu	t1,a3,a1
9d00cc90:	11200008 	beqz	t1,9d00ccb4 <__divdi3+0x218>
9d00cc94:	00402025 	move	a0,v0
9d00cc98:	01073821 	addu	a3,t0,a3
9d00cc9c:	00e8402b 	sltu	t0,a3,t0
9d00cca0:	15000004 	bnez	t0,9d00ccb4 <__divdi3+0x218>
9d00cca4:	2444ffff 	addiu	a0,v0,-1
9d00cca8:	00e5382b 	sltu	a3,a3,a1
9d00ccac:	54e00001 	bnezl	a3,9d00ccb4 <__divdi3+0x218>
9d00ccb0:	2444fffe 	addiu	a0,v0,-2
9d00ccb4:	1000ffc3 	b	9d00cbc4 <__divdi3+0x128>
9d00ccb8:	00061400 	sll	v0,a2,0x10
9d00ccbc:	24070020 	li	a3,32
9d00ccc0:	00eb3823 	subu	a3,a3,t3
9d00ccc4:	01684004 	sllv	t0,t0,t3
9d00ccc8:	01651004 	sllv	v0,a1,t3
9d00cccc:	00081c02 	srl	v1,t0,0x10
9d00ccd0:	00e52806 	srlv	a1,a1,a3
9d00ccd4:	00a3001b 	divu	zero,a1,v1
9d00ccd8:	006001f4 	teq	v1,zero,0x7
9d00ccdc:	3106ffff 	andi	a2,t0,0xffff
9d00cce0:	00e44806 	srlv	t1,a0,a3
9d00cce4:	01224825 	or	t1,t1,v0
9d00cce8:	00091402 	srl	v0,t1,0x10
9d00ccec:	00002812 	mflo	a1
9d00ccf0:	00003810 	mfhi	a3
9d00ccf4:	00073c00 	sll	a3,a3,0x10
9d00ccf8:	00e23825 	or	a3,a3,v0
9d00ccfc:	70c56002 	mul	t4,a2,a1
9d00cd00:	00ec682b 	sltu	t5,a3,t4
9d00cd04:	11a0000a 	beqz	t5,9d00cd30 <__divdi3+0x294>
9d00cd08:	00a01025 	move	v0,a1
9d00cd0c:	00e83821 	addu	a3,a3,t0
9d00cd10:	00e8682b 	sltu	t5,a3,t0
9d00cd14:	15a00006 	bnez	t5,9d00cd30 <__divdi3+0x294>
9d00cd18:	24a2ffff 	addiu	v0,a1,-1
9d00cd1c:	00ec682b 	sltu	t5,a3,t4
9d00cd20:	51a00004 	beqzl	t5,9d00cd34 <__divdi3+0x298>
9d00cd24:	00ec3823 	subu	a3,a3,t4
9d00cd28:	24a2fffe 	addiu	v0,a1,-2
9d00cd2c:	00e83821 	addu	a3,a3,t0
9d00cd30:	00ec3823 	subu	a3,a3,t4
9d00cd34:	00e3001b 	divu	zero,a3,v1
9d00cd38:	006001f4 	teq	v1,zero,0x7
9d00cd3c:	3125ffff 	andi	a1,t1,0xffff
9d00cd40:	00001812 	mflo	v1
9d00cd44:	00003810 	mfhi	a3
9d00cd48:	00073c00 	sll	a3,a3,0x10
9d00cd4c:	00e52825 	or	a1,a3,a1
9d00cd50:	70c33002 	mul	a2,a2,v1
9d00cd54:	00a6482b 	sltu	t1,a1,a2
9d00cd58:	1120000a 	beqz	t1,9d00cd84 <__divdi3+0x2e8>
9d00cd5c:	00603825 	move	a3,v1
9d00cd60:	00a82821 	addu	a1,a1,t0
9d00cd64:	00a8482b 	sltu	t1,a1,t0
9d00cd68:	15200006 	bnez	t1,9d00cd84 <__divdi3+0x2e8>
9d00cd6c:	2467ffff 	addiu	a3,v1,-1
9d00cd70:	00a6482b 	sltu	t1,a1,a2
9d00cd74:	51200004 	beqzl	t1,9d00cd88 <__divdi3+0x2ec>
9d00cd78:	00021c00 	sll	v1,v0,0x10
9d00cd7c:	2467fffe 	addiu	a3,v1,-2
9d00cd80:	00a82821 	addu	a1,a1,t0
9d00cd84:	00021c00 	sll	v1,v0,0x10
9d00cd88:	01644804 	sllv	t1,a0,t3
9d00cd8c:	00a62823 	subu	a1,a1,a2
9d00cd90:	1000ff9f 	b	9d00cc10 <__divdi3+0x174>
9d00cd94:	00671825 	or	v1,v1,a3
9d00cd98:	00a7402b 	sltu	t0,a1,a3
9d00cd9c:	00001825 	move	v1,zero
9d00cda0:	1500ff89 	bnez	t0,9d00cbc8 <__divdi3+0x12c>
9d00cda4:	00001025 	move	v0,zero
9d00cda8:	70eb5820 	clz	t3,a3
9d00cdac:	15600007 	bnez	t3,9d00cdcc <__divdi3+0x330>
9d00cdb0:	24090020 	li	t1,32
9d00cdb4:	00e5282b 	sltu	a1,a3,a1
9d00cdb8:	14a0ff83 	bnez	a1,9d00cbc8 <__divdi3+0x12c>
9d00cdbc:	24020001 	li	v0,1
9d00cdc0:	0086102b 	sltu	v0,a0,a2
9d00cdc4:	1000ff80 	b	9d00cbc8 <__divdi3+0x12c>
9d00cdc8:	38420001 	xori	v0,v0,0x1
9d00cdcc:	012b4823 	subu	t1,t1,t3
9d00cdd0:	01261006 	srlv	v0,a2,t1
9d00cdd4:	01673804 	sllv	a3,a3,t3
9d00cdd8:	00473825 	or	a3,v0,a3
9d00cddc:	00074402 	srl	t0,a3,0x10
9d00cde0:	01651004 	sllv	v0,a1,t3
9d00cde4:	01252806 	srlv	a1,a1,t1
9d00cde8:	00a8001b 	divu	zero,a1,t0
9d00cdec:	010001f4 	teq	t0,zero,0x7
9d00cdf0:	30ecffff 	andi	t4,a3,0xffff
9d00cdf4:	01241806 	srlv	v1,a0,t1
9d00cdf8:	00621025 	or	v0,v1,v0
9d00cdfc:	00021c02 	srl	v1,v0,0x10
9d00ce00:	00002812 	mflo	a1
9d00ce04:	00004810 	mfhi	t1
9d00ce08:	00094c00 	sll	t1,t1,0x10
9d00ce0c:	01234825 	or	t1,t1,v1
9d00ce10:	71856802 	mul	t5,t4,a1
9d00ce14:	012d702b 	sltu	t6,t1,t5
9d00ce18:	11c0000a 	beqz	t6,9d00ce44 <__divdi3+0x3a8>
9d00ce1c:	00a01825 	move	v1,a1
9d00ce20:	01274821 	addu	t1,t1,a3
9d00ce24:	0127702b 	sltu	t6,t1,a3
9d00ce28:	15c00006 	bnez	t6,9d00ce44 <__divdi3+0x3a8>
9d00ce2c:	24a3ffff 	addiu	v1,a1,-1
9d00ce30:	012d702b 	sltu	t6,t1,t5
9d00ce34:	51c00004 	beqzl	t6,9d00ce48 <__divdi3+0x3ac>
9d00ce38:	012d4823 	subu	t1,t1,t5
9d00ce3c:	24a3fffe 	addiu	v1,a1,-2
9d00ce40:	01274821 	addu	t1,t1,a3
9d00ce44:	012d4823 	subu	t1,t1,t5
9d00ce48:	0128001b 	divu	zero,t1,t0
9d00ce4c:	010001f4 	teq	t0,zero,0x7
9d00ce50:	3045ffff 	andi	a1,v0,0xffff
9d00ce54:	00004012 	mflo	t0
9d00ce58:	00004810 	mfhi	t1
9d00ce5c:	00094c00 	sll	t1,t1,0x10
9d00ce60:	01252825 	or	a1,t1,a1
9d00ce64:	71886002 	mul	t4,t4,t0
9d00ce68:	00ac102b 	sltu	v0,a1,t4
9d00ce6c:	1040000a 	beqz	v0,9d00ce98 <__divdi3+0x3fc>
9d00ce70:	01004825 	move	t1,t0
9d00ce74:	00a72821 	addu	a1,a1,a3
9d00ce78:	00a7102b 	sltu	v0,a1,a3
9d00ce7c:	14400006 	bnez	v0,9d00ce98 <__divdi3+0x3fc>
9d00ce80:	2509ffff 	addiu	t1,t0,-1
9d00ce84:	00ac102b 	sltu	v0,a1,t4
9d00ce88:	10400004 	beqz	v0,9d00ce9c <__divdi3+0x400>
9d00ce8c:	00031400 	sll	v0,v1,0x10
9d00ce90:	2509fffe 	addiu	t1,t0,-2
9d00ce94:	00a72821 	addu	a1,a1,a3
9d00ce98:	00031400 	sll	v0,v1,0x10
9d00ce9c:	01663004 	sllv	a2,a2,t3
9d00cea0:	00491025 	or	v0,v0,t1
9d00cea4:	00c20019 	multu	a2,v0
9d00cea8:	00ac2823 	subu	a1,a1,t4
9d00ceac:	00003810 	mfhi	a3
9d00ceb0:	00a7182b 	sltu	v1,a1,a3
9d00ceb4:	14600007 	bnez	v1,9d00ced4 <__divdi3+0x438>
9d00ceb8:	00003012 	mflo	a2
9d00cebc:	14a7ff42 	bne	a1,a3,9d00cbc8 <__divdi3+0x12c>
9d00cec0:	00001825 	move	v1,zero
9d00cec4:	01642004 	sllv	a0,a0,t3
9d00cec8:	0086202b 	sltu	a0,a0,a2
9d00cecc:	1080ff3e 	beqz	a0,9d00cbc8 <__divdi3+0x12c>
9d00ced0:	00000000 	nop
9d00ced4:	2442ffff 	addiu	v0,v0,-1
9d00ced8:	1000ff3b 	b	9d00cbc8 <__divdi3+0x12c>
9d00cedc:	00001825 	move	v1,zero

9d00cee0 <__moddi3>:
9d00cee0:	04a10007 	bgez	a1,9d00cf00 <__moddi3+0x20>
9d00cee4:	00006025 	move	t4,zero
9d00cee8:	00041023 	negu	v0,a0
9d00ceec:	0002482b 	sltu	t1,zero,v0
9d00cef0:	00052823 	negu	a1,a1
9d00cef4:	00402025 	move	a0,v0
9d00cef8:	00a92823 	subu	a1,a1,t1
9d00cefc:	240cffff 	li	t4,-1
9d00cf00:	04e10006 	bgez	a3,9d00cf1c <__moddi3+0x3c>
9d00cf04:	00c04825 	move	t1,a2
9d00cf08:	00063023 	negu	a2,a2
9d00cf0c:	0006102b 	sltu	v0,zero,a2
9d00cf10:	00073823 	negu	a3,a3
9d00cf14:	00e23823 	subu	a3,a3,v0
9d00cf18:	00c04825 	move	t1,a2
9d00cf1c:	00801025 	move	v0,a0
9d00cf20:	14e0009c 	bnez	a3,9d00d194 <__moddi3+0x2b4>
9d00cf24:	00a01825 	move	v1,a1
9d00cf28:	00a6302b 	sltu	a2,a1,a2
9d00cf2c:	10c00039 	beqz	a2,9d00d014 <__moddi3+0x134>
9d00cf30:	712a5020 	clz	t2,t1
9d00cf34:	51400008 	beqzl	t2,9d00cf58 <__moddi3+0x78>
9d00cf38:	00092402 	srl	a0,t1,0x10
9d00cf3c:	01451804 	sllv	v1,a1,t2
9d00cf40:	000a2823 	negu	a1,t2
9d00cf44:	00a42806 	srlv	a1,a0,a1
9d00cf48:	01494804 	sllv	t1,t1,t2
9d00cf4c:	00a31825 	or	v1,a1,v1
9d00cf50:	01441004 	sllv	v0,a0,t2
9d00cf54:	00092402 	srl	a0,t1,0x10
9d00cf58:	0064001b 	divu	zero,v1,a0
9d00cf5c:	008001f4 	teq	a0,zero,0x7
9d00cf60:	3127ffff 	andi	a3,t1,0xffff
9d00cf64:	00001812 	mflo	v1
9d00cf68:	00002810 	mfhi	a1
9d00cf6c:	70673002 	mul	a2,v1,a3
9d00cf70:	00051c00 	sll	v1,a1,0x10
9d00cf74:	00022c02 	srl	a1,v0,0x10
9d00cf78:	00651825 	or	v1,v1,a1
9d00cf7c:	0066282b 	sltu	a1,v1,a2
9d00cf80:	50a00008 	beqzl	a1,9d00cfa4 <__moddi3+0xc4>
9d00cf84:	00661823 	subu	v1,v1,a2
9d00cf88:	00691821 	addu	v1,v1,t1
9d00cf8c:	0069282b 	sltu	a1,v1,t1
9d00cf90:	14a00003 	bnez	a1,9d00cfa0 <__moddi3+0xc0>
9d00cf94:	0066282b 	sltu	a1,v1,a2
9d00cf98:	54a00001 	bnezl	a1,9d00cfa0 <__moddi3+0xc0>
9d00cf9c:	00691821 	addu	v1,v1,t1
9d00cfa0:	00661823 	subu	v1,v1,a2
9d00cfa4:	0064001b 	divu	zero,v1,a0
9d00cfa8:	008001f4 	teq	a0,zero,0x7
9d00cfac:	3042ffff 	andi	v0,v0,0xffff
9d00cfb0:	00001812 	mflo	v1
9d00cfb4:	00003010 	mfhi	a2
9d00cfb8:	70672002 	mul	a0,v1,a3
9d00cfbc:	00061c00 	sll	v1,a2,0x10
9d00cfc0:	00621025 	or	v0,v1,v0
9d00cfc4:	0044182b 	sltu	v1,v0,a0
9d00cfc8:	50600008 	beqzl	v1,9d00cfec <__moddi3+0x10c>
9d00cfcc:	00441023 	subu	v0,v0,a0
9d00cfd0:	00491021 	addu	v0,v0,t1
9d00cfd4:	0049182b 	sltu	v1,v0,t1
9d00cfd8:	14600003 	bnez	v1,9d00cfe8 <__moddi3+0x108>
9d00cfdc:	0044182b 	sltu	v1,v0,a0
9d00cfe0:	54600001 	bnezl	v1,9d00cfe8 <__moddi3+0x108>
9d00cfe4:	00491021 	addu	v0,v0,t1
9d00cfe8:	00441023 	subu	v0,v0,a0
9d00cfec:	01421006 	srlv	v0,v0,t2
9d00cff0:	00001825 	move	v1,zero
9d00cff4:	11800005 	beqz	t4,9d00d00c <__moddi3+0x12c>
9d00cff8:	00000000 	nop
9d00cffc:	00021023 	negu	v0,v0
9d00d000:	0002202b 	sltu	a0,zero,v0
9d00d004:	00031823 	negu	v1,v1
9d00d008:	00641823 	subu	v1,v1,a0
9d00d00c:	03e00008 	jr	ra
9d00d010:	00000000 	nop
9d00d014:	15200006 	bnez	t1,9d00d030 <__moddi3+0x150>
9d00d018:	00000000 	nop
9d00d01c:	24090001 	li	t1,1
9d00d020:	0127001b 	divu	zero,t1,a3
9d00d024:	00e001f4 	teq	a3,zero,0x7
9d00d028:	00004812 	mflo	t1
9d00d02c:	712a5020 	clz	t2,t1
9d00d030:	15400029 	bnez	t2,9d00d0d8 <__moddi3+0x1f8>
9d00d034:	24070020 	li	a3,32
9d00d038:	00a92823 	subu	a1,a1,t1
9d00d03c:	00092402 	srl	a0,t1,0x10
9d00d040:	00a4001b 	divu	zero,a1,a0
9d00d044:	008001f4 	teq	a0,zero,0x7
9d00d048:	3127ffff 	andi	a3,t1,0xffff
9d00d04c:	00002812 	mflo	a1
9d00d050:	00001810 	mfhi	v1
9d00d054:	70a73002 	mul	a2,a1,a3
9d00d058:	00032c00 	sll	a1,v1,0x10
9d00d05c:	00021c02 	srl	v1,v0,0x10
9d00d060:	00a32825 	or	a1,a1,v1
9d00d064:	00a6182b 	sltu	v1,a1,a2
9d00d068:	50600008 	beqzl	v1,9d00d08c <__moddi3+0x1ac>
9d00d06c:	00a63023 	subu	a2,a1,a2
9d00d070:	00a92821 	addu	a1,a1,t1
9d00d074:	00a9182b 	sltu	v1,a1,t1
9d00d078:	14600003 	bnez	v1,9d00d088 <__moddi3+0x1a8>
9d00d07c:	00a6182b 	sltu	v1,a1,a2
9d00d080:	54600001 	bnezl	v1,9d00d088 <__moddi3+0x1a8>
9d00d084:	00a92821 	addu	a1,a1,t1
9d00d088:	00a63023 	subu	a2,a1,a2
9d00d08c:	00c4001b 	divu	zero,a2,a0
9d00d090:	008001f4 	teq	a0,zero,0x7
9d00d094:	3042ffff 	andi	v0,v0,0xffff
9d00d098:	00003012 	mflo	a2
9d00d09c:	00002810 	mfhi	a1
9d00d0a0:	70c71802 	mul	v1,a2,a3
9d00d0a4:	00053400 	sll	a2,a1,0x10
9d00d0a8:	00c21025 	or	v0,a2,v0
9d00d0ac:	0043202b 	sltu	a0,v0,v1
9d00d0b0:	5080ffce 	beqzl	a0,9d00cfec <__moddi3+0x10c>
9d00d0b4:	00431023 	subu	v0,v0,v1
9d00d0b8:	00491021 	addu	v0,v0,t1
9d00d0bc:	0049202b 	sltu	a0,v0,t1
9d00d0c0:	14800003 	bnez	a0,9d00d0d0 <__moddi3+0x1f0>
9d00d0c4:	0043202b 	sltu	a0,v0,v1
9d00d0c8:	54800001 	bnezl	a0,9d00d0d0 <__moddi3+0x1f0>
9d00d0cc:	00491021 	addu	v0,v0,t1
9d00d0d0:	1000ffc6 	b	9d00cfec <__moddi3+0x10c>
9d00d0d4:	00431023 	subu	v0,v0,v1
9d00d0d8:	00ea3823 	subu	a3,a3,t2
9d00d0dc:	01494804 	sllv	t1,t1,t2
9d00d0e0:	00e41806 	srlv	v1,a0,a3
9d00d0e4:	00093402 	srl	a2,t1,0x10
9d00d0e8:	00e53806 	srlv	a3,a1,a3
9d00d0ec:	00e6001b 	divu	zero,a3,a2
9d00d0f0:	00c001f4 	teq	a2,zero,0x7
9d00d0f4:	01451004 	sllv	v0,a1,t2
9d00d0f8:	3128ffff 	andi	t0,t1,0xffff
9d00d0fc:	00621825 	or	v1,v1,v0
9d00d100:	00032c02 	srl	a1,v1,0x10
9d00d104:	00003812 	mflo	a3
9d00d108:	00005810 	mfhi	t3
9d00d10c:	70e81002 	mul	v0,a3,t0
9d00d110:	000b3c00 	sll	a3,t3,0x10
9d00d114:	00e53825 	or	a3,a3,a1
9d00d118:	00e2282b 	sltu	a1,a3,v0
9d00d11c:	50a00008 	beqzl	a1,9d00d140 <__moddi3+0x260>
9d00d120:	00e23823 	subu	a3,a3,v0
9d00d124:	00e93821 	addu	a3,a3,t1
9d00d128:	00e9282b 	sltu	a1,a3,t1
9d00d12c:	14a00003 	bnez	a1,9d00d13c <__moddi3+0x25c>
9d00d130:	00e2282b 	sltu	a1,a3,v0
9d00d134:	54a00001 	bnezl	a1,9d00d13c <__moddi3+0x25c>
9d00d138:	00e93821 	addu	a3,a3,t1
9d00d13c:	00e23823 	subu	a3,a3,v0
9d00d140:	00e6001b 	divu	zero,a3,a2
9d00d144:	00c001f4 	teq	a2,zero,0x7
9d00d148:	3065ffff 	andi	a1,v1,0xffff
9d00d14c:	00003012 	mflo	a2
9d00d150:	00003810 	mfhi	a3
9d00d154:	00073c00 	sll	a3,a3,0x10
9d00d158:	00e52825 	or	a1,a3,a1
9d00d15c:	70c83002 	mul	a2,a2,t0
9d00d160:	00a6102b 	sltu	v0,a1,a2
9d00d164:	10400009 	beqz	v0,9d00d18c <__moddi3+0x2ac>
9d00d168:	01441004 	sllv	v0,a0,t2
9d00d16c:	00a92821 	addu	a1,a1,t1
9d00d170:	00a9102b 	sltu	v0,a1,t1
9d00d174:	14400005 	bnez	v0,9d00d18c <__moddi3+0x2ac>
9d00d178:	01441004 	sllv	v0,a0,t2
9d00d17c:	00a6102b 	sltu	v0,a1,a2
9d00d180:	54400001 	bnezl	v0,9d00d188 <__moddi3+0x2a8>
9d00d184:	00a92821 	addu	a1,a1,t1
9d00d188:	01441004 	sllv	v0,a0,t2
9d00d18c:	1000ffab 	b	9d00d03c <__moddi3+0x15c>
9d00d190:	00a62823 	subu	a1,a1,a2
9d00d194:	00a7402b 	sltu	t0,a1,a3
9d00d198:	1500ff96 	bnez	t0,9d00cff4 <__moddi3+0x114>
9d00d19c:	70ed6820 	clz	t5,a3
9d00d1a0:	15a0000a 	bnez	t5,9d00d1cc <__moddi3+0x2ec>
9d00d1a4:	00e5402b 	sltu	t0,a3,a1
9d00d1a8:	15000003 	bnez	t0,9d00d1b8 <__moddi3+0x2d8>
9d00d1ac:	0086402b 	sltu	t0,a0,a2
9d00d1b0:	1500ff90 	bnez	t0,9d00cff4 <__moddi3+0x114>
9d00d1b4:	00000000 	nop
9d00d1b8:	00861023 	subu	v0,a0,a2
9d00d1bc:	00a72823 	subu	a1,a1,a3
9d00d1c0:	0082182b 	sltu	v1,a0,v0
9d00d1c4:	1000ff8b 	b	9d00cff4 <__moddi3+0x114>
9d00d1c8:	00a31823 	subu	v1,a1,v1
9d00d1cc:	240b0020 	li	t3,32
9d00d1d0:	016d5823 	subu	t3,t3,t5
9d00d1d4:	01664006 	srlv	t0,a2,t3
9d00d1d8:	01a73804 	sllv	a3,a3,t5
9d00d1dc:	01073825 	or	a3,t0,a3
9d00d1e0:	01a51004 	sllv	v0,a1,t5
9d00d1e4:	00074c02 	srl	t1,a3,0x10
9d00d1e8:	01652806 	srlv	a1,a1,t3
9d00d1ec:	00a9001b 	divu	zero,a1,t1
9d00d1f0:	012001f4 	teq	t1,zero,0x7
9d00d1f4:	30e8ffff 	andi	t0,a3,0xffff
9d00d1f8:	01641806 	srlv	v1,a0,t3
9d00d1fc:	00621825 	or	v1,v1,v0
9d00d200:	00031402 	srl	v0,v1,0x10
9d00d204:	00002812 	mflo	a1
9d00d208:	00005010 	mfhi	t2
9d00d20c:	000a5400 	sll	t2,t2,0x10
9d00d210:	01425025 	or	t2,t2,v0
9d00d214:	71057002 	mul	t6,t0,a1
9d00d218:	014e782b 	sltu	t7,t2,t6
9d00d21c:	11e0000a 	beqz	t7,9d00d248 <__moddi3+0x368>
9d00d220:	00a01025 	move	v0,a1
9d00d224:	01475021 	addu	t2,t2,a3
9d00d228:	0147782b 	sltu	t7,t2,a3
9d00d22c:	15e00006 	bnez	t7,9d00d248 <__moddi3+0x368>
9d00d230:	24a2ffff 	addiu	v0,a1,-1
9d00d234:	014e782b 	sltu	t7,t2,t6
9d00d238:	51e00004 	beqzl	t7,9d00d24c <__moddi3+0x36c>
9d00d23c:	014e5023 	subu	t2,t2,t6
9d00d240:	24a2fffe 	addiu	v0,a1,-2
9d00d244:	01475021 	addu	t2,t2,a3
9d00d248:	014e5023 	subu	t2,t2,t6
9d00d24c:	0149001b 	divu	zero,t2,t1
9d00d250:	012001f4 	teq	t1,zero,0x7
9d00d254:	00004812 	mflo	t1
9d00d258:	00005010 	mfhi	t2
9d00d25c:	000a5400 	sll	t2,t2,0x10
9d00d260:	71092802 	mul	a1,t0,t1
9d00d264:	3068ffff 	andi	t0,v1,0xffff
9d00d268:	01484025 	or	t0,t2,t0
9d00d26c:	0105182b 	sltu	v1,t0,a1
9d00d270:	1060000a 	beqz	v1,9d00d29c <__moddi3+0x3bc>
9d00d274:	01205025 	move	t2,t1
9d00d278:	01074021 	addu	t0,t0,a3
9d00d27c:	0107182b 	sltu	v1,t0,a3
9d00d280:	14600006 	bnez	v1,9d00d29c <__moddi3+0x3bc>
9d00d284:	252affff 	addiu	t2,t1,-1
9d00d288:	0105182b 	sltu	v1,t0,a1
9d00d28c:	10600004 	beqz	v1,9d00d2a0 <__moddi3+0x3c0>
9d00d290:	00027400 	sll	t6,v0,0x10
9d00d294:	252afffe 	addiu	t2,t1,-2
9d00d298:	01074021 	addu	t0,t0,a3
9d00d29c:	00027400 	sll	t6,v0,0x10
9d00d2a0:	01ca7025 	or	t6,t6,t2
9d00d2a4:	01a63004 	sllv	a2,a2,t5
9d00d2a8:	01c60019 	multu	t6,a2
9d00d2ac:	01054023 	subu	t0,t0,a1
9d00d2b0:	01a41804 	sllv	v1,a0,t5
9d00d2b4:	00007810 	mfhi	t7
9d00d2b8:	010f102b 	sltu	v0,t0,t7
9d00d2bc:	01e02825 	move	a1,t7
9d00d2c0:	00007012 	mflo	t6
9d00d2c4:	14400006 	bnez	v0,9d00d2e0 <__moddi3+0x400>
9d00d2c8:	00002012 	mflo	a0
9d00d2cc:	150f0009 	bne	t0,t7,9d00d2f4 <__moddi3+0x414>
9d00d2d0:	00642023 	subu	a0,v1,a0
9d00d2d4:	006e102b 	sltu	v0,v1,t6
9d00d2d8:	50400007 	beqzl	v0,9d00d2f8 <__moddi3+0x418>
9d00d2dc:	0064182b 	sltu	v1,v1,a0
9d00d2e0:	01c62023 	subu	a0,t6,a2
9d00d2e4:	01e73823 	subu	a3,t7,a3
9d00d2e8:	01c4702b 	sltu	t6,t6,a0
9d00d2ec:	00ee2823 	subu	a1,a3,t6
9d00d2f0:	00642023 	subu	a0,v1,a0
9d00d2f4:	0064182b 	sltu	v1,v1,a0
9d00d2f8:	01054023 	subu	t0,t0,a1
9d00d2fc:	01031823 	subu	v1,t0,v1
9d00d300:	01631004 	sllv	v0,v1,t3
9d00d304:	01a42006 	srlv	a0,a0,t5
9d00d308:	00441025 	or	v0,v0,a0
9d00d30c:	1000ff39 	b	9d00cff4 <__moddi3+0x114>
9d00d310:	01a31806 	srlv	v1,v1,t5

Disassembly of section .text.dp32subadd:

9d00d314 <__subdf3>:
9d00d314:	3c018000 00e13826                       ...<&8..

9d00d31c <__adddf3>:
9d00d31c:	00055840 000b5d42 000552c0 00047d42     @X..B]...R..B}..
9d00d32c:	014f5025 00044ac0 3c088000 01485025     %PO..J.....<%PH.
9d00d33c:	00077040 000e7542 00076ac0 00067d42     @p..Bu...j..B}..
9d00d34c:	01af6825 000662c0 01a86825 256fffff     %h...b..%h....o%
9d00d35c:	2de107fe 1020008d 00000000              ...-.. .....

9d00d368 <Blab1>:
9d00d368:	25cfffff 	addiu	t7,t6,-1
9d00d36c:	2de107fe 	sltiu	at,t7,2046
9d00d370:	102000bb 	beqz	at,9d00d660 <BspecB>
9d00d374:	00000000 	nop

9d00d378 <Blab2>:
9d00d378:	3c018000 	lui	at,0x8000
9d00d37c:	00a12824 	and	a1,a1,at
9d00d380:	016e4023 	subu	t0,t3,t6
9d00d384:	1100002c 	beqz	t0,9d00d438 <Badd3>
9d00d388:	00000000 	nop
9d00d38c:	19000015 	blez	t0,9d00d3e4 <i1>
9d00d390:	00000000 	nop

9d00d394 <L1>:
9d00d394:	2d010020 	sltiu	at,t0,32
9d00d398:	14200007 	bnez	at,9d00d3b8 <L2>
9d00d39c:	00000000 	nop
9d00d3a0:	2108ffe0 	addi	t0,t0,-32
9d00d3a4:	000c302b 	sltu	a2,zero,t4
9d00d3a8:	100d0023 	beq	zero,t5,9d00d438 <Badd3>
9d00d3ac:	01a66025 	or	t4,t5,a2
9d00d3b0:	1000fff8 	b	9d00d394 <L1>
9d00d3b4:	340d0000 	li	t5,0x0

9d00d3b8 <L2>:
9d00d3b8:	1100001f 	beqz	t0,9d00d438 <Badd3>
9d00d3bc:	00000000 	nop
9d00d3c0:	00082022 	neg	a0,t0
9d00d3c4:	008c3004 	sllv	a2,t4,a0
9d00d3c8:	008d2004 	sllv	a0,t5,a0
9d00d3cc:	010c6006 	srlv	t4,t4,t0
9d00d3d0:	010d6806 	srlv	t5,t5,t0
9d00d3d4:	10c00018 	beqz	a2,9d00d438 <Badd3>
9d00d3d8:	008c6025 	or	t4,a0,t4
9d00d3dc:	10000016 	b	9d00d438 <Badd3>
9d00d3e0:	358c0002 	ori	t4,t4,0x2

9d00d3e4 <i1>:
9d00d3e4:	000e5825 	or	t3,zero,t6
9d00d3e8:	00084023 	negu	t0,t0

9d00d3ec <L4>:
9d00d3ec:	2d010020 	sltiu	at,t0,32
9d00d3f0:	14200007 	bnez	at,9d00d410 <L5>
9d00d3f4:	00000000 	nop
9d00d3f8:	2108ffe0 	addi	t0,t0,-32
9d00d3fc:	0009302b 	sltu	a2,zero,t1
9d00d400:	100a000d 	beq	zero,t2,9d00d438 <Badd3>
9d00d404:	01464825 	or	t1,t2,a2
9d00d408:	1000fff8 	b	9d00d3ec <L4>
9d00d40c:	340a0000 	li	t2,0x0

9d00d410 <L5>:
9d00d410:	11000009 	beqz	t0,9d00d438 <Badd3>
9d00d414:	00000000 	nop
9d00d418:	00082022 	neg	a0,t0
9d00d41c:	00893004 	sllv	a2,t1,a0
9d00d420:	008a2004 	sllv	a0,t2,a0
9d00d424:	01094806 	srlv	t1,t1,t0
9d00d428:	010a5006 	srlv	t2,t2,t0
9d00d42c:	10c00002 	beqz	a2,9d00d438 <Badd3>
9d00d430:	00894825 	or	t1,a0,t1
9d00d434:	35290002 	ori	t1,t1,0x2

9d00d438 <Badd3>:
9d00d438:	00a77826 	xor	t7,a1,a3
9d00d43c:	05e0001c 	bltz	t7,9d00d4b0 <Bsub1>
9d00d440:	00000000 	nop
9d00d444:	012c4821 	addu	t1,t1,t4
9d00d448:	012c782b 	sltu	t7,t1,t4
9d00d44c:	014d5021 	addu	t2,t2,t5
9d00d450:	014f5021 	addu	t2,t2,t7
9d00d454:	114d0002 	beq	t2,t5,9d00d460 <L7>
9d00d458:	00000000 	nop
9d00d45c:	014d782b 	sltu	t7,t2,t5

9d00d460 <L7>:
9d00d460:	11e00037 	beqz	t7,9d00d540 <Bres>
9d00d464:	00000000 	nop
9d00d468:	312f0001 	andi	t7,t1,0x1
9d00d46c:	11e00002 	beqz	t7,9d00d478 <i3>
9d00d470:	00000000 	nop
9d00d474:	35290002 	ori	t1,t1,0x2

9d00d478 <i3>:
9d00d478:	00094842 	srl	t1,t1,0x1
9d00d47c:	000a7fc0 	sll	t7,t2,0x1f
9d00d480:	012f4825 	or	t1,t1,t7
9d00d484:	000a5042 	srl	t2,t2,0x1
9d00d488:	3c018000 	lui	at,0x8000
9d00d48c:	01415025 	or	t2,t2,at
9d00d490:	256b0001 	addiu	t3,t3,1
9d00d494:	240107ff 	li	at,2047
9d00d498:	15610029 	bne	t3,at,9d00d540 <Bres>
9d00d49c:	00000000 	nop
9d00d4a0:	3c017ff0 	lui	at,0x7ff0
9d00d4a4:	00a12825 	or	a1,a1,at
9d00d4a8:	10000037 	b	9d00d588 <BretA>
9d00d4ac:	24040000 	li	a0,0

9d00d4b0 <Bsub1>:
9d00d4b0:	012c782b 	sltu	t7,t1,t4
9d00d4b4:	012c4823 	subu	t1,t1,t4
9d00d4b8:	014f102b 	sltu	v0,t2,t7
9d00d4bc:	014f5023 	subu	t2,t2,t7
9d00d4c0:	014d782b 	sltu	t7,t2,t5
9d00d4c4:	01e27825 	or	t7,t7,v0
9d00d4c8:	11e00007 	beqz	t7,9d00d4e8 <i5>
9d00d4cc:	014d5023 	subu	t2,t2,t5
9d00d4d0:	3c018000 	lui	at,0x8000
9d00d4d4:	00a12826 	xor	a1,a1,at
9d00d4d8:	0009782b 	sltu	t7,zero,t1
9d00d4dc:	00094823 	negu	t1,t1
9d00d4e0:	000a5023 	negu	t2,t2
9d00d4e4:	014f5023 	subu	t2,t2,t7

9d00d4e8 <i5>:
9d00d4e8:	15400008 	bnez	t2,9d00d50c <L8>
9d00d4ec:	00000000 	nop
9d00d4f0:	15200003 	bnez	t1,9d00d500 <L9>
9d00d4f4:	00000000 	nop
9d00d4f8:	1000000d 	b	9d00d530 <L10>
9d00d4fc:	240b0000 	li	t3,0

9d00d500 <L9>:
9d00d500:	01205025 	move	t2,t1
9d00d504:	24090000 	li	t1,0
9d00d508:	256bffe0 	addiu	t3,t3,-32

9d00d50c <L8>:
9d00d50c:	71484020 	clz	t0,t2
9d00d510:	11000007 	beqz	t0,9d00d530 <L10>
9d00d514:	00000000 	nop
9d00d518:	01685823 	subu	t3,t3,t0
9d00d51c:	00082022 	neg	a0,t0
9d00d520:	00892006 	srlv	a0,t1,a0
9d00d524:	01094804 	sllv	t1,t1,t0
9d00d528:	010a5004 	sllv	t2,t2,t0
9d00d52c:	01445025 	or	t2,t2,a0

9d00d530 <L10>:
9d00d530:	01497825 	or	t7,t2,t1
9d00d534:	15e00002 	bnez	t7,9d00d540 <Bres>
9d00d538:	00000000 	nop
9d00d53c:	24050000 	li	a1,0

9d00d540 <Bres>:
9d00d540:	19600068 	blez	t3,9d00d6e4 <Bund>
9d00d544:	00000000 	nop

9d00d548 <Blab8>:
9d00d548:	25290400 	addiu	t1,t1,1024
9d00d54c:	2d2f0400 	sltiu	t7,t1,1024
9d00d550:	014f5021 	addu	t2,t2,t7
9d00d554:	014f782b 	sltu	t7,t2,t7
9d00d558:	016f5821 	addu	t3,t3,t7
9d00d55c:	00097ac2 	srl	t7,t1,0xb
9d00d560:	31ef0001 	andi	t7,t7,0x1
9d00d564:	012f4823 	subu	t1,t1,t7
9d00d568:	000922c2 	srl	a0,t1,0xb
9d00d56c:	000a7d40 	sll	t7,t2,0x15
9d00d570:	008f2025 	or	a0,a0,t7
9d00d574:	000a7840 	sll	t7,t2,0x1
9d00d578:	000f7b02 	srl	t7,t7,0xc
9d00d57c:	00af2825 	or	a1,a1,t7
9d00d580:	000b7d00 	sll	t7,t3,0x14
9d00d584:	00af2825 	or	a1,a1,t7

9d00d588 <BretA>:
9d00d588:	00041025 	or	v0,zero,a0
9d00d58c:	00051825 	or	v1,zero,a1

9d00d590 <B999>:
9d00d590:	03e00008 	jr	ra
9d00d594:	00000000 	nop

9d00d598 <BspecA>:
9d00d598:	0120782a 	slt	t7,t1,zero
9d00d59c:	01294821 	addu	t1,t1,t1
9d00d5a0:	014a5021 	addu	t2,t2,t2
9d00d5a4:	15600023 	bnez	t3,9d00d634 <i7>
9d00d5a8:	014f5021 	addu	t2,t2,t7
9d00d5ac:	01497825 	or	t7,t2,t1
9d00d5b0:	11e00014 	beqz	t7,9d00d604 <i8>
9d00d5b4:	00000000 	nop
9d00d5b8:	15400008 	bnez	t2,9d00d5dc <L11>
9d00d5bc:	00000000 	nop
9d00d5c0:	15200003 	bnez	t1,9d00d5d0 <L12>
9d00d5c4:	00000000 	nop
9d00d5c8:	1000ff67 	b	9d00d368 <Blab1>
9d00d5cc:	240b0000 	li	t3,0

9d00d5d0 <L12>:
9d00d5d0:	01205025 	move	t2,t1
9d00d5d4:	24090000 	li	t1,0
9d00d5d8:	256bffe0 	addiu	t3,t3,-32

9d00d5dc <L11>:
9d00d5dc:	71484020 	clz	t0,t2
9d00d5e0:	1100ff61 	beqz	t0,9d00d368 <Blab1>
9d00d5e4:	00000000 	nop
9d00d5e8:	01685823 	subu	t3,t3,t0
9d00d5ec:	00082022 	neg	a0,t0
9d00d5f0:	00892006 	srlv	a0,t1,a0
9d00d5f4:	01094804 	sllv	t1,t1,t0
9d00d5f8:	010a5004 	sllv	t2,t2,t0
9d00d5fc:	1000ff5a 	b	9d00d368 <Blab1>
9d00d600:	01445025 	or	t2,t2,a0

9d00d604 <i8>:
9d00d604:	240107ff 	li	at,2047
9d00d608:	11c10015 	beq	t6,at,9d00d660 <BspecB>
9d00d60c:	00000000 	nop
9d00d610:	00e74021 	addu	t0,a3,a3
9d00d614:	01067825 	or	t7,t0,a2
9d00d618:	15e00003 	bnez	t7,9d00d628 <BretB>
9d00d61c:	00000000 	nop
9d00d620:	04e0ffd9 	bltz	a3,9d00d588 <BretA>
9d00d624:	00000000 	nop

9d00d628 <BretB>:
9d00d628:	00061025 	or	v0,zero,a2
9d00d62c:	1000ffd8 	b	9d00d590 <B999>
9d00d630:	00071825 	or	v1,zero,a3

9d00d634 <i7>:
9d00d634:	01497825 	or	t7,t2,t1
9d00d638:	15e00027 	bnez	t7,9d00d6d8 <Bnan>
9d00d63c:	00000000 	nop
9d00d640:	240107ff 	li	at,2047
9d00d644:	15c1ffd0 	bne	t6,at,9d00d588 <BretA>
9d00d648:	00000000 	nop
9d00d64c:	00a77826 	xor	t7,a1,a3
9d00d650:	05e00021 	bltz	t7,9d00d6d8 <Bnan>
9d00d654:	00000000 	nop
9d00d658:	1000fff3 	b	9d00d628 <BretB>
9d00d65c:	00000000 	nop

9d00d660 <BspecB>:
9d00d660:	0180782a 	slt	t7,t4,zero
9d00d664:	018c6021 	addu	t4,t4,t4
9d00d668:	01ad6821 	addu	t5,t5,t5
9d00d66c:	15c00017 	bnez	t6,9d00d6cc <i11>
9d00d670:	01af6821 	addu	t5,t5,t7
9d00d674:	01ac7825 	or	t7,t5,t4
9d00d678:	11e0ffc3 	beqz	t7,9d00d588 <BretA>
9d00d67c:	00000000 	nop
9d00d680:	15a00008 	bnez	t5,9d00d6a4 <L14>
9d00d684:	00000000 	nop
9d00d688:	15800003 	bnez	t4,9d00d698 <L15>
9d00d68c:	00000000 	nop
9d00d690:	1000ff39 	b	9d00d378 <Blab2>
9d00d694:	240e0000 	li	t6,0

9d00d698 <L15>:
9d00d698:	01806825 	move	t5,t4
9d00d69c:	240c0000 	li	t4,0
9d00d6a0:	25ceffe0 	addiu	t6,t6,-32

9d00d6a4 <L14>:
9d00d6a4:	71a84020 	clz	t0,t5
9d00d6a8:	1100ff33 	beqz	t0,9d00d378 <Blab2>
9d00d6ac:	00000000 	nop
9d00d6b0:	01c87023 	subu	t6,t6,t0
9d00d6b4:	00082022 	neg	a0,t0
9d00d6b8:	008c2006 	srlv	a0,t4,a0
9d00d6bc:	010c6004 	sllv	t4,t4,t0
9d00d6c0:	010d6804 	sllv	t5,t5,t0
9d00d6c4:	1000ff2c 	b	9d00d378 <Blab2>
9d00d6c8:	01a46825 	or	t5,t5,a0

9d00d6cc <i11>:
9d00d6cc:	01ac7825 	or	t7,t5,t4
9d00d6d0:	11e0ffd5 	beqz	t7,9d00d628 <BretB>
9d00d6d4:	00000000 	nop

9d00d6d8 <Bnan>:
9d00d6d8:	3c05fff8 	lui	a1,0xfff8
9d00d6dc:	1000ffaa 	b	9d00d588 <BretA>
9d00d6e0:	24040000 	li	a0,0

9d00d6e4 <Bund>:
9d00d6e4:	24080001 	li	t0,1
9d00d6e8:	010b4023 	subu	t0,t0,t3

9d00d6ec <L17>:
9d00d6ec:	2d010020 	sltiu	at,t0,32
9d00d6f0:	14200007 	bnez	at,9d00d710 <L18>
9d00d6f4:	00000000 	nop
9d00d6f8:	2108ffe0 	addi	t0,t0,-32
9d00d6fc:	0009302b 	sltu	a2,zero,t1
9d00d700:	100a000d 	beq	zero,t2,9d00d738 <L19>
9d00d704:	01464825 	or	t1,t2,a2
9d00d708:	1000fff8 	b	9d00d6ec <L17>
9d00d70c:	340a0000 	li	t2,0x0

9d00d710 <L18>:
9d00d710:	11000009 	beqz	t0,9d00d738 <L19>
9d00d714:	00000000 	nop
9d00d718:	00082022 	neg	a0,t0
9d00d71c:	00893004 	sllv	a2,t1,a0
9d00d720:	008a2004 	sllv	a0,t2,a0
9d00d724:	01094806 	srlv	t1,t1,t0
9d00d728:	010a5006 	srlv	t2,t2,t0
9d00d72c:	10c00002 	beqz	a2,9d00d738 <L19>
9d00d730:	00894825 	or	t1,a0,t1
9d00d734:	35290002 	ori	t1,t1,0x2

9d00d738 <L19>:
9d00d738:	1000ff83 	b	9d00d548 <Blab8>
9d00d73c:	240b0000 	li	t3,0
9d00d740:	00000000 	nop

Disassembly of section .text.__scan_fp:

9d00d744 <__scan_fp>:
9d00d744:	27bdffb0 	addiu	sp,sp,-80
9d00d748:	afb60040 	sw	s6,64(sp)
9d00d74c:	afb00028 	sw	s0,40(sp)
9d00d750:	00e0b025 	move	s6,a3
9d00d754:	8cd00010 	lw	s0,16(a2)
9d00d758:	afb70044 	sw	s7,68(sp)
9d00d75c:	afb5003c 	sw	s5,60(sp)
9d00d760:	afb40038 	sw	s4,56(sp)
9d00d764:	afb30034 	sw	s3,52(sp)
9d00d768:	afb20030 	sw	s2,48(sp)
9d00d76c:	afb1002c 	sw	s1,44(sp)
9d00d770:	00809825 	move	s3,a0
9d00d774:	8cd10008 	lw	s1,8(a2)
9d00d778:	8cd4000c 	lw	s4,12(a2)
9d00d77c:	afbf004c 	sw	ra,76(sp)
9d00d780:	afbe0048 	sw	s8,72(sp)
9d00d784:	0f404909 	jal	9d012424 <__skipws>
9d00d788:	afa50054 	sw	a1,84(sp)
9d00d78c:	8ec40000 	lw	a0,0(s6)
9d00d790:	2603ffff 	addiu	v1,s0,-1
9d00d794:	0071880a 	movz	s1,v1,s1
9d00d798:	00821021 	addu	v0,a0,v0
9d00d79c:	aec20000 	sw	v0,0(s6)
9d00d7a0:	0071102a 	slt	v0,v1,s1
9d00d7a4:	0222180a 	movz	v1,s1,v0
9d00d7a8:	afa30024 	sw	v1,36(sp)
9d00d7ac:	02808825 	move	s1,s4
9d00d7b0:	24170001 	li	s7,1
9d00d7b4:	00008025 	move	s0,zero
9d00d7b8:	afa0001c 	sw	zero,28(sp)
9d00d7bc:	00009025 	move	s2,zero
9d00d7c0:	0000a825 	move	s5,zero
9d00d7c4:	afa00020 	sw	zero,32(sp)
9d00d7c8:	8fa20024 	lw	v0,36(sp)
9d00d7cc:	0202102a 	slt	v0,s0,v0
9d00d7d0:	10400017 	beqz	v0,9d00d830 <__scan_fp+0xec>
9d00d7d4:	afb00018 	sw	s0,24(sp)
9d00d7d8:	8e62003c 	lw	v0,60(s3)
9d00d7dc:	8e63004c 	lw	v1,76(s3)
9d00d7e0:	0043182b 	sltu	v1,v0,v1
9d00d7e4:	10600022 	beqz	v1,9d00d870 <__scan_fp+0x12c>
9d00d7e8:	24430001 	addiu	v1,v0,1
9d00d7ec:	ae63003c 	sw	v1,60(s3)
9d00d7f0:	905e0000 	lbu	s8,0(v0)
9d00d7f4:	27c2ffd5 	addiu	v0,s8,-43
9d00d7f8:	7c020844 	ins	v0,zero,0x1,0x1
9d00d7fc:	00521025 	or	v0,v0,s2
9d00d800:	54400038 	bnezl	v0,9d00d8e4 <__scan_fp+0x1a0>
9d00d804:	8fa20020 	lw	v0,32(sp)
9d00d808:	5200002e 	beqzl	s0,9d00d8c4 <__scan_fp+0x180>
9d00d80c:	a23e0000 	sb	s8,0(s1)
9d00d810:	52b0002c 	beql	s5,s0,9d00d8c4 <__scan_fp+0x180>
9d00d814:	a23e0000 	sb	s8,0(s1)
9d00d818:	8e62004c 	lw	v0,76(s3)
9d00d81c:	10400005 	beqz	v0,9d00d834 <__scan_fp+0xf0>
9d00d820:	8fa20018 	lw	v0,24(sp)
9d00d824:	8e62003c 	lw	v0,60(s3)
9d00d828:	2442ffff 	addiu	v0,v0,-1
9d00d82c:	ae62003c 	sw	v0,60(s3)
9d00d830:	8fa20018 	lw	v0,24(sp)
9d00d834:	02802025 	move	a0,s4
9d00d838:	27a50010 	addiu	a1,sp,16
9d00d83c:	02829821 	addu	s3,s4,v0
9d00d840:	0f4051c2 	jal	9d014708 <strtold>
9d00d844:	a2600000 	sb	zero,0(s3)
9d00d848:	8fa40054 	lw	a0,84(sp)
9d00d84c:	ac830004 	sw	v1,4(a0)
9d00d850:	8fa30010 	lw	v1,16(sp)
9d00d854:	ac820000 	sw	v0,0(a0)
9d00d858:	2402fffe 	li	v0,-2
9d00d85c:	0074a026 	xor	s4,v1,s4
9d00d860:	24030001 	li	v1,1
9d00d864:	0054180a 	movz	v1,v0,s4
9d00d868:	10000009 	b	9d00d890 <__scan_fp+0x14c>
9d00d86c:	0060f025 	move	s8,v1
9d00d870:	0f4048dc 	jal	9d012370 <__shgetc>
9d00d874:	02602025 	move	a0,s3
9d00d878:	0040f025 	move	s8,v0
9d00d87c:	2402ffff 	li	v0,-1
9d00d880:	17c2ffdc 	bne	s8,v0,9d00d7f4 <__scan_fp+0xb0>
9d00d884:	8fa20018 	lw	v0,24(sp)
9d00d888:	5440ffeb 	bnezl	v0,9d00d838 <__scan_fp+0xf4>
9d00d88c:	02802025 	move	a0,s4
9d00d890:	8fbf004c 	lw	ra,76(sp)
9d00d894:	03c01025 	move	v0,s8
9d00d898:	8fb70044 	lw	s7,68(sp)
9d00d89c:	8fbe0048 	lw	s8,72(sp)
9d00d8a0:	8fb60040 	lw	s6,64(sp)
9d00d8a4:	8fb5003c 	lw	s5,60(sp)
9d00d8a8:	8fb40038 	lw	s4,56(sp)
9d00d8ac:	8fb30034 	lw	s3,52(sp)
9d00d8b0:	8fb20030 	lw	s2,48(sp)
9d00d8b4:	8fb1002c 	lw	s1,44(sp)
9d00d8b8:	8fb00028 	lw	s0,40(sp)
9d00d8bc:	03e00008 	jr	ra
9d00d8c0:	27bd0050 	addiu	sp,sp,80
9d00d8c4:	8ec20000 	lw	v0,0(s6)
9d00d8c8:	24120001 	li	s2,1
9d00d8cc:	24420001 	addiu	v0,v0,1
9d00d8d0:	aec20000 	sw	v0,0(s6)
9d00d8d4:	26100001 	addiu	s0,s0,1
9d00d8d8:	26f70001 	addiu	s7,s7,1
9d00d8dc:	1000ffba 	b	9d00d7c8 <__scan_fp+0x84>
9d00d8e0:	26310001 	addiu	s1,s1,1
9d00d8e4:	1440000c 	bnez	v0,9d00d918 <__scan_fp+0x1d4>
9d00d8e8:	2402002e 	li	v0,46
9d00d8ec:	17c2000a 	bne	s8,v0,9d00d918 <__scan_fp+0x1d4>
9d00d8f0:	00000000 	nop
9d00d8f4:	56a0ffc9 	bnezl	s5,9d00d81c <__scan_fp+0xd8>
9d00d8f8:	8e62004c 	lw	v0,76(s3)
9d00d8fc:	a23e0000 	sb	s8,0(s1)
9d00d900:	8ec20000 	lw	v0,0(s6)
9d00d904:	24420001 	addiu	v0,v0,1
9d00d908:	aec20000 	sw	v0,0(s6)
9d00d90c:	24020001 	li	v0,1
9d00d910:	1000fff0 	b	9d00d8d4 <__scan_fp+0x190>
9d00d914:	afa20020 	sw	v0,32(sp)
9d00d918:	16a0004b 	bnez	s5,9d00da48 <__scan_fp+0x304>
9d00d91c:	8fa2001c 	lw	v0,28(sp)
9d00d920:	1040000e 	beqz	v0,9d00d95c <__scan_fp+0x218>
9d00d924:	03c02025 	move	a0,s8
9d00d928:	0f4051de 	jal	9d014778 <tolower>
9d00d92c:	00000000 	nop
9d00d930:	38420070 	xori	v0,v0,0x70
9d00d934:	2c420001 	sltiu	v0,v0,1
9d00d938:	10400041 	beqz	v0,9d00da40 <__scan_fp+0x2fc>
9d00d93c:	26420001 	addiu	v0,s2,1
9d00d940:	a23e0000 	sb	s8,0(s1)
9d00d944:	8ec20000 	lw	v0,0(s6)
9d00d948:	00009025 	move	s2,zero
9d00d94c:	02e0a825 	move	s5,s7
9d00d950:	24420001 	addiu	v0,v0,1
9d00d954:	1000ffdf 	b	9d00d8d4 <__scan_fp+0x190>
9d00d958:	aec20000 	sw	v0,0(s6)
9d00d95c:	0f4051de 	jal	9d014778 <tolower>
9d00d960:	00000000 	nop
9d00d964:	1000fff3 	b	9d00d934 <__scan_fp+0x1f0>
9d00d968:	38420065 	xori	v0,v0,0x65
9d00d96c:	0f4051de 	jal	9d014778 <tolower>
9d00d970:	03c02025 	move	a0,s8
9d00d974:	24030078 	li	v1,120
9d00d978:	14430033 	bne	v0,v1,9d00da48 <__scan_fp+0x304>
9d00d97c:	24030030 	li	v1,48
9d00d980:	8222ffff 	lb	v0,-1(s1)
9d00d984:	14430031 	bne	v0,v1,9d00da4c <__scan_fp+0x308>
9d00d988:	8fa2001c 	lw	v0,28(sp)
9d00d98c:	a23e0000 	sb	s8,0(s1)
9d00d990:	8ec20000 	lw	v0,0(s6)
9d00d994:	24420001 	addiu	v0,v0,1
9d00d998:	aec20000 	sw	v0,0(s6)
9d00d99c:	24020001 	li	v0,1
9d00d9a0:	1000ffcc 	b	9d00d8d4 <__scan_fp+0x190>
9d00d9a4:	afa2001c 	sw	v0,28(sp)
9d00d9a8:	2c42000a 	sltiu	v0,v0,10
9d00d9ac:	1000002c 	b	9d00da60 <__scan_fp+0x31c>
9d00d9b0:	38420001 	xori	v0,v0,0x1
9d00d9b4:	0f4048dc 	jal	9d012370 <__shgetc>
9d00d9b8:	02602025 	move	a0,s3
9d00d9bc:	0040b825 	move	s7,v0
9d00d9c0:	2402ffff 	li	v0,-1
9d00d9c4:	52e2ff9b 	beql	s7,v0,9d00d834 <__scan_fp+0xf0>
9d00d9c8:	8fa20018 	lw	v0,24(sp)
9d00d9cc:	10000043 	b	9d00dadc <__scan_fp+0x398>
9d00d9d0:	02e02025 	move	a0,s7
9d00d9d4:	0f4051de 	jal	9d014778 <tolower>
9d00d9d8:	00000000 	nop
9d00d9dc:	00122080 	sll	a0,s2,0x2
9d00d9e0:	27a30010 	addiu	v1,sp,16
9d00d9e4:	00642021 	addu	a0,v1,a0
9d00d9e8:	8c840000 	lw	a0,0(a0)
9d00d9ec:	00952021 	addu	a0,a0,s5
9d00d9f0:	80840000 	lb	a0,0(a0)
9d00d9f4:	54440044 	bnel	v0,a0,9d00db08 <__scan_fp+0x3c4>
9d00d9f8:	023e882a 	slt	s1,s1,s8
9d00d9fc:	029e1821 	addu	v1,s4,s8
9d00da00:	26b50001 	addiu	s5,s5,1
9d00da04:	24020003 	li	v0,3
9d00da08:	16a2002a 	bne	s5,v0,9d00dab4 <__scan_fp+0x370>
9d00da0c:	a0770000 	sb	s7,0(v1)
9d00da10:	26020003 	addiu	v0,s0,3
9d00da14:	afa20018 	sw	v0,24(sp)
9d00da18:	8ec20000 	lw	v0,0(s6)
9d00da1c:	24420003 	addiu	v0,v0,3
9d00da20:	1000ff83 	b	9d00d830 <__scan_fp+0xec>
9d00da24:	aec20000 	sw	v0,0(s6)
9d00da28:	1000fff4 	b	9d00d9fc <__scan_fp+0x2b8>
9d00da2c:	00009025 	move	s2,zero
9d00da30:	8ec20000 	lw	v0,0(s6)
9d00da34:	24420001 	addiu	v0,v0,1
9d00da38:	1000ffa6 	b	9d00d8d4 <__scan_fp+0x190>
9d00da3c:	aec20000 	sw	v0,0(s6)
9d00da40:	1050ffca 	beq	v0,s0,9d00d96c <__scan_fp+0x228>
9d00da44:	00000000 	nop
9d00da48:	8fa2001c 	lw	v0,28(sp)
9d00da4c:	1040ffd6 	beqz	v0,9d00d9a8 <__scan_fp+0x264>
9d00da50:	27c2ffd0 	addiu	v0,s8,-48
9d00da54:	0f405192 	jal	9d014648 <isxdigit>
9d00da58:	03c02025 	move	a0,s8
9d00da5c:	2c420001 	sltiu	v0,v0,1
9d00da60:	5040fff3 	beqzl	v0,9d00da30 <__scan_fp+0x2ec>
9d00da64:	a23e0000 	sb	s8,0(s1)
9d00da68:	8e62004c 	lw	v0,76(s3)
9d00da6c:	10400004 	beqz	v0,9d00da80 <__scan_fp+0x33c>
9d00da70:	00000000 	nop
9d00da74:	8e62003c 	lw	v0,60(s3)
9d00da78:	2442ffff 	addiu	v0,v0,-1
9d00da7c:	ae62003c 	sw	v0,60(s3)
9d00da80:	1612ff6b 	bne	s0,s2,9d00d830 <__scan_fp+0xec>
9d00da84:	3c029d00 	lui	v0,0x9d00
9d00da88:	24427678 	addiu	v0,v0,30328
9d00da8c:	afa20010 	sw	v0,16(sp)
9d00da90:	8fa20024 	lw	v0,36(sp)
9d00da94:	26110002 	addiu	s1,s0,2
9d00da98:	0222102a 	slt	v0,s1,v0
9d00da9c:	1040ff64 	beqz	v0,9d00d830 <__scan_fp+0xec>
9d00daa0:	3c029d00 	lui	v0,0x9d00
9d00daa4:	2442767c 	addiu	v0,v0,30332
9d00daa8:	afa20014 	sw	v0,20(sp)
9d00daac:	0000a825 	move	s5,zero
9d00dab0:	2412ffff 	li	s2,-1
9d00dab4:	8e62003c 	lw	v0,60(s3)
9d00dab8:	8e64004c 	lw	a0,76(s3)
9d00dabc:	0044202b 	sltu	a0,v0,a0
9d00dac0:	1080ffbc 	beqz	a0,9d00d9b4 <__scan_fp+0x270>
9d00dac4:	02b0f021 	addu	s8,s5,s0
9d00dac8:	24440001 	addiu	a0,v0,1
9d00dacc:	ae64003c 	sw	a0,60(s3)
9d00dad0:	90570000 	lbu	s7,0(v0)
9d00dad4:	2402ffff 	li	v0,-1
9d00dad8:	02e02025 	move	a0,s7
9d00dadc:	1642ffbd 	bne	s2,v0,9d00d9d4 <__scan_fp+0x290>
9d00dae0:	00000000 	nop
9d00dae4:	0f4051de 	jal	9d014778 <tolower>
9d00dae8:	00000000 	nop
9d00daec:	0040b825 	move	s7,v0
9d00daf0:	24020069 	li	v0,105
9d00daf4:	12e2ffcc 	beq	s7,v0,9d00da28 <__scan_fp+0x2e4>
9d00daf8:	2402006e 	li	v0,110
9d00dafc:	52e2ffbf 	beql	s7,v0,9d00d9fc <__scan_fp+0x2b8>
9d00db00:	24120001 	li	s2,1
9d00db04:	023e882a 	slt	s1,s1,s8
9d00db08:	1620ffc2 	bnez	s1,9d00da14 <__scan_fp+0x2d0>
9d00db0c:	26020003 	addiu	v0,s0,3
9d00db10:	27deffff 	addiu	s8,s8,-1
9d00db14:	03d0102a 	slt	v0,s8,s0
9d00db18:	1440ff46 	bnez	v0,9d00d834 <__scan_fp+0xf0>
9d00db1c:	8fa20018 	lw	v0,24(sp)
9d00db20:	8e62004c 	lw	v0,76(s3)
9d00db24:	5040fffb 	beqzl	v0,9d00db14 <__scan_fp+0x3d0>
9d00db28:	27deffff 	addiu	s8,s8,-1
9d00db2c:	8e62003c 	lw	v0,60(s3)
9d00db30:	2442ffff 	addiu	v0,v0,-1
9d00db34:	1000fff6 	b	9d00db10 <__scan_fp+0x3cc>
9d00db38:	ae62003c 	sw	v0,60(s3)

Disassembly of section .text:

9d00db3c <__udivdi3>:
9d00db3c:	00c04025 	move	t0,a2
9d00db40:	00e01825 	move	v1,a3
9d00db44:	00805025 	move	t2,a0
9d00db48:	14e00098 	bnez	a3,9d00ddac <__udivdi3+0x270>
9d00db4c:	00a01025 	move	v0,a1
9d00db50:	00a6302b 	sltu	a2,a1,a2
9d00db54:	10c00035 	beqz	a2,9d00dc2c <__udivdi3+0xf0>
9d00db58:	00000000 	nop
9d00db5c:	71052820 	clz	a1,t0
9d00db60:	10a00006 	beqz	a1,9d00db7c <__udivdi3+0x40>
9d00db64:	00052023 	negu	a0,a1
9d00db68:	008a2006 	srlv	a0,t2,a0
9d00db6c:	00a21004 	sllv	v0,v0,a1
9d00db70:	00a84004 	sllv	t0,t0,a1
9d00db74:	00821025 	or	v0,a0,v0
9d00db78:	00aa5004 	sllv	t2,t2,a1
9d00db7c:	00083402 	srl	a2,t0,0x10
9d00db80:	0046001b 	divu	zero,v0,a2
9d00db84:	00c001f4 	teq	a2,zero,0x7
9d00db88:	3105ffff 	andi	a1,t0,0xffff
9d00db8c:	000a2402 	srl	a0,t2,0x10
9d00db90:	00003812 	mflo	a3
9d00db94:	00001010 	mfhi	v0
9d00db98:	00021400 	sll	v0,v0,0x10
9d00db9c:	00442025 	or	a0,v0,a0
9d00dba0:	70a74802 	mul	t1,a1,a3
9d00dba4:	0089582b 	sltu	t3,a0,t1
9d00dba8:	1160000a 	beqz	t3,9d00dbd4 <__udivdi3+0x98>
9d00dbac:	00e01025 	move	v0,a3
9d00dbb0:	00882021 	addu	a0,a0,t0
9d00dbb4:	0088582b 	sltu	t3,a0,t0
9d00dbb8:	15600006 	bnez	t3,9d00dbd4 <__udivdi3+0x98>
9d00dbbc:	24e2ffff 	addiu	v0,a3,-1
9d00dbc0:	0089582b 	sltu	t3,a0,t1
9d00dbc4:	51600004 	beqzl	t3,9d00dbd8 <__udivdi3+0x9c>
9d00dbc8:	00892023 	subu	a0,a0,t1
9d00dbcc:	24e2fffe 	addiu	v0,a3,-2
9d00dbd0:	00882021 	addu	a0,a0,t0
9d00dbd4:	00892023 	subu	a0,a0,t1
9d00dbd8:	0086001b 	divu	zero,a0,a2
9d00dbdc:	00c001f4 	teq	a2,zero,0x7
9d00dbe0:	00003010 	mfhi	a2
9d00dbe4:	00063400 	sll	a2,a2,0x10
9d00dbe8:	00002012 	mflo	a0
9d00dbec:	70a43802 	mul	a3,a1,a0
9d00dbf0:	3145ffff 	andi	a1,t2,0xffff
9d00dbf4:	00c52825 	or	a1,a2,a1
9d00dbf8:	00a7482b 	sltu	t1,a1,a3
9d00dbfc:	11200008 	beqz	t1,9d00dc20 <__udivdi3+0xe4>
9d00dc00:	00803025 	move	a2,a0
9d00dc04:	01052821 	addu	a1,t0,a1
9d00dc08:	00a8402b 	sltu	t0,a1,t0
9d00dc0c:	15000004 	bnez	t0,9d00dc20 <__udivdi3+0xe4>
9d00dc10:	2486ffff 	addiu	a2,a0,-1
9d00dc14:	00a7282b 	sltu	a1,a1,a3
9d00dc18:	54a00001 	bnezl	a1,9d00dc20 <__udivdi3+0xe4>
9d00dc1c:	2486fffe 	addiu	a2,a0,-2
9d00dc20:	00021400 	sll	v0,v0,0x10
9d00dc24:	03e00008 	jr	ra
9d00dc28:	00461025 	or	v0,v0,a2
9d00dc2c:	15000004 	bnez	t0,9d00dc40 <__udivdi3+0x104>
9d00dc30:	24020001 	li	v0,1
9d00dc34:	0048001b 	divu	zero,v0,t0
9d00dc38:	010001f4 	teq	t0,zero,0x7
9d00dc3c:	00004012 	mflo	t0
9d00dc40:	710b5820 	clz	t3,t0
9d00dc44:	15600023 	bnez	t3,9d00dcd4 <__udivdi3+0x198>
9d00dc48:	24070020 	li	a3,32
9d00dc4c:	00a82823 	subu	a1,a1,t0
9d00dc50:	24030001 	li	v1,1
9d00dc54:	00083402 	srl	a2,t0,0x10
9d00dc58:	00a6001b 	divu	zero,a1,a2
9d00dc5c:	00c001f4 	teq	a2,zero,0x7
9d00dc60:	3107ffff 	andi	a3,t0,0xffff
9d00dc64:	000a2402 	srl	a0,t2,0x10
9d00dc68:	00002812 	mflo	a1
9d00dc6c:	00001010 	mfhi	v0
9d00dc70:	00021400 	sll	v0,v0,0x10
9d00dc74:	00442025 	or	a0,v0,a0
9d00dc78:	70e54802 	mul	t1,a3,a1
9d00dc7c:	0089582b 	sltu	t3,a0,t1
9d00dc80:	1160000a 	beqz	t3,9d00dcac <__udivdi3+0x170>
9d00dc84:	00a01025 	move	v0,a1
9d00dc88:	00882021 	addu	a0,a0,t0
9d00dc8c:	0088582b 	sltu	t3,a0,t0
9d00dc90:	15600006 	bnez	t3,9d00dcac <__udivdi3+0x170>
9d00dc94:	24a2ffff 	addiu	v0,a1,-1
9d00dc98:	0089582b 	sltu	t3,a0,t1
9d00dc9c:	51600004 	beqzl	t3,9d00dcb0 <__udivdi3+0x174>
9d00dca0:	00892023 	subu	a0,a0,t1
9d00dca4:	24a2fffe 	addiu	v0,a1,-2
9d00dca8:	00882021 	addu	a0,a0,t0
9d00dcac:	00892023 	subu	a0,a0,t1
9d00dcb0:	0086001b 	divu	zero,a0,a2
9d00dcb4:	00c001f4 	teq	a2,zero,0x7
9d00dcb8:	314affff 	andi	t2,t2,0xffff
9d00dcbc:	00002810 	mfhi	a1
9d00dcc0:	00052c00 	sll	a1,a1,0x10
9d00dcc4:	00aa2825 	or	a1,a1,t2
9d00dcc8:	00002012 	mflo	a0
9d00dccc:	1000ffca 	b	9d00dbf8 <__udivdi3+0xbc>
9d00dcd0:	70e43802 	mul	a3,a3,a0
9d00dcd4:	00eb3823 	subu	a3,a3,t3
9d00dcd8:	01684004 	sllv	t0,t0,t3
9d00dcdc:	00e44806 	srlv	t1,a0,a3
9d00dce0:	00083402 	srl	a2,t0,0x10
9d00dce4:	00e53806 	srlv	a3,a1,a3
9d00dce8:	00e6001b 	divu	zero,a3,a2
9d00dcec:	00c001f4 	teq	a2,zero,0x7
9d00dcf0:	01651004 	sllv	v0,a1,t3
9d00dcf4:	01224825 	or	t1,t1,v0
9d00dcf8:	3102ffff 	andi	v0,t0,0xffff
9d00dcfc:	00091c02 	srl	v1,t1,0x10
9d00dd00:	00002812 	mflo	a1
9d00dd04:	00003810 	mfhi	a3
9d00dd08:	00073c00 	sll	a3,a3,0x10
9d00dd0c:	00e33825 	or	a3,a3,v1
9d00dd10:	70455002 	mul	t2,v0,a1
9d00dd14:	00ea602b 	sltu	t4,a3,t2
9d00dd18:	1180000a 	beqz	t4,9d00dd44 <__udivdi3+0x208>
9d00dd1c:	00a01825 	move	v1,a1
9d00dd20:	00e83821 	addu	a3,a3,t0
9d00dd24:	00e8602b 	sltu	t4,a3,t0
9d00dd28:	15800006 	bnez	t4,9d00dd44 <__udivdi3+0x208>
9d00dd2c:	24a3ffff 	addiu	v1,a1,-1
9d00dd30:	00ea602b 	sltu	t4,a3,t2
9d00dd34:	51800004 	beqzl	t4,9d00dd48 <__udivdi3+0x20c>
9d00dd38:	00ea3823 	subu	a3,a3,t2
9d00dd3c:	24a3fffe 	addiu	v1,a1,-2
9d00dd40:	00e83821 	addu	a3,a3,t0
9d00dd44:	00ea3823 	subu	a3,a3,t2
9d00dd48:	00e6001b 	divu	zero,a3,a2
9d00dd4c:	00c001f4 	teq	a2,zero,0x7
9d00dd50:	3125ffff 	andi	a1,t1,0xffff
9d00dd54:	00003012 	mflo	a2
9d00dd58:	00003810 	mfhi	a3
9d00dd5c:	00073c00 	sll	a3,a3,0x10
9d00dd60:	00e52825 	or	a1,a3,a1
9d00dd64:	70461002 	mul	v0,v0,a2
9d00dd68:	00a2482b 	sltu	t1,a1,v0
9d00dd6c:	1120000a 	beqz	t1,9d00dd98 <__udivdi3+0x25c>
9d00dd70:	00c03825 	move	a3,a2
9d00dd74:	00a82821 	addu	a1,a1,t0
9d00dd78:	00a8482b 	sltu	t1,a1,t0
9d00dd7c:	15200006 	bnez	t1,9d00dd98 <__udivdi3+0x25c>
9d00dd80:	24c7ffff 	addiu	a3,a2,-1
9d00dd84:	00a2482b 	sltu	t1,a1,v0
9d00dd88:	51200004 	beqzl	t1,9d00dd9c <__udivdi3+0x260>
9d00dd8c:	00031c00 	sll	v1,v1,0x10
9d00dd90:	24c7fffe 	addiu	a3,a2,-2
9d00dd94:	00a82821 	addu	a1,a1,t0
9d00dd98:	00031c00 	sll	v1,v1,0x10
9d00dd9c:	01645004 	sllv	t2,a0,t3
9d00dda0:	00a22823 	subu	a1,a1,v0
9d00dda4:	1000ffab 	b	9d00dc54 <__udivdi3+0x118>
9d00dda8:	00671825 	or	v1,v1,a3
9d00ddac:	00a7402b 	sltu	t0,a1,a3
9d00ddb0:	00001825 	move	v1,zero
9d00ddb4:	1500004e 	bnez	t0,9d00def0 <__udivdi3+0x3b4>
9d00ddb8:	00001025 	move	v0,zero
9d00ddbc:	70ea5020 	clz	t2,a3
9d00ddc0:	15400007 	bnez	t2,9d00dde0 <__udivdi3+0x2a4>
9d00ddc4:	24090020 	li	t1,32
9d00ddc8:	00e5282b 	sltu	a1,a3,a1
9d00ddcc:	14a00048 	bnez	a1,9d00def0 <__udivdi3+0x3b4>
9d00ddd0:	24020001 	li	v0,1
9d00ddd4:	0086102b 	sltu	v0,a0,a2
9d00ddd8:	03e00008 	jr	ra
9d00dddc:	38420001 	xori	v0,v0,0x1
9d00dde0:	012a4823 	subu	t1,t1,t2
9d00dde4:	01261006 	srlv	v0,a2,t1
9d00dde8:	01473804 	sllv	a3,a3,t2
9d00ddec:	00473825 	or	a3,v0,a3
9d00ddf0:	01451804 	sllv	v1,a1,t2
9d00ddf4:	00074402 	srl	t0,a3,0x10
9d00ddf8:	01252806 	srlv	a1,a1,t1
9d00ddfc:	00a8001b 	divu	zero,a1,t0
9d00de00:	010001f4 	teq	t0,zero,0x7
9d00de04:	30ebffff 	andi	t3,a3,0xffff
9d00de08:	01241006 	srlv	v0,a0,t1
9d00de0c:	00431025 	or	v0,v0,v1
9d00de10:	00021c02 	srl	v1,v0,0x10
9d00de14:	00002812 	mflo	a1
9d00de18:	00004810 	mfhi	t1
9d00de1c:	00094c00 	sll	t1,t1,0x10
9d00de20:	01234825 	or	t1,t1,v1
9d00de24:	71656002 	mul	t4,t3,a1
9d00de28:	012c682b 	sltu	t5,t1,t4
9d00de2c:	11a0000a 	beqz	t5,9d00de58 <__udivdi3+0x31c>
9d00de30:	00a01825 	move	v1,a1
9d00de34:	01274821 	addu	t1,t1,a3
9d00de38:	0127682b 	sltu	t5,t1,a3
9d00de3c:	15a00006 	bnez	t5,9d00de58 <__udivdi3+0x31c>
9d00de40:	24a3ffff 	addiu	v1,a1,-1
9d00de44:	012c682b 	sltu	t5,t1,t4
9d00de48:	51a00004 	beqzl	t5,9d00de5c <__udivdi3+0x320>
9d00de4c:	012c4823 	subu	t1,t1,t4
9d00de50:	24a3fffe 	addiu	v1,a1,-2
9d00de54:	01274821 	addu	t1,t1,a3
9d00de58:	012c4823 	subu	t1,t1,t4
9d00de5c:	0128001b 	divu	zero,t1,t0
9d00de60:	010001f4 	teq	t0,zero,0x7
9d00de64:	3045ffff 	andi	a1,v0,0xffff
9d00de68:	00004012 	mflo	t0
9d00de6c:	00004810 	mfhi	t1
9d00de70:	00094c00 	sll	t1,t1,0x10
9d00de74:	01252825 	or	a1,t1,a1
9d00de78:	71685802 	mul	t3,t3,t0
9d00de7c:	00ab102b 	sltu	v0,a1,t3
9d00de80:	1040000a 	beqz	v0,9d00deac <__udivdi3+0x370>
9d00de84:	01004825 	move	t1,t0
9d00de88:	00a72821 	addu	a1,a1,a3
9d00de8c:	00a7102b 	sltu	v0,a1,a3
9d00de90:	14400006 	bnez	v0,9d00deac <__udivdi3+0x370>
9d00de94:	2509ffff 	addiu	t1,t0,-1
9d00de98:	00ab102b 	sltu	v0,a1,t3
9d00de9c:	10400004 	beqz	v0,9d00deb0 <__udivdi3+0x374>
9d00dea0:	00031400 	sll	v0,v1,0x10
9d00dea4:	2509fffe 	addiu	t1,t0,-2
9d00dea8:	00a72821 	addu	a1,a1,a3
9d00deac:	00031400 	sll	v0,v1,0x10
9d00deb0:	01463004 	sllv	a2,a2,t2
9d00deb4:	00491025 	or	v0,v0,t1
9d00deb8:	00c20019 	multu	a2,v0
9d00debc:	00ab2823 	subu	a1,a1,t3
9d00dec0:	00003810 	mfhi	a3
9d00dec4:	00a7182b 	sltu	v1,a1,a3
9d00dec8:	14600007 	bnez	v1,9d00dee8 <__udivdi3+0x3ac>
9d00decc:	00003012 	mflo	a2
9d00ded0:	14a70007 	bne	a1,a3,9d00def0 <__udivdi3+0x3b4>
9d00ded4:	00001825 	move	v1,zero
9d00ded8:	01442004 	sllv	a0,a0,t2
9d00dedc:	0086202b 	sltu	a0,a0,a2
9d00dee0:	10800003 	beqz	a0,9d00def0 <__udivdi3+0x3b4>
9d00dee4:	00000000 	nop
9d00dee8:	2442ffff 	addiu	v0,v0,-1
9d00deec:	00001825 	move	v1,zero
9d00def0:	03e00008 	jr	ra
9d00def4:	00000000 	nop

9d00def8 <__umoddi3>:
9d00def8:	00c04825 	move	t1,a2
9d00defc:	00801025 	move	v0,a0
9d00df00:	14e0008b 	bnez	a3,9d00e130 <__umoddi3+0x238>
9d00df04:	00a01825 	move	v1,a1
9d00df08:	00a6302b 	sltu	a2,a1,a2
9d00df0c:	10c00033 	beqz	a2,9d00dfdc <__umoddi3+0xe4>
9d00df10:	712a5020 	clz	t2,t1
9d00df14:	11400008 	beqz	t2,9d00df38 <__umoddi3+0x40>
9d00df18:	00095c02 	srl	t3,t1,0x10
9d00df1c:	01451804 	sllv	v1,a1,t2
9d00df20:	000a2823 	negu	a1,t2
9d00df24:	00a42806 	srlv	a1,a0,a1
9d00df28:	01494804 	sllv	t1,t1,t2
9d00df2c:	00a31825 	or	v1,a1,v1
9d00df30:	01441004 	sllv	v0,a0,t2
9d00df34:	00095c02 	srl	t3,t1,0x10
9d00df38:	006b001b 	divu	zero,v1,t3
9d00df3c:	016001f4 	teq	t3,zero,0x7
9d00df40:	3124ffff 	andi	a0,t1,0xffff
9d00df44:	00001812 	mflo	v1
9d00df48:	00002810 	mfhi	a1
9d00df4c:	70643002 	mul	a2,v1,a0
9d00df50:	00051c00 	sll	v1,a1,0x10
9d00df54:	00022c02 	srl	a1,v0,0x10
9d00df58:	00651825 	or	v1,v1,a1
9d00df5c:	0066282b 	sltu	a1,v1,a2
9d00df60:	50a00008 	beqzl	a1,9d00df84 <__umoddi3+0x8c>
9d00df64:	00661823 	subu	v1,v1,a2
9d00df68:	00691821 	addu	v1,v1,t1
9d00df6c:	0069282b 	sltu	a1,v1,t1
9d00df70:	14a00003 	bnez	a1,9d00df80 <__umoddi3+0x88>
9d00df74:	0066282b 	sltu	a1,v1,a2
9d00df78:	54a00001 	bnezl	a1,9d00df80 <__umoddi3+0x88>
9d00df7c:	00691821 	addu	v1,v1,t1
9d00df80:	00661823 	subu	v1,v1,a2
9d00df84:	006b001b 	divu	zero,v1,t3
9d00df88:	016001f4 	teq	t3,zero,0x7
9d00df8c:	3042ffff 	andi	v0,v0,0xffff
9d00df90:	00003010 	mfhi	a2
9d00df94:	00001812 	mflo	v1
9d00df98:	70645802 	mul	t3,v1,a0
9d00df9c:	00061c00 	sll	v1,a2,0x10
9d00dfa0:	00621025 	or	v0,v1,v0
9d00dfa4:	004b182b 	sltu	v1,v0,t3
9d00dfa8:	50600009 	beqzl	v1,9d00dfd0 <__umoddi3+0xd8>
9d00dfac:	004b1023 	subu	v0,v0,t3
9d00dfb0:	00491021 	addu	v0,v0,t1
9d00dfb4:	0049182b 	sltu	v1,v0,t1
9d00dfb8:	54600005 	bnezl	v1,9d00dfd0 <__umoddi3+0xd8>
9d00dfbc:	004b1023 	subu	v0,v0,t3
9d00dfc0:	004b182b 	sltu	v1,v0,t3
9d00dfc4:	54600001 	bnezl	v1,9d00dfcc <__umoddi3+0xd4>
9d00dfc8:	00491021 	addu	v0,v0,t1
9d00dfcc:	004b1023 	subu	v0,v0,t3
9d00dfd0:	01421006 	srlv	v0,v0,t2
9d00dfd4:	03e00008 	jr	ra
9d00dfd8:	00001825 	move	v1,zero
9d00dfdc:	15200004 	bnez	t1,9d00dff0 <__umoddi3+0xf8>
9d00dfe0:	24030001 	li	v1,1
9d00dfe4:	0069001b 	divu	zero,v1,t1
9d00dfe8:	012001f4 	teq	t1,zero,0x7
9d00dfec:	00004812 	mflo	t1
9d00dff0:	712a5020 	clz	t2,t1
9d00dff4:	1540001f 	bnez	t2,9d00e074 <__umoddi3+0x17c>
9d00dff8:	24070020 	li	a3,32
9d00dffc:	00a92823 	subu	a1,a1,t1
9d00e000:	00095c02 	srl	t3,t1,0x10
9d00e004:	00ab001b 	divu	zero,a1,t3
9d00e008:	016001f4 	teq	t3,zero,0x7
9d00e00c:	3124ffff 	andi	a0,t1,0xffff
9d00e010:	00002812 	mflo	a1
9d00e014:	00001810 	mfhi	v1
9d00e018:	70a43002 	mul	a2,a1,a0
9d00e01c:	00032c00 	sll	a1,v1,0x10
9d00e020:	00021c02 	srl	v1,v0,0x10
9d00e024:	00a32825 	or	a1,a1,v1
9d00e028:	00a6182b 	sltu	v1,a1,a2
9d00e02c:	50600008 	beqzl	v1,9d00e050 <__umoddi3+0x158>
9d00e030:	00a63023 	subu	a2,a1,a2
9d00e034:	00a92821 	addu	a1,a1,t1
9d00e038:	00a9182b 	sltu	v1,a1,t1
9d00e03c:	14600003 	bnez	v1,9d00e04c <__umoddi3+0x154>
9d00e040:	00a6182b 	sltu	v1,a1,a2
9d00e044:	54600001 	bnezl	v1,9d00e04c <__umoddi3+0x154>
9d00e048:	00a92821 	addu	a1,a1,t1
9d00e04c:	00a63023 	subu	a2,a1,a2
9d00e050:	00cb001b 	divu	zero,a2,t3
9d00e054:	016001f4 	teq	t3,zero,0x7
9d00e058:	3042ffff 	andi	v0,v0,0xffff
9d00e05c:	00002810 	mfhi	a1
9d00e060:	00003012 	mflo	a2
9d00e064:	70c45802 	mul	t3,a2,a0
9d00e068:	00053400 	sll	a2,a1,0x10
9d00e06c:	1000ffcd 	b	9d00dfa4 <__umoddi3+0xac>
9d00e070:	00c21025 	or	v0,a2,v0
9d00e074:	00ea3823 	subu	a3,a3,t2
9d00e078:	01494804 	sllv	t1,t1,t2
9d00e07c:	00e41806 	srlv	v1,a0,a3
9d00e080:	00093402 	srl	a2,t1,0x10
9d00e084:	00e53806 	srlv	a3,a1,a3
9d00e088:	00e6001b 	divu	zero,a3,a2
9d00e08c:	00c001f4 	teq	a2,zero,0x7
9d00e090:	01451004 	sllv	v0,a1,t2
9d00e094:	3128ffff 	andi	t0,t1,0xffff
9d00e098:	00621825 	or	v1,v1,v0
9d00e09c:	00032c02 	srl	a1,v1,0x10
9d00e0a0:	00003812 	mflo	a3
9d00e0a4:	00006010 	mfhi	t4
9d00e0a8:	70e81002 	mul	v0,a3,t0
9d00e0ac:	000c3c00 	sll	a3,t4,0x10
9d00e0b0:	00e53825 	or	a3,a3,a1
9d00e0b4:	00e2282b 	sltu	a1,a3,v0
9d00e0b8:	50a00008 	beqzl	a1,9d00e0dc <__umoddi3+0x1e4>
9d00e0bc:	00e23823 	subu	a3,a3,v0
9d00e0c0:	00e93821 	addu	a3,a3,t1
9d00e0c4:	00e9282b 	sltu	a1,a3,t1
9d00e0c8:	14a00003 	bnez	a1,9d00e0d8 <__umoddi3+0x1e0>
9d00e0cc:	00e2282b 	sltu	a1,a3,v0
9d00e0d0:	54a00001 	bnezl	a1,9d00e0d8 <__umoddi3+0x1e0>
9d00e0d4:	00e93821 	addu	a3,a3,t1
9d00e0d8:	00e23823 	subu	a3,a3,v0
9d00e0dc:	00e6001b 	divu	zero,a3,a2
9d00e0e0:	00c001f4 	teq	a2,zero,0x7
9d00e0e4:	3065ffff 	andi	a1,v1,0xffff
9d00e0e8:	00003012 	mflo	a2
9d00e0ec:	00003810 	mfhi	a3
9d00e0f0:	00073c00 	sll	a3,a3,0x10
9d00e0f4:	00e52825 	or	a1,a3,a1
9d00e0f8:	70c83002 	mul	a2,a2,t0
9d00e0fc:	00a6102b 	sltu	v0,a1,a2
9d00e100:	10400009 	beqz	v0,9d00e128 <__umoddi3+0x230>
9d00e104:	01441004 	sllv	v0,a0,t2
9d00e108:	00a92821 	addu	a1,a1,t1
9d00e10c:	00a9102b 	sltu	v0,a1,t1
9d00e110:	14400005 	bnez	v0,9d00e128 <__umoddi3+0x230>
9d00e114:	01441004 	sllv	v0,a0,t2
9d00e118:	00a6102b 	sltu	v0,a1,a2
9d00e11c:	54400001 	bnezl	v0,9d00e124 <__umoddi3+0x22c>
9d00e120:	00a92821 	addu	a1,a1,t1
9d00e124:	01441004 	sllv	v0,a0,t2
9d00e128:	1000ffb5 	b	9d00e000 <__umoddi3+0x108>
9d00e12c:	00a62823 	subu	a1,a1,a2
9d00e130:	00a7402b 	sltu	t0,a1,a3
9d00e134:	1500005c 	bnez	t0,9d00e2a8 <__umoddi3+0x3b0>
9d00e138:	70ee7020 	clz	t6,a3
9d00e13c:	15c0000a 	bnez	t6,9d00e168 <__umoddi3+0x270>
9d00e140:	00e5402b 	sltu	t0,a3,a1
9d00e144:	15000003 	bnez	t0,9d00e154 <__umoddi3+0x25c>
9d00e148:	0086402b 	sltu	t0,a0,a2
9d00e14c:	15000056 	bnez	t0,9d00e2a8 <__umoddi3+0x3b0>
9d00e150:	00000000 	nop
9d00e154:	00861023 	subu	v0,a0,a2
9d00e158:	00a72823 	subu	a1,a1,a3
9d00e15c:	0082182b 	sltu	v1,a0,v0
9d00e160:	03e00008 	jr	ra
9d00e164:	00a31823 	subu	v1,a1,v1
9d00e168:	240b0020 	li	t3,32
9d00e16c:	016e5823 	subu	t3,t3,t6
9d00e170:	01666006 	srlv	t4,a2,t3
9d00e174:	01c73804 	sllv	a3,a3,t6
9d00e178:	01873825 	or	a3,t4,a3
9d00e17c:	01c54004 	sllv	t0,a1,t6
9d00e180:	00074c02 	srl	t1,a3,0x10
9d00e184:	01652806 	srlv	a1,a1,t3
9d00e188:	00a9001b 	divu	zero,a1,t1
9d00e18c:	012001f4 	teq	t1,zero,0x7
9d00e190:	01641006 	srlv	v0,a0,t3
9d00e194:	00481025 	or	v0,v0,t0
9d00e198:	30e8ffff 	andi	t0,a3,0xffff
9d00e19c:	00026402 	srl	t4,v0,0x10
9d00e1a0:	00002812 	mflo	a1
9d00e1a4:	00005010 	mfhi	t2
9d00e1a8:	000a5400 	sll	t2,t2,0x10
9d00e1ac:	014c5025 	or	t2,t2,t4
9d00e1b0:	71051802 	mul	v1,t0,a1
9d00e1b4:	0143602b 	sltu	t4,t2,v1
9d00e1b8:	1180000a 	beqz	t4,9d00e1e4 <__umoddi3+0x2ec>
9d00e1bc:	00a06825 	move	t5,a1
9d00e1c0:	01475021 	addu	t2,t2,a3
9d00e1c4:	0147602b 	sltu	t4,t2,a3
9d00e1c8:	15800006 	bnez	t4,9d00e1e4 <__umoddi3+0x2ec>
9d00e1cc:	24adffff 	addiu	t5,a1,-1
9d00e1d0:	0143602b 	sltu	t4,t2,v1
9d00e1d4:	51800004 	beqzl	t4,9d00e1e8 <__umoddi3+0x2f0>
9d00e1d8:	01435023 	subu	t2,t2,v1
9d00e1dc:	24adfffe 	addiu	t5,a1,-2
9d00e1e0:	01475021 	addu	t2,t2,a3
9d00e1e4:	01435023 	subu	t2,t2,v1
9d00e1e8:	0149001b 	divu	zero,t2,t1
9d00e1ec:	012001f4 	teq	t1,zero,0x7
9d00e1f0:	00004812 	mflo	t1
9d00e1f4:	00005010 	mfhi	t2
9d00e1f8:	000a5400 	sll	t2,t2,0x10
9d00e1fc:	71092802 	mul	a1,t0,t1
9d00e200:	3048ffff 	andi	t0,v0,0xffff
9d00e204:	01484025 	or	t0,t2,t0
9d00e208:	0105102b 	sltu	v0,t0,a1
9d00e20c:	1040000a 	beqz	v0,9d00e238 <__umoddi3+0x340>
9d00e210:	01205025 	move	t2,t1
9d00e214:	01074021 	addu	t0,t0,a3
9d00e218:	0107102b 	sltu	v0,t0,a3
9d00e21c:	14400006 	bnez	v0,9d00e238 <__umoddi3+0x340>
9d00e220:	252affff 	addiu	t2,t1,-1
9d00e224:	0105102b 	sltu	v0,t0,a1
9d00e228:	10400004 	beqz	v0,9d00e23c <__umoddi3+0x344>
9d00e22c:	000d6400 	sll	t4,t5,0x10
9d00e230:	252afffe 	addiu	t2,t1,-2
9d00e234:	01074021 	addu	t0,t0,a3
9d00e238:	000d6400 	sll	t4,t5,0x10
9d00e23c:	01c61004 	sllv	v0,a2,t6
9d00e240:	018a6025 	or	t4,t4,t2
9d00e244:	01820019 	multu	t4,v0
9d00e248:	01054023 	subu	t0,t0,a1
9d00e24c:	01c41804 	sllv	v1,a0,t6
9d00e250:	00006810 	mfhi	t5
9d00e254:	010d202b 	sltu	a0,t0,t5
9d00e258:	01a02825 	move	a1,t5
9d00e25c:	00006012 	mflo	t4
9d00e260:	14800005 	bnez	a0,9d00e278 <__umoddi3+0x380>
9d00e264:	00003012 	mflo	a2
9d00e268:	150d0007 	bne	t0,t5,9d00e288 <__umoddi3+0x390>
9d00e26c:	006c202b 	sltu	a0,v1,t4
9d00e270:	10800006 	beqz	a0,9d00e28c <__umoddi3+0x394>
9d00e274:	00663023 	subu	a2,v1,a2
9d00e278:	01823023 	subu	a2,t4,v0
9d00e27c:	01a73823 	subu	a3,t5,a3
9d00e280:	0186602b 	sltu	t4,t4,a2
9d00e284:	00ec2823 	subu	a1,a3,t4
9d00e288:	00663023 	subu	a2,v1,a2
9d00e28c:	0066182b 	sltu	v1,v1,a2
9d00e290:	01054023 	subu	t0,t0,a1
9d00e294:	01031823 	subu	v1,t0,v1
9d00e298:	01631004 	sllv	v0,v1,t3
9d00e29c:	01c63006 	srlv	a2,a2,t6
9d00e2a0:	00461025 	or	v0,v0,a2
9d00e2a4:	01c31806 	srlv	v1,v1,t6
9d00e2a8:	03e00008 	jr	ra
9d00e2ac:	00000000 	nop

Disassembly of section .text.dp32mul:

9d00e2b0 <__muldf3>:
9d00e2b0:	00055040 000a5542 00054ac0 00047d42     @P..BU...J..B}..
9d00e2c0:	012f4825 000442c0 3c0e8000 012e4825     %H/..B.....<%H..
9d00e2d0:	00076840 000d6d42 000762c0 00067d42     @h..Bm...b..B}..
9d00e2e0:	018f6025 00065ac0 018e6025 00a72826     %`...Z..%`..&(..
9d00e2f0:	00ae2824 254fffff 2de107fe 10200047     $(....O%...-G. .
9d00e300:	00000000                                ....

9d00e304 <Clab1>:
9d00e304:	25afffff 	addiu	t7,t5,-1
9d00e308:	2de107fe 	sltiu	at,t7,2046
9d00e30c:	1020006f 	beqz	at,9d00e4cc <CspecB>
9d00e310:	00000000 	nop

9d00e314 <Clab2>:
9d00e314:	25affc02 	addiu	t7,t5,-1022
9d00e318:	014f5021 	addu	t2,t2,t7
9d00e31c:	012c0019 	multu	t1,t4
9d00e320:	00003812 	mflo	a3
9d00e324:	00007010 	mfhi	t6
9d00e328:	010b0019 	multu	t0,t3
9d00e32c:	00002012 	mflo	a0
9d00e330:	00003010 	mfhi	a2
9d00e334:	012b0019 	multu	t1,t3
9d00e338:	00005812 	mflo	t3
9d00e33c:	00006810 	mfhi	t5
9d00e340:	00cb3021 	addu	a2,a2,t3
9d00e344:	00cb782b 	sltu	t7,a2,t3
9d00e348:	00ed3821 	addu	a3,a3,t5
9d00e34c:	00ef3821 	addu	a3,a3,t7
9d00e350:	10ed0002 	beq	a3,t5,9d00e35c <L20>
9d00e354:	00000000 	nop
9d00e358:	00ed782b 	sltu	t7,a3,t5

9d00e35c <L20>:
9d00e35c:	01cf7021 	addu	t6,t6,t7
9d00e360:	010c0019 	multu	t0,t4
9d00e364:	00004012 	mflo	t0
9d00e368:	00004810 	mfhi	t1
9d00e36c:	00c83021 	addu	a2,a2,t0
9d00e370:	00c8782b 	sltu	t7,a2,t0
9d00e374:	00e93821 	addu	a3,a3,t1
9d00e378:	00ef3821 	addu	a3,a3,t7
9d00e37c:	10e90002 	beq	a3,t1,9d00e388 <L21>
9d00e380:	00000000 	nop
9d00e384:	00e9782b 	sltu	t7,a3,t1

9d00e388 <L21>:
9d00e388:	01cf7021 	addu	t6,t6,t7
9d00e38c:	00867825 	or	t7,a0,a2
9d00e390:	11e00002 	beqz	t7,9d00e39c <i13>
9d00e394:	00000000 	nop
9d00e398:	34e70001 	ori	a3,a3,0x1

9d00e39c <i13>:
9d00e39c:	000e4825 	or	t1,zero,t6
9d00e3a0:	05200006 	bltz	t1,9d00e3bc <i14>
9d00e3a4:	00074025 	or	t0,zero,a3
9d00e3a8:	0100782a 	slt	t7,t0,zero
9d00e3ac:	01084021 	addu	t0,t0,t0
9d00e3b0:	01294821 	addu	t1,t1,t1
9d00e3b4:	012f4821 	addu	t1,t1,t7
9d00e3b8:	254affff 	addiu	t2,t2,-1

9d00e3bc <i14>:
9d00e3bc:	254fffff 	addiu	t7,t2,-1
9d00e3c0:	2de107fe 	sltiu	at,t7,2046
9d00e3c4:	10200068 	beqz	at,9d00e568 <Coveund>
9d00e3c8:	00000000 	nop
9d00e3cc:	25080400 	addiu	t0,t0,1024
9d00e3d0:	2d0f0400 	sltiu	t7,t0,1024
9d00e3d4:	012f4821 	addu	t1,t1,t7
9d00e3d8:	012f782b 	sltu	t7,t1,t7
9d00e3dc:	014f5021 	addu	t2,t2,t7

9d00e3e0 <Clab8>:
9d00e3e0:	00087ac2 	srl	t7,t0,0xb
9d00e3e4:	31ef0001 	andi	t7,t7,0x1
9d00e3e8:	010f4023 	subu	t0,t0,t7
9d00e3ec:	000822c2 	srl	a0,t0,0xb
9d00e3f0:	00097d40 	sll	t7,t1,0x15
9d00e3f4:	008f2025 	or	a0,a0,t7
9d00e3f8:	00097840 	sll	t7,t1,0x1
9d00e3fc:	000f7b02 	srl	t7,t7,0xc
9d00e400:	00af2825 	or	a1,a1,t7
9d00e404:	000a7d00 	sll	t7,t2,0x14
9d00e408:	00af2825 	or	a1,a1,t7

9d00e40c <Cret>:
9d00e40c:	00041025 	or	v0,zero,a0
9d00e410:	00051825 	or	v1,zero,a1

9d00e414 <C999>:
9d00e414:	03e00008 	jr	ra
9d00e418:	00000000 	nop

9d00e41c <CspecA>:
9d00e41c:	0100782a 	slt	t7,t0,zero
9d00e420:	01084021 	addu	t0,t0,t0
9d00e424:	01294821 	addu	t1,t1,t1
9d00e428:	1540001c 	bnez	t2,9d00e49c <i15>
9d00e42c:	012f4821 	addu	t1,t1,t7
9d00e430:	01287825 	or	t7,t1,t0
9d00e434:	11e00014 	beqz	t7,9d00e488 <i16>
9d00e438:	00000000 	nop
9d00e43c:	15200008 	bnez	t1,9d00e460 <L22>
9d00e440:	00000000 	nop
9d00e444:	15000003 	bnez	t0,9d00e454 <L23>
9d00e448:	00000000 	nop
9d00e44c:	1000ffad 	b	9d00e304 <Clab1>
9d00e450:	240a0000 	li	t2,0

9d00e454 <L23>:
9d00e454:	01004825 	move	t1,t0
9d00e458:	24080000 	li	t0,0
9d00e45c:	254affe0 	addiu	t2,t2,-32

9d00e460 <L22>:
9d00e460:	712e7020 	clz	t6,t1
9d00e464:	11c0ffa7 	beqz	t6,9d00e304 <Clab1>
9d00e468:	00000000 	nop
9d00e46c:	014e5023 	subu	t2,t2,t6
9d00e470:	000e3822 	neg	a3,t6
9d00e474:	00e83806 	srlv	a3,t0,a3
9d00e478:	01c84004 	sllv	t0,t0,t6
9d00e47c:	01c94804 	sllv	t1,t1,t6
9d00e480:	1000ffa0 	b	9d00e304 <Clab1>
9d00e484:	01274825 	or	t1,t1,a3

9d00e488 <i16>:
9d00e488:	240107ff 	li	at,2047
9d00e48c:	11a10033 	beq	t5,at,9d00e55c <Cnan>
9d00e490:	00000000 	nop
9d00e494:	1000ffdd 	b	9d00e40c <Cret>
9d00e498:	00000000 	nop

9d00e49c <i15>:
9d00e49c:	01287825 	or	t7,t1,t0
9d00e4a0:	15e0002e 	bnez	t7,9d00e55c <Cnan>
9d00e4a4:	00000000 	nop
9d00e4a8:	15a00005 	bnez	t5,9d00e4c0 <i17>
9d00e4ac:	00000000 	nop
9d00e4b0:	000c7840 	sll	t7,t4,0x1
9d00e4b4:	01eb7825 	or	t7,t7,t3
9d00e4b8:	11e00028 	beqz	t7,9d00e55c <Cnan>
9d00e4bc:	00000000 	nop

9d00e4c0 <i17>:
9d00e4c0:	240107ff 	li	at,2047
9d00e4c4:	15a10021 	bne	t5,at,9d00e54c <Cinf>
9d00e4c8:	00000000 	nop

9d00e4cc <CspecB>:
9d00e4cc:	0160782a 	slt	t7,t3,zero
9d00e4d0:	016b5821 	addu	t3,t3,t3
9d00e4d4:	018c6021 	addu	t4,t4,t4
9d00e4d8:	15a00019 	bnez	t5,9d00e540 <i18>
9d00e4dc:	018f6021 	addu	t4,t4,t7
9d00e4e0:	018b7825 	or	t7,t4,t3
9d00e4e4:	11e00014 	beqz	t7,9d00e538 <i19>
9d00e4e8:	00000000 	nop
9d00e4ec:	15800008 	bnez	t4,9d00e510 <L25>
9d00e4f0:	00000000 	nop
9d00e4f4:	15600003 	bnez	t3,9d00e504 <L26>
9d00e4f8:	00000000 	nop
9d00e4fc:	1000ff85 	b	9d00e314 <Clab2>
9d00e500:	240d0000 	li	t5,0

9d00e504 <L26>:
9d00e504:	01606025 	move	t4,t3
9d00e508:	240b0000 	li	t3,0
9d00e50c:	25adffe0 	addiu	t5,t5,-32

9d00e510 <L25>:
9d00e510:	71863020 	clz	a2,t4
9d00e514:	10c0ff7f 	beqz	a2,9d00e314 <Clab2>
9d00e518:	00000000 	nop
9d00e51c:	01a66823 	subu	t5,t5,a2
9d00e520:	00067022 	neg	t6,a2
9d00e524:	01cb7006 	srlv	t6,t3,t6
9d00e528:	00cb5804 	sllv	t3,t3,a2
9d00e52c:	00cc6004 	sllv	t4,t4,a2
9d00e530:	1000ff78 	b	9d00e314 <Clab2>
9d00e534:	018e6025 	or	t4,t4,t6

9d00e538 <i19>:
9d00e538:	1000ffb4 	b	9d00e40c <Cret>
9d00e53c:	24040000 	li	a0,0

9d00e540 <i18>:
9d00e540:	018b7825 	or	t7,t4,t3
9d00e544:	15e00005 	bnez	t7,9d00e55c <Cnan>
9d00e548:	00000000 	nop

9d00e54c <Cinf>:
9d00e54c:	3c017ff0 	lui	at,0x7ff0
9d00e550:	00a12825 	or	a1,a1,at
9d00e554:	1000ffad 	b	9d00e40c <Cret>
9d00e558:	24040000 	li	a0,0

9d00e55c <Cnan>:
9d00e55c:	3c05fff8 	lui	a1,0xfff8
9d00e560:	1000ffaa 	b	9d00e40c <Cret>
9d00e564:	24040000 	li	a0,0

9d00e568 <Coveund>:
9d00e568:	1d40fff8 	bgtz	t2,9d00e54c <Cinf>
9d00e56c:	00000000 	nop
9d00e570:	240e0001 	li	t6,1
9d00e574:	01ca7023 	subu	t6,t6,t2

9d00e578 <L28>:
9d00e578:	2dc10020 	sltiu	at,t6,32
9d00e57c:	14200007 	bnez	at,9d00e59c <L29>
9d00e580:	00000000 	nop
9d00e584:	21ceffe0 	addi	t6,t6,-32
9d00e588:	0008302b 	sltu	a2,zero,t0
9d00e58c:	1009000d 	beq	zero,t1,9d00e5c4 <L30>
9d00e590:	01264025 	or	t0,t1,a2
9d00e594:	1000fff8 	b	9d00e578 <L28>
9d00e598:	34090000 	li	t1,0x0

9d00e59c <L29>:
9d00e59c:	11c00009 	beqz	t6,9d00e5c4 <L30>
9d00e5a0:	00000000 	nop
9d00e5a4:	000e3822 	neg	a3,t6
9d00e5a8:	00e83004 	sllv	a2,t0,a3
9d00e5ac:	00e93804 	sllv	a3,t1,a3
9d00e5b0:	01c84006 	srlv	t0,t0,t6
9d00e5b4:	01c94806 	srlv	t1,t1,t6
9d00e5b8:	10c00002 	beqz	a2,9d00e5c4 <L30>
9d00e5bc:	00e84025 	or	t0,a3,t0
9d00e5c0:	35080002 	ori	t0,t0,0x2

9d00e5c4 <L30>:
9d00e5c4:	25080400 	addiu	t0,t0,1024
9d00e5c8:	2d0f0400 	sltiu	t7,t0,1024
9d00e5cc:	012f4821 	addu	t1,t1,t7
9d00e5d0:	1000ff83 	b	9d00e3e0 <Clab8>
9d00e5d4:	000957c2 	srl	t2,t1,0x1f
9d00e5d8:	00000000 	nop

Disassembly of section .text:

9d00e5dc <get_encoder_flag>:
char rx_message[MAX_RX_MESSAGE];
volatile int pos = 0;
volatile int newPosFlag = 0;

int get_encoder_flag(){
    return newPosFlag;
9d00e5dc:	8f82801c 	lw	v0,-32740(gp)
}
9d00e5e0:	03e00008 	jr	ra
9d00e5e4:	00000000 	nop

9d00e5e8 <set_encoder_flag>:

void set_encoder_flag(int f){
    newPosFlag = f;
9d00e5e8:	af84801c 	sw	a0,-32740(gp)
}
9d00e5ec:	03e00008 	jr	ra
9d00e5f0:	00000000 	nop

9d00e5f4 <get_encoder_count>:

int get_encoder_count(){
    return pos;
9d00e5f4:	8f828020 	lw	v0,-32736(gp)
}
9d00e5f8:	03e00008 	jr	ra
9d00e5fc:	00000000 	nop

9d00e600 <U2ISR>:

void __ISR(_UART_2_VECTOR, IPL7SOFT) U2ISR(void) { 
9d00e600:	415de800 	rdpgpr	sp,sp
9d00e604:	401a7000 	mfc0	k0,c0_epc
9d00e608:	401b6000 	mfc0	k1,c0_status
9d00e60c:	27bdff80 	addiu	sp,sp,-128
9d00e610:	afbb007c 	sw	k1,124(sp)
9d00e614:	7c1b7844 	ins	k1,zero,0x1,0xf
9d00e618:	377b1c00 	ori	k1,k1,0x1c00
9d00e61c:	409b6000 	mtc0	k1,c0_status
9d00e620:	afbf0064 	sw	ra,100(sp)
9d00e624:	afbe0060 	sw	s8,96(sp)
9d00e628:	afb9005c 	sw	t9,92(sp)
9d00e62c:	afb80058 	sw	t8,88(sp)
9d00e630:	afb20054 	sw	s2,84(sp)
9d00e634:	afb10050 	sw	s1,80(sp)
9d00e638:	afb0004c 	sw	s0,76(sp)
9d00e63c:	afaf0048 	sw	t7,72(sp)
9d00e640:	afae0044 	sw	t6,68(sp)
9d00e644:	afad0040 	sw	t5,64(sp)
9d00e648:	afac003c 	sw	t4,60(sp)
9d00e64c:	afab0038 	sw	t3,56(sp)
9d00e650:	afaa0034 	sw	t2,52(sp)
9d00e654:	afa90030 	sw	t1,48(sp)
9d00e658:	afa8002c 	sw	t0,44(sp)
9d00e65c:	afa70028 	sw	a3,40(sp)
9d00e660:	afa60024 	sw	a2,36(sp)
9d00e664:	afa50020 	sw	a1,32(sp)
9d00e668:	afa4001c 	sw	a0,28(sp)
9d00e66c:	afa30018 	sw	v1,24(sp)
9d00e670:	afa20014 	sw	v0,20(sp)
9d00e674:	afa10010 	sw	at,16(sp)
9d00e678:	00001012 	mflo	v0
9d00e67c:	afa2006c 	sw	v0,108(sp)
9d00e680:	00001810 	mfhi	v1
9d00e684:	afa30068 	sw	v1,104(sp)
9d00e688:	03a0f025 	move	s8,sp
  char data = U2RXREG; // read the data
9d00e68c:	3c10bf80 	lui	s0,0xbf80
9d00e690:	8e106230 	lw	s0,25136(s0)
9d00e694:	7c108420 	seb	s0,s0
  if (data == '\n') {
9d00e698:	2411000a 	li	s1,10
9d00e69c:	16110031 	bne	s0,s1,9d00e764 <U2ISR+0x164>
9d00e6a0:	00000000 	nop
    rx_message[rx_num_bytes] = '\0';
9d00e6a4:	8f828024 	lw	v0,-32732(gp)
9d00e6a8:	3c04a000 	lui	a0,0xa000
9d00e6ac:	24840050 	addiu	a0,a0,80
9d00e6b0:	00441021 	addu	v0,v0,a0
9d00e6b4:	a0400000 	sb	zero,0(v0)
    sscanf(rx_message,"%d",&pos);
9d00e6b8:	27868020 	addiu	a2,gp,-32736
9d00e6bc:	3c059d00 	lui	a1,0x9d00
9d00e6c0:	0f405161 	jal	9d014584 <_dsscanf_cdnopuxX>
9d00e6c4:	24a57490 	addiu	a1,a1,29840
    newPosFlag = 1;
9d00e6c8:	24100001 	li	s0,1
9d00e6cc:	af90801c 	sw	s0,-32740(gp)
    rx_num_bytes = 0;
9d00e6d0:	af808024 	sw	zero,-32732(gp)
    // roll over if got more bytes than the size of the array
    if (rx_num_bytes >= MAX_RX_MESSAGE) {
      rx_num_bytes = 0;
    }
  }
  IFS1bits.U2RXIF = 0;
9d00e6d4:	3c10bf88 	lui	s0,0xbf88
9d00e6d8:	8e111040 	lw	s1,4160(s0)
9d00e6dc:	7c11b584 	ins	s1,zero,0x16,0x1
9d00e6e0:	ae111040 	sw	s1,4160(s0)
}
9d00e6e4:	03c0e825 	move	sp,s8
9d00e6e8:	8fa2006c 	lw	v0,108(sp)
9d00e6ec:	00400013 	mtlo	v0
9d00e6f0:	8fa30068 	lw	v1,104(sp)
9d00e6f4:	00600011 	mthi	v1
9d00e6f8:	8fbf0064 	lw	ra,100(sp)
9d00e6fc:	8fbe0060 	lw	s8,96(sp)
9d00e700:	8fb9005c 	lw	t9,92(sp)
9d00e704:	8fb80058 	lw	t8,88(sp)
9d00e708:	8fb20054 	lw	s2,84(sp)
9d00e70c:	8fb10050 	lw	s1,80(sp)
9d00e710:	8fb0004c 	lw	s0,76(sp)
9d00e714:	8faf0048 	lw	t7,72(sp)
9d00e718:	8fae0044 	lw	t6,68(sp)
9d00e71c:	8fad0040 	lw	t5,64(sp)
9d00e720:	8fac003c 	lw	t4,60(sp)
9d00e724:	8fab0038 	lw	t3,56(sp)
9d00e728:	8faa0034 	lw	t2,52(sp)
9d00e72c:	8fa90030 	lw	t1,48(sp)
9d00e730:	8fa8002c 	lw	t0,44(sp)
9d00e734:	8fa70028 	lw	a3,40(sp)
9d00e738:	8fa60024 	lw	a2,36(sp)
9d00e73c:	8fa50020 	lw	a1,32(sp)
9d00e740:	8fa4001c 	lw	a0,28(sp)
9d00e744:	8fa30018 	lw	v1,24(sp)
9d00e748:	8fa20014 	lw	v0,20(sp)
9d00e74c:	8fa10010 	lw	at,16(sp)
9d00e750:	8fbb007c 	lw	k1,124(sp)
9d00e754:	27bd0080 	addiu	sp,sp,128
9d00e758:	41dde800 	wrpgpr	sp,sp
9d00e75c:	409b6000 	mtc0	k1,c0_status
9d00e760:	42000018 	eret
    rx_message[rx_num_bytes] = data;
9d00e764:	8f918024 	lw	s1,-32732(gp)
9d00e768:	3c12a000 	lui	s2,0xa000
9d00e76c:	26520050 	addiu	s2,s2,80
9d00e770:	02328821 	addu	s1,s1,s2
9d00e774:	a2300000 	sb	s0,0(s1)
    ++rx_num_bytes;
9d00e778:	8f908024 	lw	s0,-32732(gp)
9d00e77c:	26100001 	addiu	s0,s0,1
9d00e780:	af908024 	sw	s0,-32732(gp)
    if (rx_num_bytes >= MAX_RX_MESSAGE) {
9d00e784:	8f908024 	lw	s0,-32732(gp)
9d00e788:	2a100064 	slti	s0,s0,100
9d00e78c:	5200ffd1 	beqzl	s0,9d00e6d4 <U2ISR+0xd4>
9d00e790:	af808024 	sw	zero,-32732(gp)
  IFS1bits.U2RXIF = 0;
9d00e794:	1000ffd0 	b	9d00e6d8 <U2ISR+0xd8>
9d00e798:	3c10bf88 	lui	s0,0xbf88

9d00e79c <WriteUART2>:

// Write a character array using UART2
void WriteUART2(const char * string) {
  while (*string != '\0') {
9d00e79c:	80820000 	lb	v0,0(a0)
9d00e7a0:	1040000c 	beqz	v0,9d00e7d4 <WriteUART2+0x38>
9d00e7a4:	00000000 	nop
    while (U2STAbits.UTXBF) {
9d00e7a8:	3c06bf80 	lui	a2,0xbf80
      ; // wait until tx buffer isn't full
    }
    U2TXREG = *string;
9d00e7ac:	3c05bf80 	lui	a1,0xbf80
    while (U2STAbits.UTXBF) {
9d00e7b0:	8cc36210 	lw	v1,25104(a2)
9d00e7b4:	7c630240 	ext	v1,v1,0x9,0x1
9d00e7b8:	1460fffd 	bnez	v1,9d00e7b0 <WriteUART2+0x14>
9d00e7bc:	00000000 	nop
    U2TXREG = *string;
9d00e7c0:	aca26220 	sw	v0,25120(a1)
    ++string;
9d00e7c4:	24840001 	addiu	a0,a0,1
  while (*string != '\0') {
9d00e7c8:	80820000 	lb	v0,0(a0)
9d00e7cc:	1440fff8 	bnez	v0,9d00e7b0 <WriteUART2+0x14>
9d00e7d0:	00000000 	nop
  }
}
9d00e7d4:	03e00008 	jr	ra
9d00e7d8:	00000000 	nop

9d00e7dc <UART2_Startup>:

//  Initialize the serial port - UART2 
void UART2_Startup() {
9d00e7dc:	27bdfff8 	addiu	sp,sp,-8
9d00e7e0:	afbf0004 	sw	ra,4(sp)
  // disable interrupts
  __builtin_disable_interrupts();
9d00e7e4:	41626000 	di	v0
9d00e7e8:	000000c0 	ehb

  // set UART2 TX and RX pins
  ANSELBCLR = 0b11;
9d00e7ec:	3c02bf88 	lui	v0,0xbf88
9d00e7f0:	24030003 	li	v1,3
9d00e7f4:	ac436104 	sw	v1,24836(v0)
  U2RXRbits.U2RXR = 0b0010; // U2RX on B1, pin 5
9d00e7f8:	3c02bf81 	lui	v0,0xbf81
9d00e7fc:	9043fa58 	lbu	v1,-1448(v0)
9d00e800:	24040002 	li	a0,2
9d00e804:	7c831804 	ins	v1,a0,0x0,0x4
9d00e808:	a043fa58 	sb	v1,-1448(v0)
  RPB0Rbits.RPB0R = 0b0010; // U2TX on B0, pin 4
9d00e80c:	3c02bf81 	lui	v0,0xbf81
9d00e810:	9043fb2c 	lbu	v1,-1236(v0)
9d00e814:	7c831804 	ins	v1,a0,0x0,0x4
9d00e818:	a043fb2c 	sb	v1,-1236(v0)

  // turn on UART2 with interrupt on RX
  U2MODEbits.BRGH = 0; // set baud to NU32_DESIRED_BAUD
9d00e81c:	3c02bf80 	lui	v0,0xbf80
9d00e820:	94436200 	lhu	v1,25088(v0)
9d00e824:	7c0318c4 	ins	v1,zero,0x3,0x1
9d00e828:	a4436200 	sh	v1,25088(v0)
  U2BRG = ((NU32DIP_SYS_FREQ / UART2_DESIRED_BAUD) / 16) - 1;
9d00e82c:	3c03bf80 	lui	v1,0xbf80
9d00e830:	2404000c 	li	a0,12
9d00e834:	ac646240 	sw	a0,25152(v1)

  // 8 bit, no parity bit, and 1 stop bit (8N1 setup)
  U2MODEbits.PDSEL = 0;
9d00e838:	94436200 	lhu	v1,25088(v0)
9d00e83c:	7c031044 	ins	v1,zero,0x1,0x2
9d00e840:	a4436200 	sh	v1,25088(v0)
  U2MODEbits.STSEL = 0;
9d00e844:	94436200 	lhu	v1,25088(v0)
9d00e848:	7c030004 	ins	v1,zero,0x0,0x1
9d00e84c:	a4436200 	sh	v1,25088(v0)

  // configure TX & RX pins as output & input pins
  U2STAbits.UTXEN = 1;
9d00e850:	3c03bf80 	lui	v1,0xbf80
9d00e854:	8c656210 	lw	a1,25104(v1)
9d00e858:	24040001 	li	a0,1
9d00e85c:	7c855284 	ins	a1,a0,0xa,0x1
9d00e860:	ac656210 	sw	a1,25104(v1)
  U2STAbits.URXEN = 1;
9d00e864:	8c656210 	lw	a1,25104(v1)
9d00e868:	7c856304 	ins	a1,a0,0xc,0x1
9d00e86c:	ac656210 	sw	a1,25104(v1)

  U2STAbits.URXISEL = 0; // interrupt when a char is rcvd
9d00e870:	8c656210 	lw	a1,25104(v1)
9d00e874:	7c053984 	ins	a1,zero,0x6,0x2
9d00e878:	ac656210 	sw	a1,25104(v1)
  IPC9bits.U2IP = 7;
9d00e87c:	3c03bf88 	lui	v1,0xbf88
9d00e880:	8c651120 	lw	a1,4384(v1)
9d00e884:	24060007 	li	a2,7
9d00e888:	7cc56284 	ins	a1,a2,0xa,0x3
9d00e88c:	ac651120 	sw	a1,4384(v1)
  IPC9bits.U2IS = 0;
9d00e890:	8c651120 	lw	a1,4384(v1)
9d00e894:	7c054a04 	ins	a1,zero,0x8,0x2
9d00e898:	ac651120 	sw	a1,4384(v1)
  IFS1bits.U2RXIF = 0;
9d00e89c:	3c03bf88 	lui	v1,0xbf88
9d00e8a0:	8c651040 	lw	a1,4160(v1)
9d00e8a4:	7c05b584 	ins	a1,zero,0x16,0x1
9d00e8a8:	ac651040 	sw	a1,4160(v1)
  IEC1bits.U2RXIE = 1;
9d00e8ac:	3c03bf88 	lui	v1,0xbf88
9d00e8b0:	8c651070 	lw	a1,4208(v1)
9d00e8b4:	7c85b584 	ins	a1,a0,0x16,0x1
9d00e8b8:	ac651070 	sw	a1,4208(v1)

  // enable the uart
  U2MODEbits.ON = 1;
9d00e8bc:	94436200 	lhu	v1,25088(v0)
9d00e8c0:	7c837bc4 	ins	v1,a0,0xf,0x1
9d00e8c4:	a4436200 	sh	v1,25088(v0)

  __builtin_enable_interrupts();
9d00e8c8:	41626020 	ei	v0
}
9d00e8cc:	8fbf0004 	lw	ra,4(sp)
9d00e8d0:	03e00008 	jr	ra
9d00e8d4:	27bd0008 	addiu	sp,sp,8

Disassembly of section .text.__scan_i:

9d00e8d8 <__scan_i>:
9d00e8d8:	8cc20008 	lw	v0,8(a2)
9d00e8dc:	27bdffb0 	addiu	sp,sp,-80
9d00e8e0:	afb60040 	sw	s6,64(sp)
9d00e8e4:	afb20030 	sw	s2,48(sp)
9d00e8e8:	afb1002c 	sw	s1,44(sp)
9d00e8ec:	afb00028 	sw	s0,40(sp)
9d00e8f0:	afbf004c 	sw	ra,76(sp)
9d00e8f4:	afbe0048 	sw	s8,72(sp)
9d00e8f8:	afb70044 	sw	s7,68(sp)
9d00e8fc:	afb5003c 	sw	s5,60(sp)
9d00e900:	afb40038 	sw	s4,56(sp)
9d00e904:	afb30034 	sw	s3,52(sp)
9d00e908:	0080b025 	move	s6,a0
9d00e90c:	afa50054 	sw	a1,84(sp)
9d00e910:	00e09025 	move	s2,a3
9d00e914:	afa20018 	sw	v0,24(sp)
9d00e918:	8cd10010 	lw	s1,16(a2)
9d00e91c:	0f404909 	jal	9d012424 <__skipws>
9d00e920:	8cd0000c 	lw	s0,12(a2)
9d00e924:	8fa30018 	lw	v1,24(sp)
9d00e928:	14600002 	bnez	v1,9d00e934 <__scan_i+0x5c>
9d00e92c:	2623ffff 	addiu	v1,s1,-1
9d00e930:	afa30018 	sw	v1,24(sp)
9d00e934:	8e430000 	lw	v1,0(s2)
9d00e938:	241e000a 	li	s8,10
9d00e93c:	0000a825 	move	s5,zero
9d00e940:	00621821 	addu	v1,v1,v0
9d00e944:	2622ffff 	addiu	v0,s1,-1
9d00e948:	ae430000 	sw	v1,0(s2)
9d00e94c:	0000a025 	move	s4,zero
9d00e950:	afa20020 	sw	v0,32(sp)
9d00e954:	24130008 	li	s3,8
9d00e958:	2411000a 	li	s1,10
9d00e95c:	8fa20018 	lw	v0,24(sp)
9d00e960:	0282102a 	slt	v0,s4,v0
9d00e964:	10400043 	beqz	v0,9d00ea74 <__scan_i+0x19c>
9d00e968:	8fa20020 	lw	v0,32(sp)
9d00e96c:	0282102a 	slt	v0,s4,v0
9d00e970:	10400041 	beqz	v0,9d00ea78 <__scan_i+0x1a0>
9d00e974:	02141021 	addu	v0,s0,s4
9d00e978:	8ec2003c 	lw	v0,60(s6)
9d00e97c:	8ec3004c 	lw	v1,76(s6)
9d00e980:	0043182b 	sltu	v1,v0,v1
9d00e984:	1060000f 	beqz	v1,9d00e9c4 <__scan_i+0xec>
9d00e988:	24430001 	addiu	v1,v0,1
9d00e98c:	aec3003c 	sw	v1,60(s6)
9d00e990:	90570000 	lbu	s7,0(v0)
9d00e994:	26e2ffd5 	addiu	v0,s7,-43
9d00e998:	7c020844 	ins	v0,zero,0x1,0x1
9d00e99c:	00541025 	or	v0,v0,s4
9d00e9a0:	1440001d 	bnez	v0,9d00ea18 <__scan_i+0x140>
9d00e9a4:	02141021 	addu	v0,s0,s4
9d00e9a8:	a2170000 	sb	s7,0(s0)
9d00e9ac:	8e420000 	lw	v0,0(s2)
9d00e9b0:	24150001 	li	s5,1
9d00e9b4:	24140001 	li	s4,1
9d00e9b8:	24420001 	addiu	v0,v0,1
9d00e9bc:	1000ffe7 	b	9d00e95c <__scan_i+0x84>
9d00e9c0:	ae420000 	sw	v0,0(s2)
9d00e9c4:	0f4048dc 	jal	9d012370 <__shgetc>
9d00e9c8:	02c02025 	move	a0,s6
9d00e9cc:	0040b825 	move	s7,v0
9d00e9d0:	2402ffff 	li	v0,-1
9d00e9d4:	16e2fff0 	bne	s7,v0,9d00e998 <__scan_i+0xc0>
9d00e9d8:	26e2ffd5 	addiu	v0,s7,-43
9d00e9dc:	16800026 	bnez	s4,9d00ea78 <__scan_i+0x1a0>
9d00e9e0:	02141021 	addu	v0,s0,s4
9d00e9e4:	8fbf004c 	lw	ra,76(sp)
9d00e9e8:	02e01025 	move	v0,s7
9d00e9ec:	8fbe0048 	lw	s8,72(sp)
9d00e9f0:	8fb70044 	lw	s7,68(sp)
9d00e9f4:	8fb60040 	lw	s6,64(sp)
9d00e9f8:	8fb5003c 	lw	s5,60(sp)
9d00e9fc:	8fb40038 	lw	s4,56(sp)
9d00ea00:	8fb30034 	lw	s3,52(sp)
9d00ea04:	8fb20030 	lw	s2,48(sp)
9d00ea08:	8fb1002c 	lw	s1,44(sp)
9d00ea0c:	8fb00028 	lw	s0,40(sp)
9d00ea10:	03e00008 	jr	ra
9d00ea14:	27bd0050 	addiu	sp,sp,80
9d00ea18:	16950006 	bne	s4,s5,9d00ea34 <__scan_i+0x15c>
9d00ea1c:	afa2001c 	sw	v0,28(sp)
9d00ea20:	17d10026 	bne	s8,s1,9d00eabc <__scan_i+0x1e4>
9d00ea24:	26950001 	addiu	s5,s4,1
9d00ea28:	3ae20030 	xori	v0,s7,0x30
9d00ea2c:	0262f00a 	movz	s8,s3,v0
9d00ea30:	0002a80b 	movn	s5,zero,v0
9d00ea34:	26e2ffd0 	addiu	v0,s7,-48
9d00ea38:	2c42000a 	sltiu	v0,v0,10
9d00ea3c:	14400043 	bnez	v0,9d00eb4c <__scan_i+0x274>
9d00ea40:	24020010 	li	v0,16
9d00ea44:	57c20006 	bnel	s8,v0,9d00ea60 <__scan_i+0x188>
9d00ea48:	8ec2004c 	lw	v0,76(s6)
9d00ea4c:	0f405192 	jal	9d014648 <isxdigit>
9d00ea50:	02e02025 	move	a0,s7
9d00ea54:	14400041 	bnez	v0,9d00eb5c <__scan_i+0x284>
9d00ea58:	8fa2001c 	lw	v0,28(sp)
9d00ea5c:	8ec2004c 	lw	v0,76(s6)
9d00ea60:	10400005 	beqz	v0,9d00ea78 <__scan_i+0x1a0>
9d00ea64:	02141021 	addu	v0,s0,s4
9d00ea68:	8ec2003c 	lw	v0,60(s6)
9d00ea6c:	2442ffff 	addiu	v0,v0,-1
9d00ea70:	aec2003c 	sw	v0,60(s6)
9d00ea74:	02141021 	addu	v0,s0,s4
9d00ea78:	a0400000 	sb	zero,0(v0)
9d00ea7c:	2402000a 	li	v0,10
9d00ea80:	17c2003c 	bne	s8,v0,9d00eb74 <__scan_i+0x29c>
9d00ea84:	2406000a 	li	a2,10
9d00ea88:	27a50010 	addiu	a1,sp,16
9d00ea8c:	0f4050df 	jal	9d01437c <strtoll>
9d00ea90:	02002025 	move	a0,s0
9d00ea94:	8fa40054 	lw	a0,84(sp)
9d00ea98:	ac830004 	sw	v1,4(a0)
9d00ea9c:	8fa30010 	lw	v1,16(sp)
9d00eaa0:	ac820000 	sw	v0,0(a0)
9d00eaa4:	2402fffe 	li	v0,-2
9d00eaa8:	00708026 	xor	s0,v1,s0
9d00eaac:	24030001 	li	v1,1
9d00eab0:	0050180a 	movz	v1,v0,s0
9d00eab4:	1000ffcb 	b	9d00e9e4 <__scan_i+0x10c>
9d00eab8:	0060b825 	move	s7,v1
9d00eabc:	17d30021 	bne	s8,s3,9d00eb44 <__scan_i+0x26c>
9d00eac0:	36e20020 	ori	v0,s7,0x20
9d00eac4:	24040078 	li	a0,120
9d00eac8:	5444ffda 	bnel	v0,a0,9d00ea34 <__scan_i+0x15c>
9d00eacc:	0000a825 	move	s5,zero
9d00ead0:	8ec2003c 	lw	v0,60(s6)
9d00ead4:	8ec4004c 	lw	a0,76(s6)
9d00ead8:	0044202b 	sltu	a0,v0,a0
9d00eadc:	10800015 	beqz	a0,9d00eb34 <__scan_i+0x25c>
9d00eae0:	00000000 	nop
9d00eae4:	24440001 	addiu	a0,v0,1
9d00eae8:	aec4003c 	sw	a0,60(s6)
9d00eaec:	90420000 	lbu	v0,0(v0)
9d00eaf0:	8ec4004c 	lw	a0,76(s6)
9d00eaf4:	10800004 	beqz	a0,9d00eb08 <__scan_i+0x230>
9d00eaf8:	00000000 	nop
9d00eafc:	8eca003c 	lw	t2,60(s6)
9d00eb00:	254affff 	addiu	t2,t2,-1
9d00eb04:	aeca003c 	sw	t2,60(s6)
9d00eb08:	0f405192 	jal	9d014648 <isxdigit>
9d00eb0c:	00402025 	move	a0,v0
9d00eb10:	1040ffd2 	beqz	v0,9d00ea5c <__scan_i+0x184>
9d00eb14:	8fa2001c 	lw	v0,28(sp)
9d00eb18:	02a0a025 	move	s4,s5
9d00eb1c:	241e0010 	li	s8,16
9d00eb20:	a0570000 	sb	s7,0(v0)
9d00eb24:	8e420000 	lw	v0,0(s2)
9d00eb28:	24420001 	addiu	v0,v0,1
9d00eb2c:	1000ff8b 	b	9d00e95c <__scan_i+0x84>
9d00eb30:	ae420000 	sw	v0,0(s2)
9d00eb34:	0f4048dc 	jal	9d012370 <__shgetc>
9d00eb38:	02c02025 	move	a0,s6
9d00eb3c:	1000ffed 	b	9d00eaf4 <__scan_i+0x21c>
9d00eb40:	8ec4004c 	lw	a0,76(s6)
9d00eb44:	1000ffbb 	b	9d00ea34 <__scan_i+0x15c>
9d00eb48:	0000a825 	move	s5,zero
9d00eb4c:	17d30002 	bne	s8,s3,9d00eb58 <__scan_i+0x280>
9d00eb50:	2ae20038 	slti	v0,s7,56
9d00eb54:	0222f00a 	movz	s8,s1,v0
9d00eb58:	8fa2001c 	lw	v0,28(sp)
9d00eb5c:	26940001 	addiu	s4,s4,1
9d00eb60:	a0570000 	sb	s7,0(v0)
9d00eb64:	8e420000 	lw	v0,0(s2)
9d00eb68:	24420001 	addiu	v0,v0,1
9d00eb6c:	1000ff7b 	b	9d00e95c <__scan_i+0x84>
9d00eb70:	ae420000 	sw	v0,0(s2)
9d00eb74:	03c03025 	move	a2,s8
9d00eb78:	27a50010 	addiu	a1,sp,16
9d00eb7c:	0f4050d4 	jal	9d014350 <strtoull>
9d00eb80:	02002025 	move	a0,s0
9d00eb84:	1000ffc4 	b	9d00ea98 <__scan_i+0x1c0>
9d00eb88:	8fa40054 	lw	a0,84(sp)

Disassembly of section .text.scanexp:

9d00eb8c <scanexp>:
9d00eb8c:	8c82003c 	lw	v0,60(a0)
9d00eb90:	8c83004c 	lw	v1,76(a0)
9d00eb94:	27bdffc8 	addiu	sp,sp,-56
9d00eb98:	afb10014 	sw	s1,20(sp)
9d00eb9c:	0043182b 	sltu	v1,v0,v1
9d00eba0:	afb00010 	sw	s0,16(sp)
9d00eba4:	afbf0034 	sw	ra,52(sp)
9d00eba8:	afbe0030 	sw	s8,48(sp)
9d00ebac:	afb7002c 	sw	s7,44(sp)
9d00ebb0:	afb60028 	sw	s6,40(sp)
9d00ebb4:	afb50024 	sw	s5,36(sp)
9d00ebb8:	afb40020 	sw	s4,32(sp)
9d00ebbc:	afb3001c 	sw	s3,28(sp)
9d00ebc0:	afb20018 	sw	s2,24(sp)
9d00ebc4:	00808025 	move	s0,a0
9d00ebc8:	10600035 	beqz	v1,9d00eca0 <scanexp+0x114>
9d00ebcc:	00a08825 	move	s1,a1
9d00ebd0:	24430001 	addiu	v1,v0,1
9d00ebd4:	ac83003c 	sw	v1,60(a0)
9d00ebd8:	90520000 	lbu	s2,0(v0)
9d00ebdc:	2642ffd5 	addiu	v0,s2,-43
9d00ebe0:	7c020844 	ins	v0,zero,0x1,0x1
9d00ebe4:	14400016 	bnez	v0,9d00ec40 <scanexp+0xb4>
9d00ebe8:	0000a025 	move	s4,zero
9d00ebec:	8e02003c 	lw	v0,60(s0)
9d00ebf0:	8e03004c 	lw	v1,76(s0)
9d00ebf4:	3a52002d 	xori	s2,s2,0x2d
9d00ebf8:	0043182b 	sltu	v1,v0,v1
9d00ebfc:	1060002c 	beqz	v1,9d00ecb0 <scanexp+0x124>
9d00ec00:	2e540001 	sltiu	s4,s2,1
9d00ec04:	24430001 	addiu	v1,v0,1
9d00ec08:	ae03003c 	sw	v1,60(s0)
9d00ec0c:	90520000 	lbu	s2,0(v0)
9d00ec10:	2642ffd0 	addiu	v0,s2,-48
9d00ec14:	2c42000a 	sltiu	v0,v0,10
9d00ec18:	1440000a 	bnez	v0,9d00ec44 <scanexp+0xb8>
9d00ec1c:	2642ffd0 	addiu	v0,s2,-48
9d00ec20:	12200009 	beqz	s1,9d00ec48 <scanexp+0xbc>
9d00ec24:	2c42000a 	sltiu	v0,v0,10
9d00ec28:	8e02004c 	lw	v0,76(s0)
9d00ec2c:	10400005 	beqz	v0,9d00ec44 <scanexp+0xb8>
9d00ec30:	2642ffd0 	addiu	v0,s2,-48
9d00ec34:	8e02003c 	lw	v0,60(s0)
9d00ec38:	2442ffff 	addiu	v0,v0,-1
9d00ec3c:	ae02003c 	sw	v0,60(s0)
9d00ec40:	2642ffd0 	addiu	v0,s2,-48
9d00ec44:	2c42000a 	sltiu	v0,v0,10
9d00ec48:	1440001d 	bnez	v0,9d00ecc0 <scanexp+0x134>
9d00ec4c:	00009825 	move	s3,zero
9d00ec50:	8e02004c 	lw	v0,76(s0)
9d00ec54:	10400004 	beqz	v0,9d00ec68 <scanexp+0xdc>
9d00ec58:	3c158000 	lui	s5,0x8000
9d00ec5c:	8e02003c 	lw	v0,60(s0)
9d00ec60:	2442ffff 	addiu	v0,v0,-1
9d00ec64:	ae02003c 	sw	v0,60(s0)
9d00ec68:	8fbf0034 	lw	ra,52(sp)
9d00ec6c:	02601025 	move	v0,s3
9d00ec70:	02a01825 	move	v1,s5
9d00ec74:	8fbe0030 	lw	s8,48(sp)
9d00ec78:	8fb7002c 	lw	s7,44(sp)
9d00ec7c:	8fb60028 	lw	s6,40(sp)
9d00ec80:	8fb50024 	lw	s5,36(sp)
9d00ec84:	8fb40020 	lw	s4,32(sp)
9d00ec88:	8fb3001c 	lw	s3,28(sp)
9d00ec8c:	8fb20018 	lw	s2,24(sp)
9d00ec90:	8fb10014 	lw	s1,20(sp)
9d00ec94:	8fb00010 	lw	s0,16(sp)
9d00ec98:	03e00008 	jr	ra
9d00ec9c:	27bd0038 	addiu	sp,sp,56
9d00eca0:	0f4048dc 	jal	9d012370 <__shgetc>
9d00eca4:	00000000 	nop
9d00eca8:	1000ffcc 	b	9d00ebdc <scanexp+0x50>
9d00ecac:	00409025 	move	s2,v0
9d00ecb0:	0f4048dc 	jal	9d012370 <__shgetc>
9d00ecb4:	02002025 	move	a0,s0
9d00ecb8:	1000ffd5 	b	9d00ec10 <scanexp+0x84>
9d00ecbc:	00409025 	move	s2,v0
9d00ecc0:	3c150ccc 	lui	s5,0xccc
9d00ecc4:	2416000a 	li	s6,10
9d00ecc8:	36b5cccc 	ori	s5,s5,0xcccc
9d00eccc:	8e02003c 	lw	v0,60(s0)
9d00ecd0:	8e03004c 	lw	v1,76(s0)
9d00ecd4:	0043182b 	sltu	v1,v0,v1
9d00ecd8:	1060001f 	beqz	v1,9d00ed58 <scanexp+0x1cc>
9d00ecdc:	24430001 	addiu	v1,v0,1
9d00ece0:	ae03003c 	sw	v1,60(s0)
9d00ece4:	90510000 	lbu	s1,0(v0)
9d00ece8:	72761002 	mul	v0,s3,s6
9d00ecec:	00529821 	addu	s3,v0,s2
9d00ecf0:	2622ffd0 	addiu	v0,s1,-48
9d00ecf4:	2c42000a 	sltiu	v0,v0,10
9d00ecf8:	10400004 	beqz	v0,9d00ed0c <scanexp+0x180>
9d00ecfc:	2673ffd0 	addiu	s3,s3,-48
9d00ed00:	0275102a 	slt	v0,s3,s5
9d00ed04:	1440fff1 	bnez	v0,9d00eccc <scanexp+0x140>
9d00ed08:	02209025 	move	s2,s1
9d00ed0c:	3c160147 	lui	s6,0x147
9d00ed10:	36d6ae15 	ori	s6,s6,0xae15
9d00ed14:	3c177ae1 	lui	s7,0x7ae1
9d00ed18:	0013afc3 	sra	s5,s3,0x1f
9d00ed1c:	26deffff 	addiu	s8,s6,-1
9d00ed20:	26f747ae 	addiu	s7,s7,18350
9d00ed24:	2622ffd0 	addiu	v0,s1,-48
9d00ed28:	2c42000a 	sltiu	v0,v0,10
9d00ed2c:	14400012 	bnez	v0,9d00ed78 <scanexp+0x1ec>
9d00ed30:	02b6102a 	slt	v0,s5,s6
9d00ed34:	8e02004c 	lw	v0,76(s0)
9d00ed38:	5440003e 	bnezl	v0,9d00ee34 <scanexp+0x2a8>
9d00ed3c:	8e02003c 	lw	v0,60(s0)
9d00ed40:	1280ffc9 	beqz	s4,9d00ec68 <scanexp+0xdc>
9d00ed44:	00158823 	negu	s1,s5
9d00ed48:	00139823 	negu	s3,s3
9d00ed4c:	0013102b 	sltu	v0,zero,s3
9d00ed50:	1000ffc5 	b	9d00ec68 <scanexp+0xdc>
9d00ed54:	0222a823 	subu	s5,s1,v0
9d00ed58:	0f4048dc 	jal	9d012370 <__shgetc>
9d00ed5c:	02002025 	move	a0,s0
9d00ed60:	1000ffe1 	b	9d00ece8 <scanexp+0x15c>
9d00ed64:	00408825 	move	s1,v0
9d00ed68:	0f4048dc 	jal	9d012370 <__shgetc>
9d00ed6c:	02002025 	move	a0,s0
9d00ed70:	10000010 	b	9d00edb4 <scanexp+0x228>
9d00ed74:	2403000a 	li	v1,10
9d00ed78:	50400025 	beqzl	v0,9d00ee10 <scanexp+0x284>
9d00ed7c:	2631ffd0 	addiu	s1,s1,-48
9d00ed80:	16be0003 	bne	s5,s8,9d00ed90 <scanexp+0x204>
9d00ed84:	0277102b 	sltu	v0,s3,s7
9d00ed88:	50400021 	beqzl	v0,9d00ee10 <scanexp+0x284>
9d00ed8c:	2631ffd0 	addiu	s1,s1,-48
9d00ed90:	8e02003c 	lw	v0,60(s0)
9d00ed94:	8e03004c 	lw	v1,76(s0)
9d00ed98:	0043182b 	sltu	v1,v0,v1
9d00ed9c:	1060fff2 	beqz	v1,9d00ed68 <scanexp+0x1dc>
9d00eda0:	00000000 	nop
9d00eda4:	24430001 	addiu	v1,v0,1
9d00eda8:	ae03003c 	sw	v1,60(s0)
9d00edac:	90420000 	lbu	v0,0(v0)
9d00edb0:	2403000a 	li	v1,10
9d00edb4:	00730019 	multu	v1,s3
9d00edb8:	00009012 	mflo	s2
9d00edbc:	00009810 	mfhi	s3
9d00edc0:	70752002 	mul	a0,v1,s5
9d00edc4:	00939821 	addu	s3,a0,s3
9d00edc8:	001127c3 	sra	a0,s1,0x1f
9d00edcc:	02518821 	addu	s1,s2,s1
9d00edd0:	0232182b 	sltu	v1,s1,s2
9d00edd4:	02642021 	addu	a0,s3,a0
9d00edd8:	00641821 	addu	v1,v1,a0
9d00eddc:	2633ffd0 	addiu	s3,s1,-48
9d00ede0:	0271882b 	sltu	s1,s3,s1
9d00ede4:	2463ffff 	addiu	v1,v1,-1
9d00ede8:	0223a821 	addu	s5,s1,v1
9d00edec:	1000ffcd 	b	9d00ed24 <scanexp+0x198>
9d00edf0:	00408825 	move	s1,v0
9d00edf4:	8e03004c 	lw	v1,76(s0)
9d00edf8:	0043182b 	sltu	v1,v0,v1
9d00edfc:	10600009 	beqz	v1,9d00ee24 <scanexp+0x298>
9d00ee00:	24430001 	addiu	v1,v0,1
9d00ee04:	ae03003c 	sw	v1,60(s0)
9d00ee08:	90510000 	lbu	s1,0(v0)
9d00ee0c:	2631ffd0 	addiu	s1,s1,-48
9d00ee10:	2e31000a 	sltiu	s1,s1,10
9d00ee14:	5620fff7 	bnezl	s1,9d00edf4 <scanexp+0x268>
9d00ee18:	8e02003c 	lw	v0,60(s0)
9d00ee1c:	1000ffc6 	b	9d00ed38 <scanexp+0x1ac>
9d00ee20:	8e02004c 	lw	v0,76(s0)
9d00ee24:	0f4048dc 	jal	9d012370 <__shgetc>
9d00ee28:	02002025 	move	a0,s0
9d00ee2c:	1000fff7 	b	9d00ee0c <scanexp+0x280>
9d00ee30:	00408825 	move	s1,v0
9d00ee34:	2442ffff 	addiu	v0,v0,-1
9d00ee38:	1000ffc1 	b	9d00ed40 <scanexp+0x1b4>
9d00ee3c:	ae02003c 	sw	v0,60(s0)

Disassembly of section .text.libm:

9d00ee40 <dpfmod>:
9d00ee40:	00055040 000a5542 00054ac0 00047d42     @P..BU...J..B}..
9d00ee50:	012f4825 000442c0 3c0e8000 012e4825     %H/..B.....<%H..
9d00ee60:	00076840 000d6d42 000762c0 00067d42     @h..Bm...b..B}..
9d00ee70:	018f6025 00065ac0 018e6025 01c57024     %`...Z..%`..$p..
9d00ee80:	254fffff 2de107fe 10200056 00000000     ..O%...-V. .....

9d00ee90 <Alab1>:
9d00ee90:	25afffff 	addiu	t7,t5,-1
9d00ee94:	2de107fe 	sltiu	at,t7,2046
9d00ee98:	1020006e 	beqz	at,9d00f054 <AspecB>
9d00ee9c:	00000000 	nop

9d00eea0 <Alab2>:
9d00eea0:	014d3823 	subu	a3,t2,t5
9d00eea4:	04e0004b 	bltz	a3,9d00efd4 <Aret2>
9d00eea8:	00000000 	nop
9d00eeac:	00084042 	srl	t0,t0,0x1
9d00eeb0:	00097fc0 	sll	t7,t1,0x1f
9d00eeb4:	010f4025 	or	t0,t0,t7
9d00eeb8:	00094842 	srl	t1,t1,0x1
9d00eebc:	000b5842 	srl	t3,t3,0x1
9d00eec0:	000c7fc0 	sll	t7,t4,0x1f
9d00eec4:	016f5825 	or	t3,t3,t7
9d00eec8:	000c6042 	srl	t4,t4,0x1

9d00eecc <b1>:
9d00eecc:	010b782b 	sltu	t7,t0,t3
9d00eed0:	010b4023 	subu	t0,t0,t3
9d00eed4:	012f102b 	sltu	v0,t1,t7
9d00eed8:	012f4823 	subu	t1,t1,t7
9d00eedc:	012c782b 	sltu	t7,t1,t4
9d00eee0:	01e27825 	or	t7,t7,v0
9d00eee4:	11e00005 	beqz	t7,9d00eefc <i2>
9d00eee8:	012c4823 	subu	t1,t1,t4
9d00eeec:	010b4021 	addu	t0,t0,t3
9d00eef0:	010b782b 	sltu	t7,t0,t3
9d00eef4:	012c4821 	addu	t1,t1,t4
9d00eef8:	012f4821 	addu	t1,t1,t7

9d00eefc <i2>:
9d00eefc:	0100782a 	slt	t7,t0,zero
9d00ef00:	01084021 	addu	t0,t0,t0
9d00ef04:	01294821 	addu	t1,t1,t1
9d00ef08:	012f4821 	addu	t1,t1,t7
9d00ef0c:	24e7ffff 	addiu	a3,a3,-1
9d00ef10:	04e1ffee 	bgez	a3,9d00eecc <b1>
9d00ef14:	00000000 	nop
9d00ef18:	15200008 	bnez	t1,9d00ef3c <L1>
9d00ef1c:	000d5025 	or	t2,zero,t5
9d00ef20:	15000003 	bnez	t0,9d00ef30 <L2>
9d00ef24:	00000000 	nop
9d00ef28:	1000000d 	b	9d00ef60 <L3>
9d00ef2c:	240a0000 	li	t2,0

9d00ef30 <L2>:
9d00ef30:	01004825 	move	t1,t0
9d00ef34:	24080000 	li	t0,0
9d00ef38:	254affe0 	addiu	t2,t2,-32

9d00ef3c <L1>:
9d00ef3c:	71273820 	clz	a3,t1
9d00ef40:	10e00007 	beqz	a3,9d00ef60 <L3>
9d00ef44:	00000000 	nop
9d00ef48:	01475023 	subu	t2,t2,a3
9d00ef4c:	00073022 	neg	a2,a3
9d00ef50:	00c83006 	srlv	a2,t0,a2
9d00ef54:	00e84004 	sllv	t0,t0,a3
9d00ef58:	00e94804 	sllv	t1,t1,a3
9d00ef5c:	01264825 	or	t1,t1,a2

9d00ef60 <L3>:
9d00ef60:	1d400014 	bgtz	t2,9d00efb4 <i3>
9d00ef64:	00000000 	nop
9d00ef68:	24070001 	li	a3,1
9d00ef6c:	00ea3823 	subu	a3,a3,t2

9d00ef70 <L4>:
9d00ef70:	2ce10020 	sltiu	at,a3,32
9d00ef74:	14200005 	bnez	at,9d00ef8c <L5>
9d00ef78:	00000000 	nop
9d00ef7c:	00094025 	or	t0,zero,t1
9d00ef80:	24090000 	li	t1,0
9d00ef84:	1500fffa 	bnez	t0,9d00ef70 <L4>
9d00ef88:	24e7ffe0 	addiu	a3,a3,-32

9d00ef8c <L5>:
9d00ef8c:	10e00008 	beqz	a3,9d00efb0 <L6>
9d00ef90:	00000000 	nop
9d00ef94:	00093025 	or	a2,zero,t1
9d00ef98:	00e84006 	srlv	t0,t0,a3
9d00ef9c:	00e94806 	srlv	t1,t1,a3
9d00efa0:	240f0020 	li	t7,32
9d00efa4:	01e73823 	subu	a3,t7,a3
9d00efa8:	00e63004 	sllv	a2,a2,a3
9d00efac:	01064025 	or	t0,t0,a2

9d00efb0 <L6>:
9d00efb0:	240a0000 	li	t2,0

9d00efb4 <i3>:
9d00efb4:	000822c2 	srl	a0,t0,0xb
9d00efb8:	00097d40 	sll	t7,t1,0x15
9d00efbc:	008f2025 	or	a0,a0,t7
9d00efc0:	00092840 	sll	a1,t1,0x1
9d00efc4:	00052b02 	srl	a1,a1,0xc
9d00efc8:	000a7d00 	sll	t7,t2,0x14
9d00efcc:	00af2825 	or	a1,a1,t7
9d00efd0:	00ae2825 	or	a1,a1,t6

9d00efd4 <Aret2>:
9d00efd4:	00041025 	or	v0,zero,a0
9d00efd8:	00051825 	or	v1,zero,a1

9d00efdc <A999>:
9d00efdc:	03e00008 	jr	ra
9d00efe0:	00000000 	nop

9d00efe4 <AspecA>:
9d00efe4:	1540003b 	bnez	t2,9d00f0d4 <Anan>
9d00efe8:	00000000 	nop
9d00efec:	0100782a 	slt	t7,t0,zero
9d00eff0:	01084021 	addu	t0,t0,t0
9d00eff4:	01294821 	addu	t1,t1,t1
9d00eff8:	012f4821 	addu	t1,t1,t7
9d00effc:	01287825 	or	t7,t1,t0
9d00f000:	11e0ffa3 	beqz	t7,9d00ee90 <Alab1>
9d00f004:	00000000 	nop
9d00f008:	15200008 	bnez	t1,9d00f02c <L7>
9d00f00c:	00000000 	nop
9d00f010:	15000003 	bnez	t0,9d00f020 <L8>
9d00f014:	00000000 	nop
9d00f018:	1000ff9d 	b	9d00ee90 <Alab1>
9d00f01c:	240a0000 	li	t2,0

9d00f020 <L8>:
9d00f020:	01004825 	move	t1,t0
9d00f024:	24080000 	li	t0,0
9d00f028:	254affe0 	addiu	t2,t2,-32

9d00f02c <L7>:
9d00f02c:	71273820 	clz	a3,t1
9d00f030:	10e0ff97 	beqz	a3,9d00ee90 <Alab1>
9d00f034:	00000000 	nop
9d00f038:	01475023 	subu	t2,t2,a3
9d00f03c:	00073022 	neg	a2,a3
9d00f040:	00c83006 	srlv	a2,t0,a2
9d00f044:	00e84004 	sllv	t0,t0,a3
9d00f048:	00e94804 	sllv	t1,t1,a3
9d00f04c:	1000ff90 	b	9d00ee90 <Alab1>
9d00f050:	01264825 	or	t1,t1,a2

9d00f054 <AspecB>:
9d00f054:	15a0001b 	bnez	t5,9d00f0c4 <i5>
9d00f058:	00000000 	nop
9d00f05c:	0160782a 	slt	t7,t3,zero
9d00f060:	016b5821 	addu	t3,t3,t3
9d00f064:	018c6021 	addu	t4,t4,t4
9d00f068:	018f6021 	addu	t4,t4,t7
9d00f06c:	018b7825 	or	t7,t4,t3
9d00f070:	11e00018 	beqz	t7,9d00f0d4 <Anan>
9d00f074:	00000000 	nop
9d00f078:	15800008 	bnez	t4,9d00f09c <L10>
9d00f07c:	00000000 	nop
9d00f080:	15600003 	bnez	t3,9d00f090 <L11>
9d00f084:	00000000 	nop
9d00f088:	1000ff85 	b	9d00eea0 <Alab2>
9d00f08c:	240d0000 	li	t5,0

9d00f090 <L11>:
9d00f090:	01606025 	move	t4,t3
9d00f094:	240b0000 	li	t3,0
9d00f098:	25adffe0 	addiu	t5,t5,-32

9d00f09c <L10>:
9d00f09c:	71873820 	clz	a3,t4
9d00f0a0:	10e0ff7f 	beqz	a3,9d00eea0 <Alab2>
9d00f0a4:	00000000 	nop
9d00f0a8:	01a76823 	subu	t5,t5,a3
9d00f0ac:	00073022 	neg	a2,a3
9d00f0b0:	00cb3006 	srlv	a2,t3,a2
9d00f0b4:	00eb5804 	sllv	t3,t3,a3
9d00f0b8:	00ec6004 	sllv	t4,t4,a3
9d00f0bc:	1000ff78 	b	9d00eea0 <Alab2>
9d00f0c0:	01866025 	or	t4,t4,a2

9d00f0c4 <i5>:
9d00f0c4:	000c7840 	sll	t7,t4,0x1
9d00f0c8:	01eb7825 	or	t7,t7,t3
9d00f0cc:	11e0ffc1 	beqz	t7,9d00efd4 <Aret2>
9d00f0d0:	00000000 	nop

9d00f0d4 <Anan>:
9d00f0d4:	3c05fff8 	lui	a1,0xfff8
9d00f0d8:	1000ffbe 	b	9d00efd4 <Aret2>
9d00f0dc:	24040000 	li	a0,0
9d00f0e0:	00000000 	nop

Disassembly of section .text.malloc:

9d00f0e4 <malloc>:
9d00f0e4:	27bdffd8 	addiu	sp,sp,-40
9d00f0e8:	afa40028 	sw	a0,40(sp)
9d00f0ec:	27a40028 	addiu	a0,sp,40
9d00f0f0:	afbf0024 	sw	ra,36(sp)
9d00f0f4:	afb10020 	sw	s1,32(sp)
9d00f0f8:	0f404ece 	jal	9d013b38 <adjust_size>
9d00f0fc:	afb0001c 	sw	s0,28(sp)
9d00f100:	04410007 	bgez	v0,9d00f120 <malloc+0x3c>
9d00f104:	8fa20028 	lw	v0,40(sp)
9d00f108:	00001025 	move	v0,zero
9d00f10c:	8fbf0024 	lw	ra,36(sp)
9d00f110:	8fb10020 	lw	s1,32(sp)
9d00f114:	8fb0001c 	lw	s0,28(sp)
9d00f118:	03e00008 	jr	ra
9d00f11c:	27bd0028 	addiu	sp,sp,40
9d00f120:	00021102 	srl	v0,v0,0x4
9d00f124:	2451ffff 	addiu	s1,v0,-1
9d00f128:	2e230021 	sltiu	v1,s1,33
9d00f12c:	14600009 	bnez	v1,9d00f154 <malloc+0x70>
9d00f130:	2442fffe 	addiu	v0,v0,-2
9d00f134:	3c039d01 	lui	v1,0x9d01
9d00f138:	2c440200 	sltiu	a0,v0,512
9d00f13c:	10800022 	beqz	a0,9d00f1c8 <malloc+0xe4>
9d00f140:	24633aa4 	addiu	v1,v1,15012
9d00f144:	000210c2 	srl	v0,v0,0x3
9d00f148:	00621021 	addu	v0,v1,v0
9d00f14c:	9051fffc 	lbu	s1,-4(v0)
9d00f150:	26310001 	addiu	s1,s1,1
9d00f154:	02203025 	move	a2,s1
9d00f158:	24040001 	li	a0,1
9d00f15c:	0f405078 	jal	9d0141e0 <__ashldi3>
9d00f160:	00002825 	move	a1,zero
9d00f164:	00025823 	negu	t3,v0
9d00f168:	000b382b 	sltu	a3,zero,t3
9d00f16c:	00031823 	negu	v1,v1
9d00f170:	3c0aa000 	lui	t2,0xa000
9d00f174:	3c089d01 	lui	t0,0x9d01
9d00f178:	00673823 	subu	a3,v1,a3
9d00f17c:	25083a84 	addiu	t0,t0,14980
9d00f180:	3c0c076b 	lui	t4,0x76b
9d00f184:	25490e00 	addiu	t1,t2,3584
9d00f188:	8d420e00 	lw	v0,3584(t2)
9d00f18c:	8d430e04 	lw	v1,3588(t2)
9d00f190:	01622824 	and	a1,t3,v0
9d00f194:	00e31824 	and	v1,a3,v1
9d00f198:	00a32025 	or	a0,a1,v1
9d00f19c:	14800039 	bnez	a0,9d00f284 <malloc+0x1a0>
9d00f1a0:	8fa20028 	lw	v0,40(sp)
9d00f1a4:	27a40010 	addiu	a0,sp,16
9d00f1a8:	24420010 	addiu	v0,v0,16
9d00f1ac:	0f40503c 	jal	9d0140f0 <__expand_heap>
9d00f1b0:	afa20010 	sw	v0,16(sp)
9d00f1b4:	14400009 	bnez	v0,9d00f1dc <malloc+0xf8>
9d00f1b8:	3c03a000 	lui	v1,0xa000
9d00f1bc:	2404000c 	li	a0,12
9d00f1c0:	1000ffd2 	b	9d00f10c <malloc+0x28>
9d00f1c4:	ac64107c 	sw	a0,4220(v1)
9d00f1c8:	000211c2 	srl	v0,v0,0x7
9d00f1cc:	00621021 	addu	v0,v1,v0
9d00f1d0:	9051fffc 	lbu	s1,-4(v0)
9d00f1d4:	1000ffdf 	b	9d00f154 <malloc+0x70>
9d00f1d8:	26310011 	addiu	s1,s1,17
9d00f1dc:	3c03a000 	lui	v1,0xa000
9d00f1e0:	8c710df8 	lw	s1,3576(v1)
9d00f1e4:	10510006 	beq	v0,s1,9d00f200 <malloc+0x11c>
9d00f1e8:	8fa40010 	lw	a0,16(sp)
9d00f1ec:	24510010 	addiu	s1,v0,16
9d00f1f0:	2484fff0 	addiu	a0,a0,-16
9d00f1f4:	afa40010 	sw	a0,16(sp)
9d00f1f8:	24040001 	li	a0,1
9d00f1fc:	ac440008 	sw	a0,8(v0)
9d00f200:	8fa20010 	lw	v0,16(sp)
9d00f204:	2630fff8 	addiu	s0,s1,-8
9d00f208:	02222021 	addu	a0,s1,v0
9d00f20c:	ac640df8 	sw	a0,3576(v1)
9d00f210:	34420001 	ori	v0,v0,0x1
9d00f214:	24030001 	li	v1,1
9d00f218:	ac82fff8 	sw	v0,-8(a0)
9d00f21c:	ac83fffc 	sw	v1,-4(a0)
9d00f220:	1200ffb9 	beqz	s0,9d00f108 <malloc+0x24>
9d00f224:	ae22fffc 	sw	v0,-4(s1)
9d00f228:	0f404d17 	jal	9d01345c <alloc_rev>
9d00f22c:	02002025 	move	a0,s0
9d00f230:	10400010 	beqz	v0,9d00f274 <malloc+0x190>
9d00f234:	8fa50028 	lw	a1,40(sp)
9d00f238:	8e23fff8 	lw	v1,-8(s1)
9d00f23c:	2402fffe 	li	v0,-2
9d00f240:	8e25fffc 	lw	a1,-4(s1)
9d00f244:	00431824 	and	v1,v0,v1
9d00f248:	02031823 	subu	v1,s0,v1
9d00f24c:	8c640004 	lw	a0,4(v1)
9d00f250:	00442024 	and	a0,v0,a0
9d00f254:	00852021 	addu	a0,a0,a1
9d00f258:	ac640004 	sw	a0,4(v1)
9d00f25c:	8e25fffc 	lw	a1,-4(s1)
9d00f260:	00451024 	and	v0,v0,a1
9d00f264:	02028021 	addu	s0,s0,v0
9d00f268:	ae040000 	sw	a0,0(s0)
9d00f26c:	00608025 	move	s0,v1
9d00f270:	8fa50028 	lw	a1,40(sp)
9d00f274:	0f404ee4 	jal	9d013b90 <trim>
9d00f278:	02002025 	move	a0,s0
9d00f27c:	1000ffa3 	b	9d00f10c <malloc+0x28>
9d00f280:	26020008 	addiu	v0,s0,8
9d00f284:	14a0002f 	bnez	a1,9d00f344 <malloc+0x260>
9d00f288:	3582e629 	ori	v0,t4,0xe629
9d00f28c:	00032023 	negu	a0,v1
9d00f290:	00832024 	and	a0,a0,v1
9d00f294:	70822002 	mul	a0,a0,v0
9d00f298:	000426c2 	srl	a0,a0,0x1b
9d00f29c:	01042021 	addu	a0,t0,a0
9d00f2a0:	80860000 	lb	a2,0(a0)
9d00f2a4:	24c60020 	addiu	a2,a2,32
9d00f2a8:	0f405095 	jal	9d014254 <lock_bin>
9d00f2ac:	00c02025 	move	a0,a2
9d00f2b0:	24c40001 	addiu	a0,a2,1
9d00f2b4:	000420c0 	sll	a0,a0,0x3
9d00f2b8:	00891021 	addu	v0,a0,t1
9d00f2bc:	8c500000 	lw	s0,0(v0)
9d00f2c0:	2484fff8 	addiu	a0,a0,-8
9d00f2c4:	01242021 	addu	a0,t1,a0
9d00f2c8:	1204ffaf 	beq	s0,a0,9d00f188 <malloc+0xa4>
9d00f2cc:	28c20028 	slti	v0,a2,40
9d00f2d0:	14400023 	bnez	v0,9d00f360 <malloc+0x27c>
9d00f2d4:	26310002 	addiu	s1,s1,2
9d00f2d8:	0226882a 	slt	s1,s1,a2
9d00f2dc:	16200003 	bnez	s1,9d00f2ec <malloc+0x208>
9d00f2e0:	2402003f 	li	v0,63
9d00f2e4:	14c2001f 	bne	a2,v0,9d00f364 <malloc+0x280>
9d00f2e8:	00c02825 	move	a1,a2
9d00f2ec:	8e070004 	lw	a3,4(s0)
9d00f2f0:	8fa50028 	lw	a1,40(sp)
9d00f2f4:	7c070004 	ins	a3,zero,0x0,0x1
9d00f2f8:	00e54023 	subu	t0,a3,a1
9d00f2fc:	0f404e2b 	jal	9d0138ac <bin_index>
9d00f300:	01002025 	move	a0,t0
9d00f304:	14c20016 	bne	a2,v0,9d00f360 <malloc+0x27c>
9d00f308:	02073821 	addu	a3,s0,a3
9d00f30c:	8e03000c 	lw	v1,12(s0)
9d00f310:	8e040008 	lw	a0,8(s0)
9d00f314:	02051021 	addu	v0,s0,a1
9d00f318:	ac43000c 	sw	v1,12(v0)
9d00f31c:	ac440008 	sw	a0,8(v0)
9d00f320:	ac620008 	sw	v0,8(v1)
9d00f324:	8c430008 	lw	v1,8(v0)
9d00f328:	34a50001 	ori	a1,a1,0x1
9d00f32c:	ac62000c 	sw	v0,12(v1)
9d00f330:	ac450000 	sw	a1,0(v0)
9d00f334:	ac480004 	sw	t0,4(v0)
9d00f338:	ace80000 	sw	t0,0(a3)
9d00f33c:	1000ffcc 	b	9d00f270 <malloc+0x18c>
9d00f340:	ae050004 	sw	a1,4(s0)
9d00f344:	00052023 	negu	a0,a1
9d00f348:	00852024 	and	a0,a0,a1
9d00f34c:	70822002 	mul	a0,a0,v0
9d00f350:	000426c2 	srl	a0,a0,0x1b
9d00f354:	01042021 	addu	a0,t0,a0
9d00f358:	1000ffd3 	b	9d00f2a8 <malloc+0x1c4>
9d00f35c:	80860000 	lb	a2,0(a0)
9d00f360:	00c02825 	move	a1,a2
9d00f364:	0f404961 	jal	9d012584 <unbin>
9d00f368:	02002025 	move	a0,s0
9d00f36c:	1000ffc1 	b	9d00f274 <malloc+0x190>
9d00f370:	8fa50028 	lw	a1,40(sp)

Disassembly of section .text.fpsubadd:

9d00f374 <__subsf3>:
9d00f374:	3c018000 00a12826                       ...<&(..

9d00f37c <__addsf3>:
9d00f37c:	00044dc2 312900ff 00055dc2 316b00ff     .M....)1.]....k1
9d00f38c:	3c078000 00044200 01074025 00055200     ...<.B..%@...R..
9d00f39c:	01475025 252dffff 2da100fe 10200061     %PG...-%...-a. .
9d00f3ac:	00000000                                ....

9d00f3b0 <Blab1>:
9d00f3b0:	256dffff 	addiu	t5,t3,-1
9d00f3b4:	2da100fe 	sltiu	at,t5,254
9d00f3b8:	10200077 	beqz	at,9d00f598 <BspecB>
9d00f3bc:	00000000 	nop

9d00f3c0 <Blab2>:
9d00f3c0:	012b6023 	subu	t4,t1,t3
9d00f3c4:	0580000d 	bltz	t4,9d00f3fc <i1>
9d00f3c8:	00000000 	nop
9d00f3cc:	29810020 	slti	at,t4,32
9d00f3d0:	14200003 	bnez	at,9d00f3e0 <i2>
9d00f3d4:	00000000 	nop
9d00f3d8:	10000015 	b	9d00f430 <e1>
9d00f3dc:	240a0002 	li	t2,2

9d00f3e0 <i2>:
9d00f3e0:	000a3025 	or	a2,zero,t2
9d00f3e4:	018a5006 	srlv	t2,t2,t4
9d00f3e8:	018a6804 	sllv	t5,t2,t4
9d00f3ec:	11a60010 	beq	t5,a2,9d00f430 <e1>
9d00f3f0:	00000000 	nop
9d00f3f4:	1000000e 	b	9d00f430 <e1>
9d00f3f8:	354a0002 	ori	t2,t2,0x2

9d00f3fc <i1>:
9d00f3fc:	000b4825 	or	t1,zero,t3
9d00f400:	000c6023 	negu	t4,t4
9d00f404:	29810020 	slti	at,t4,32
9d00f408:	14200003 	bnez	at,9d00f418 <i4>
9d00f40c:	00000000 	nop
9d00f410:	10000007 	b	9d00f430 <e1>
9d00f414:	24080002 	li	t0,2

9d00f418 <i4>:
9d00f418:	00083025 	or	a2,zero,t0
9d00f41c:	01884006 	srlv	t0,t0,t4
9d00f420:	01886804 	sllv	t5,t0,t4
9d00f424:	11a60002 	beq	t5,a2,9d00f430 <e1>
9d00f428:	00000000 	nop
9d00f42c:	35080002 	ori	t0,t0,0x2

9d00f430 <e1>:
9d00f430:	00876024 	and	t4,a0,a3
9d00f434:	01856826 	xor	t5,t4,a1
9d00f438:	05a00010 	bltz	t5,9d00f47c <Bsub1>
9d00f43c:	00000000 	nop
9d00f440:	010a4021 	addu	t0,t0,t2
9d00f444:	010a682b 	sltu	t5,t0,t2
9d00f448:	11a00017 	beqz	t5,9d00f4a8 <Bres>
9d00f44c:	00000000 	nop
9d00f450:	310d0001 	andi	t5,t0,0x1
9d00f454:	11a00002 	beqz	t5,9d00f460 <i7>
9d00f458:	00000000 	nop
9d00f45c:	35080002 	ori	t0,t0,0x2

9d00f460 <i7>:
9d00f460:	00084042 	srl	t0,t0,0x1
9d00f464:	25290001 	addiu	t1,t1,1
9d00f468:	240100ff 	li	at,255
9d00f46c:	1521000e 	bne	t1,at,9d00f4a8 <Bres>
9d00f470:	00000000 	nop
9d00f474:	1000000c 	b	9d00f4a8 <Bres>
9d00f478:	24080000 	li	t0,0

9d00f47c <Bsub1>:
9d00f47c:	010a682b 	sltu	t5,t0,t2
9d00f480:	11a00004 	beqz	t5,9d00f494 <i9>
9d00f484:	010a4023 	subu	t0,t0,t2
9d00f488:	00084023 	negu	t0,t0
9d00f48c:	10000003 	b	9d00f49c <e9>
9d00f490:	01876026 	xor	t4,t4,a3

9d00f494 <i9>:
9d00f494:	11000050 	beqz	t0,9d00f5d8 <Bzer>
9d00f498:	00000000 	nop

9d00f49c <e9>:
9d00f49c:	71063020 	clz	a2,t0
9d00f4a0:	01264823 	subu	t1,t1,a2
9d00f4a4:	00c84004 	sllv	t0,t0,a2

9d00f4a8 <Bres>:
9d00f4a8:	1920000e 	blez	t1,9d00f4e4 <Bund>
9d00f4ac:	00000000 	nop

9d00f4b0 <Blab12>:
9d00f4b0:	25080080 	addiu	t0,t0,128
9d00f4b4:	2d0d0080 	sltiu	t5,t0,128
9d00f4b8:	012d4821 	addu	t1,t1,t5
9d00f4bc:	00086a02 	srl	t5,t0,0x8
9d00f4c0:	31ad0001 	andi	t5,t5,0x1
9d00f4c4:	010d4023 	subu	t0,t0,t5
9d00f4c8:	00084040 	sll	t0,t0,0x1
9d00f4cc:	00084242 	srl	t0,t0,0x9
9d00f4d0:	00096dc0 	sll	t5,t1,0x17
9d00f4d4:	010d4025 	or	t0,t0,t5
9d00f4d8:	010c1025 	or	v0,t0,t4

9d00f4dc <B999>:
9d00f4dc:	03e00008 	jr	ra
9d00f4e0:	00000000 	nop

9d00f4e4 <Bund>:
9d00f4e4:	24060001 	li	a2,1
9d00f4e8:	00c93023 	subu	a2,a2,t1
9d00f4ec:	2cc10020 	sltiu	at,a2,32
9d00f4f0:	10200039 	beqz	at,9d00f5d8 <Bzer>
9d00f4f4:	00000000 	nop
9d00f4f8:	3c018000 	lui	at,0x8000
9d00f4fc:	01014025 	or	t0,t0,at
9d00f500:	240d0020 	li	t5,32
9d00f504:	01a66823 	subu	t5,t5,a2
9d00f508:	01a84804 	sllv	t1,t0,t5
9d00f50c:	11200002 	beqz	t1,9d00f518 <i10>
9d00f510:	00c84006 	srlv	t0,t0,a2
9d00f514:	35080001 	ori	t0,t0,0x1

9d00f518 <i10>:
9d00f518:	24090000 	li	t1,0
9d00f51c:	250d0080 	addiu	t5,t0,128
9d00f520:	05a1ffe3 	bgez	t5,9d00f4b0 <Blab12>
9d00f524:	00000000 	nop
9d00f528:	1000ffe1 	b	9d00f4b0 <Blab12>
9d00f52c:	24090001 	li	t1,1

9d00f530 <BspecA>:
9d00f530:	1520000e 	bnez	t1,9d00f56c <i12>
9d00f534:	00000000 	nop
9d00f538:	01084021 	addu	t0,t0,t0
9d00f53c:	11000005 	beqz	t0,9d00f554 <i13>
9d00f540:	00000000 	nop
9d00f544:	710c6020 	clz	t4,t0
9d00f548:	012c4823 	subu	t1,t1,t4
9d00f54c:	1000ff98 	b	9d00f3b0 <Blab1>
9d00f550:	01884004 	sllv	t0,t0,t4

9d00f554 <i13>:
9d00f554:	240100ff 	li	at,255
9d00f558:	1161000f 	beq	t3,at,9d00f598 <BspecB>
9d00f55c:	00000000 	nop
9d00f560:	3c018000 	lui	at,0x8000
9d00f564:	14a10018 	bne	a1,at,9d00f5c8 <BretB>
9d00f568:	00000000 	nop

9d00f56c <i12>:
9d00f56c:	01086821 	addu	t5,t0,t0
9d00f570:	15a0001b 	bnez	t5,9d00f5e0 <Bnan>
9d00f574:	00000000 	nop
9d00f578:	240100ff 	li	at,255
9d00f57c:	15610014 	bne	t3,at,9d00f5d0 <BretA>
9d00f580:	00000000 	nop
9d00f584:	00856826 	xor	t5,a0,a1
9d00f588:	05a00015 	bltz	t5,9d00f5e0 <Bnan>
9d00f58c:	00000000 	nop
9d00f590:	1000000d 	b	9d00f5c8 <BretB>
9d00f594:	00000000 	nop

9d00f598 <BspecB>:
9d00f598:	15600008 	bnez	t3,9d00f5bc <i15>
9d00f59c:	00000000 	nop
9d00f5a0:	014a5021 	addu	t2,t2,t2
9d00f5a4:	1140000a 	beqz	t2,9d00f5d0 <BretA>
9d00f5a8:	00000000 	nop
9d00f5ac:	714c6020 	clz	t4,t2
9d00f5b0:	016c5823 	subu	t3,t3,t4
9d00f5b4:	1000ff82 	b	9d00f3c0 <Blab2>
9d00f5b8:	018a5004 	sllv	t2,t2,t4

9d00f5bc <i15>:
9d00f5bc:	014a6821 	addu	t5,t2,t2
9d00f5c0:	15a00007 	bnez	t5,9d00f5e0 <Bnan>
9d00f5c4:	00000000 	nop

9d00f5c8 <BretB>:
9d00f5c8:	1000ffc4 	b	9d00f4dc <B999>
9d00f5cc:	00051025 	or	v0,zero,a1

9d00f5d0 <BretA>:
9d00f5d0:	1000ffc2 	b	9d00f4dc <B999>
9d00f5d4:	00041025 	or	v0,zero,a0

9d00f5d8 <Bzer>:
9d00f5d8:	1000ffc0 	b	9d00f4dc <B999>
9d00f5dc:	24020000 	li	v0,0

9d00f5e0 <Bnan>:
9d00f5e0:	1000ffbe 	b	9d00f4dc <B999>
9d00f5e4:	3c02ffc0 	lui	v0,0xffc0
9d00f5e8:	00000000 	nop

Disassembly of section .text.__fmt_x:

9d00f5ec <__fmt_x>:
9d00f5ec:	8ca20004 	lw	v0,4(a1)
9d00f5f0:	27bdffa8 	addiu	sp,sp,-88
9d00f5f4:	afb60048 	sw	s6,72(sp)
9d00f5f8:	afb3003c 	sw	s3,60(sp)
9d00f5fc:	afb20038 	sw	s2,56(sp)
9d00f600:	afbf0054 	sw	ra,84(sp)
9d00f604:	afbe0050 	sw	s8,80(sp)
9d00f608:	afb7004c 	sw	s7,76(sp)
9d00f60c:	afb50044 	sw	s5,68(sp)
9d00f610:	afb40040 	sw	s4,64(sp)
9d00f614:	afb10034 	sw	s1,52(sp)
9d00f618:	afb00030 	sw	s0,48(sp)
9d00f61c:	00809825 	move	s3,a0
9d00f620:	00a09025 	move	s2,a1
9d00f624:	00e04025 	move	t0,a3
9d00f628:	0440004d 	bltz	v0,9d00f760 <__fmt_x+0x174>
9d00f62c:	8cb60000 	lw	s6,0(a1)
9d00f630:	7c160844 	ins	s6,zero,0x1,0x1
9d00f634:	8e470008 	lw	a3,8(s2)
9d00f638:	32c90010 	andi	t1,s6,0x10
9d00f63c:	8cd40000 	lw	s4,0(a2)
9d00f640:	8cd70004 	lw	s7,4(a2)
9d00f644:	11200004 	beqz	t1,9d00f658 <__fmt_x+0x6c>
9d00f648:	00e08825 	move	s1,a3
9d00f64c:	02971825 	or	v1,s4,s7
9d00f650:	54600001 	bnezl	v1,9d00f658 <__fmt_x+0x6c>
9d00f654:	24f1fffe 	addiu	s1,a3,-2
9d00f658:	32ca0008 	andi	t2,s6,0x8
9d00f65c:	55400001 	bnezl	t2,9d00f664 <__fmt_x+0x78>
9d00f660:	2631ffff 	addiu	s1,s1,-1
9d00f664:	8e500010 	lw	s0,16(s2)
9d00f668:	8e55000c 	lw	s5,12(s2)
9d00f66c:	251effbf 	addiu	s8,t0,-65
9d00f670:	2610ffff 	addiu	s0,s0,-1
9d00f674:	02b01821 	addu	v1,s5,s0
9d00f678:	a0600000 	sb	zero,0(v1)
9d00f67c:	00512823 	subu	a1,v0,s1
9d00f680:	32cb0002 	andi	t3,s6,0x2
9d00f684:	2fde001a 	sltiu	s8,s8,26
9d00f688:	2a020002 	slti	v0,s0,2
9d00f68c:	1440000a 	bnez	v0,9d00f6b8 <__fmt_x+0xcc>
9d00f690:	02971025 	or	v0,s4,s7
9d00f694:	14400034 	bnez	v0,9d00f768 <__fmt_x+0x17c>
9d00f698:	3283000f 	andi	v1,s4,0xf
9d00f69c:	00b11021 	addu	v0,a1,s1
9d00f6a0:	1c400032 	bgtz	v0,9d00f76c <__fmt_x+0x180>
9d00f6a4:	2864000a 	slti	a0,v1,10
9d00f6a8:	1a200003 	blez	s1,9d00f6b8 <__fmt_x+0xcc>
9d00f6ac:	00000000 	nop
9d00f6b0:	1560002e 	bnez	t3,9d00f76c <__fmt_x+0x180>
9d00f6b4:	00000000 	nop
9d00f6b8:	1120000b 	beqz	t1,9d00f6e8 <__fmt_x+0xfc>
9d00f6bc:	00000000 	nop
9d00f6c0:	8cc20000 	lw	v0,0(a2)
9d00f6c4:	8cc30004 	lw	v1,4(a2)
9d00f6c8:	00431025 	or	v0,v0,v1
9d00f6cc:	10400006 	beqz	v0,9d00f6e8 <__fmt_x+0xfc>
9d00f6d0:	02b01021 	addu	v0,s5,s0
9d00f6d4:	2610fffe 	addiu	s0,s0,-2
9d00f6d8:	a048ffff 	sb	t0,-1(v0)
9d00f6dc:	24030030 	li	v1,48
9d00f6e0:	02b01021 	addu	v0,s5,s0
9d00f6e4:	a0430000 	sb	v1,0(v0)
9d00f6e8:	11400004 	beqz	t2,9d00f6fc <__fmt_x+0x110>
9d00f6ec:	24030020 	li	v1,32
9d00f6f0:	2610ffff 	addiu	s0,s0,-1
9d00f6f4:	02b01021 	addu	v0,s5,s0
9d00f6f8:	a0430000 	sb	v1,0(v0)
9d00f6fc:	8e460010 	lw	a2,16(s2)
9d00f700:	afb60010 	sw	s6,16(sp)
9d00f704:	02b02821 	addu	a1,s5,s0
9d00f708:	24c6ffff 	addiu	a2,a2,-1
9d00f70c:	00d03023 	subu	a2,a2,s0
9d00f710:	0f404682 	jal	9d011a08 <__pad>
9d00f714:	02602025 	move	a0,s3
9d00f718:	8e630004 	lw	v1,4(s3)
9d00f71c:	30630100 	andi	v1,v1,0x100
9d00f720:	10600004 	beqz	v1,9d00f734 <__fmt_x+0x148>
9d00f724:	8fbf0054 	lw	ra,84(sp)
9d00f728:	8e430004 	lw	v1,4(s2)
9d00f72c:	0043202a 	slt	a0,v0,v1
9d00f730:	0064100b 	movn	v0,v1,a0
9d00f734:	8fbe0050 	lw	s8,80(sp)
9d00f738:	8fb7004c 	lw	s7,76(sp)
9d00f73c:	8fb60048 	lw	s6,72(sp)
9d00f740:	8fb50044 	lw	s5,68(sp)
9d00f744:	8fb40040 	lw	s4,64(sp)
9d00f748:	8fb3003c 	lw	s3,60(sp)
9d00f74c:	8fb20038 	lw	s2,56(sp)
9d00f750:	8fb10034 	lw	s1,52(sp)
9d00f754:	8fb00030 	lw	s0,48(sp)
9d00f758:	03e00008 	jr	ra
9d00f75c:	27bd0058 	addiu	sp,sp,88
9d00f760:	1000ffb4 	b	9d00f634 <__fmt_x+0x48>
9d00f764:	24020001 	li	v0,1
9d00f768:	2864000a 	slti	a0,v1,10
9d00f76c:	10800002 	beqz	a0,9d00f778 <__fmt_x+0x18c>
9d00f770:	24620057 	addiu	v0,v1,87
9d00f774:	24620030 	addiu	v0,v1,48
9d00f778:	13c00015 	beqz	s8,9d00f7d0 <__fmt_x+0x1e4>
9d00f77c:	34430020 	ori	v1,v0,0x20
9d00f780:	2463ff9f 	addiu	v1,v1,-97
9d00f784:	2c63001a 	sltiu	v1,v1,26
9d00f788:	50600012 	beqzl	v1,9d00f7d4 <__fmt_x+0x1e8>
9d00f78c:	2610ffff 	addiu	s0,s0,-1
9d00f790:	00402025 	move	a0,v0
9d00f794:	afab0028 	sw	t3,40(sp)
9d00f798:	afa50024 	sw	a1,36(sp)
9d00f79c:	afa80064 	sw	t0,100(sp)
9d00f7a0:	afa60060 	sw	a2,96(sp)
9d00f7a4:	afa70020 	sw	a3,32(sp)
9d00f7a8:	afaa001c 	sw	t2,28(sp)
9d00f7ac:	0f4051ec 	jal	9d0147b0 <toupper>
9d00f7b0:	afa90018 	sw	t1,24(sp)
9d00f7b4:	8fab0028 	lw	t3,40(sp)
9d00f7b8:	8fa50024 	lw	a1,36(sp)
9d00f7bc:	8fa80064 	lw	t0,100(sp)
9d00f7c0:	8fa60060 	lw	a2,96(sp)
9d00f7c4:	8fa70020 	lw	a3,32(sp)
9d00f7c8:	8faa001c 	lw	t2,28(sp)
9d00f7cc:	8fa90018 	lw	t1,24(sp)
9d00f7d0:	2610ffff 	addiu	s0,s0,-1
9d00f7d4:	02b01821 	addu	v1,s5,s0
9d00f7d8:	a0620000 	sb	v0,0(v1)
9d00f7dc:	0014a102 	srl	s4,s4,0x4
9d00f7e0:	00171700 	sll	v0,s7,0x1c
9d00f7e4:	2631ffff 	addiu	s1,s1,-1
9d00f7e8:	0054a025 	or	s4,v0,s4
9d00f7ec:	1000ffa6 	b	9d00f688 <__fmt_x+0x9c>
9d00f7f0:	0017b902 	srl	s7,s7,0x4

Disassembly of section .text.__scan_x:

9d00f7f4 <__scan_x>:
9d00f7f4:	27bdffc0 	addiu	sp,sp,-64
9d00f7f8:	afb30024 	sw	s3,36(sp)
9d00f7fc:	8cd30008 	lw	s3,8(a2)
9d00f800:	afb60030 	sw	s6,48(sp)
9d00f804:	afb5002c 	sw	s5,44(sp)
9d00f808:	afb20020 	sw	s2,32(sp)
9d00f80c:	afb1001c 	sw	s1,28(sp)
9d00f810:	afbf003c 	sw	ra,60(sp)
9d00f814:	afbe0038 	sw	s8,56(sp)
9d00f818:	afb70034 	sw	s7,52(sp)
9d00f81c:	afb40028 	sw	s4,40(sp)
9d00f820:	afb00018 	sw	s0,24(sp)
9d00f824:	0080b025 	move	s6,a0
9d00f828:	afa50044 	sw	a1,68(sp)
9d00f82c:	00e09025 	move	s2,a3
9d00f830:	8cd50010 	lw	s5,16(a2)
9d00f834:	0f404909 	jal	9d012424 <__skipws>
9d00f838:	8cd1000c 	lw	s1,12(a2)
9d00f83c:	52600001 	beqzl	s3,9d00f844 <__scan_x+0x50>
9d00f840:	26b3ffff 	addiu	s3,s5,-1
9d00f844:	8e440000 	lw	a0,0(s2)
9d00f848:	00008025 	move	s0,zero
9d00f84c:	26b5ffff 	addiu	s5,s5,-1
9d00f850:	00822021 	addu	a0,a0,v0
9d00f854:	ae440000 	sw	a0,0(s2)
9d00f858:	24170078 	li	s7,120
9d00f85c:	241e0030 	li	s8,48
9d00f860:	0213102a 	slt	v0,s0,s3
9d00f864:	1040002f 	beqz	v0,9d00f924 <__scan_x+0x130>
9d00f868:	0215102a 	slt	v0,s0,s5
9d00f86c:	5040002e 	beqzl	v0,9d00f928 <__scan_x+0x134>
9d00f870:	02308021 	addu	s0,s1,s0
9d00f874:	8ec2003c 	lw	v0,60(s6)
9d00f878:	8ec4004c 	lw	a0,76(s6)
9d00f87c:	0044202b 	sltu	a0,v0,a0
9d00f880:	10800038 	beqz	a0,9d00f964 <__scan_x+0x170>
9d00f884:	24440001 	addiu	a0,v0,1
9d00f888:	aec4003c 	sw	a0,60(s6)
9d00f88c:	90540000 	lbu	s4,0(v0)
9d00f890:	0f405192 	jal	9d014648 <isxdigit>
9d00f894:	02802025 	move	a0,s4
9d00f898:	1440004b 	bnez	v0,9d00f9c8 <__scan_x+0x1d4>
9d00f89c:	24020001 	li	v0,1
9d00f8a0:	5602001b 	bnel	s0,v0,9d00f910 <__scan_x+0x11c>
9d00f8a4:	8ec2004c 	lw	v0,76(s6)
9d00f8a8:	0f4051de 	jal	9d014778 <tolower>
9d00f8ac:	02802025 	move	a0,s4
9d00f8b0:	54570017 	bnel	v0,s7,9d00f910 <__scan_x+0x11c>
9d00f8b4:	8ec2004c 	lw	v0,76(s6)
9d00f8b8:	82220000 	lb	v0,0(s1)
9d00f8bc:	545e0014 	bnel	v0,s8,9d00f910 <__scan_x+0x11c>
9d00f8c0:	8ec2004c 	lw	v0,76(s6)
9d00f8c4:	8ec2003c 	lw	v0,60(s6)
9d00f8c8:	8ec4004c 	lw	a0,76(s6)
9d00f8cc:	0044202b 	sltu	a0,v0,a0
9d00f8d0:	10800039 	beqz	a0,9d00f9b8 <__scan_x+0x1c4>
9d00f8d4:	00000000 	nop
9d00f8d8:	24440001 	addiu	a0,v0,1
9d00f8dc:	aec4003c 	sw	a0,60(s6)
9d00f8e0:	90420000 	lbu	v0,0(v0)
9d00f8e4:	8ec4004c 	lw	a0,76(s6)
9d00f8e8:	10800004 	beqz	a0,9d00f8fc <__scan_x+0x108>
9d00f8ec:	00000000 	nop
9d00f8f0:	8ec6003c 	lw	a2,60(s6)
9d00f8f4:	24c6ffff 	addiu	a2,a2,-1
9d00f8f8:	aec6003c 	sw	a2,60(s6)
9d00f8fc:	0f405192 	jal	9d014648 <isxdigit>
9d00f900:	00402025 	move	a0,v0
9d00f904:	14400031 	bnez	v0,9d00f9cc <__scan_x+0x1d8>
9d00f908:	02301021 	addu	v0,s1,s0
9d00f90c:	8ec2004c 	lw	v0,76(s6)
9d00f910:	50400005 	beqzl	v0,9d00f928 <__scan_x+0x134>
9d00f914:	02308021 	addu	s0,s1,s0
9d00f918:	8ec2003c 	lw	v0,60(s6)
9d00f91c:	2442ffff 	addiu	v0,v0,-1
9d00f920:	aec2003c 	sw	v0,60(s6)
9d00f924:	02308021 	addu	s0,s1,s0
9d00f928:	02202025 	move	a0,s1
9d00f92c:	27a50010 	addiu	a1,sp,16
9d00f930:	a2000000 	sb	zero,0(s0)
9d00f934:	0f4050d4 	jal	9d014350 <strtoull>
9d00f938:	24060010 	li	a2,16
9d00f93c:	8fa40044 	lw	a0,68(sp)
9d00f940:	8fa50010 	lw	a1,16(sp)
9d00f944:	ac820000 	sw	v0,0(a0)
9d00f948:	00b18826 	xor	s1,a1,s1
9d00f94c:	2402fffe 	li	v0,-2
9d00f950:	24050001 	li	a1,1
9d00f954:	0051280a 	movz	a1,v0,s1
9d00f958:	ac830004 	sw	v1,4(a0)
9d00f95c:	10000009 	b	9d00f984 <__scan_x+0x190>
9d00f960:	00a0a025 	move	s4,a1
9d00f964:	0f4048dc 	jal	9d012370 <__shgetc>
9d00f968:	02c02025 	move	a0,s6
9d00f96c:	0040a025 	move	s4,v0
9d00f970:	2402ffff 	li	v0,-1
9d00f974:	1682ffc6 	bne	s4,v0,9d00f890 <__scan_x+0x9c>
9d00f978:	00000000 	nop
9d00f97c:	1600ffea 	bnez	s0,9d00f928 <__scan_x+0x134>
9d00f980:	02308021 	addu	s0,s1,s0
9d00f984:	8fbf003c 	lw	ra,60(sp)
9d00f988:	02801025 	move	v0,s4
9d00f98c:	8fbe0038 	lw	s8,56(sp)
9d00f990:	8fb70034 	lw	s7,52(sp)
9d00f994:	8fb60030 	lw	s6,48(sp)
9d00f998:	8fb5002c 	lw	s5,44(sp)
9d00f99c:	8fb40028 	lw	s4,40(sp)
9d00f9a0:	8fb30024 	lw	s3,36(sp)
9d00f9a4:	8fb20020 	lw	s2,32(sp)
9d00f9a8:	8fb1001c 	lw	s1,28(sp)
9d00f9ac:	8fb00018 	lw	s0,24(sp)
9d00f9b0:	03e00008 	jr	ra
9d00f9b4:	27bd0040 	addiu	sp,sp,64
9d00f9b8:	0f4048dc 	jal	9d012370 <__shgetc>
9d00f9bc:	02c02025 	move	a0,s6
9d00f9c0:	1000ffc9 	b	9d00f8e8 <__scan_x+0xf4>
9d00f9c4:	8ec4004c 	lw	a0,76(s6)
9d00f9c8:	02301021 	addu	v0,s1,s0
9d00f9cc:	a0540000 	sb	s4,0(v0)
9d00f9d0:	8e420000 	lw	v0,0(s2)
9d00f9d4:	26100001 	addiu	s0,s0,1
9d00f9d8:	24420001 	addiu	v0,v0,1
9d00f9dc:	1000ffa0 	b	9d00f860 <__scan_x+0x6c>
9d00f9e0:	ae420000 	sw	v0,0(s2)

Disassembly of section .text:

9d00f9e4 <NU32DIP_Startup>:
#include "nu32dip.h"

void NU32DIP_Startup() {
9d00f9e4:	27bdfff8 	addiu	sp,sp,-8
9d00f9e8:	afbf0004 	sw	ra,4(sp)
    __builtin_disable_interrupts(); // disable interrupts while initializing things
9d00f9ec:	41626000 	di	v0
9d00f9f0:	000000c0 	ehb

    // set the CP0 CONFIG register to indicate that kseg0 is cacheable (0x3)
    __builtin_mtc0(_CP0_CONFIG, _CP0_CONFIG_SELECT, 0xa4210583);
9d00f9f4:	3c02a421 	lui	v0,0xa421
9d00f9f8:	24420583 	addiu	v0,v0,1411
9d00f9fc:	40828000 	mtc0	v0,c0_config
9d00fa00:	000000c0 	ehb

    // 0 data RAM access wait states
    BMXCONbits.BMXWSDRM = 0x0;
9d00fa04:	3c02bf88 	lui	v0,0xbf88
9d00fa08:	8c432000 	lw	v1,8192(v0)
9d00fa0c:	7c033184 	ins	v1,zero,0x6,0x1
9d00fa10:	ac432000 	sw	v1,8192(v0)

    // enable multi vector interrupts
    INTCONbits.MVEC = 0x1;
9d00fa14:	3c02bf88 	lui	v0,0xbf88
9d00fa18:	8c441000 	lw	a0,4096(v0)
9d00fa1c:	24030001 	li	v1,1
9d00fa20:	7c646304 	ins	a0,v1,0xc,0x1
9d00fa24:	ac441000 	sw	a0,4096(v0)

    // disable JTAG to get pins back
    DDPCONbits.JTAGEN = 0;
9d00fa28:	3c02bf81 	lui	v0,0xbf81
9d00fa2c:	9444f200 	lhu	a0,-3584(v0)
9d00fa30:	7c0418c4 	ins	a0,zero,0x3,0x1
9d00fa34:	a444f200 	sh	a0,-3584(v0)

    // do your TRIS and LAT commands here
    TRISBCLR = 0b110000; // B4 and B5 LEDs
9d00fa38:	3c02bf88 	lui	v0,0xbf88
9d00fa3c:	24040030 	li	a0,48
9d00fa40:	ac446114 	sw	a0,24852(v0)
    TRISASET = 0b010000; // A4 user button
9d00fa44:	3c02bf88 	lui	v0,0xbf88
9d00fa48:	24040010 	li	a0,16
9d00fa4c:	ac446018 	sw	a0,24600(v0)
    //NU32_LED1 = 1; // LED1 is off
    NU32DIP_YELLOW = 1;
9d00fa50:	3c02bf88 	lui	v0,0xbf88
9d00fa54:	94446130 	lhu	a0,24880(v0)
9d00fa58:	7c642944 	ins	a0,v1,0x5,0x1
9d00fa5c:	a4446130 	sh	a0,24880(v0)
    //NU32_LED2 = 0; // LED2 is on
    NU32DIP_GREEN = 0;
9d00fa60:	94446130 	lhu	a0,24880(v0)
9d00fa64:	7c042104 	ins	a0,zero,0x4,0x1
9d00fa68:	a4446130 	sh	a0,24880(v0)

    //UART1 pins
    U1RXRbits.U1RXR = 0b0000; // Set A2 to U1RX
9d00fa6c:	3c02bf81 	lui	v0,0xbf81
9d00fa70:	9044fa50 	lbu	a0,-1456(v0)
9d00fa74:	7c041804 	ins	a0,zero,0x0,0x4
9d00fa78:	a044fa50 	sb	a0,-1456(v0)
    RPB3Rbits.RPB3R = 0b0001; // Set B3 to U1TX
9d00fa7c:	3c02bf81 	lui	v0,0xbf81
9d00fa80:	9044fb38 	lbu	a0,-1224(v0)
9d00fa84:	7c641804 	ins	a0,v1,0x0,0x4
9d00fa88:	a044fb38 	sb	a0,-1224(v0)

    // turn on UART1 without an interrupt
    U1MODEbits.BRGH = 0; // set baud to NU32_DESIRED_BAUD
9d00fa8c:	3c02bf80 	lui	v0,0xbf80
9d00fa90:	94446000 	lhu	a0,24576(v0)
9d00fa94:	7c0418c4 	ins	a0,zero,0x3,0x1
9d00fa98:	a4446000 	sh	a0,24576(v0)
    U1BRG = ((NU32DIP_SYS_FREQ / NU32DIP_DESIRED_BAUD) / 16) - 1;
9d00fa9c:	3c04bf80 	lui	a0,0xbf80
9d00faa0:	2405000c 	li	a1,12
9d00faa4:	ac856040 	sw	a1,24640(a0)

    // 8 bit, no parity bit, and 1 stop bit (8N1 setup)
    U1MODEbits.PDSEL = 0;
9d00faa8:	94446000 	lhu	a0,24576(v0)
9d00faac:	7c041044 	ins	a0,zero,0x1,0x2
9d00fab0:	a4446000 	sh	a0,24576(v0)
    U1MODEbits.STSEL = 0;
9d00fab4:	94446000 	lhu	a0,24576(v0)
9d00fab8:	7c040004 	ins	a0,zero,0x0,0x1
9d00fabc:	a4446000 	sh	a0,24576(v0)

    // configure TX & RX pins as output & input pins
    U1STAbits.UTXEN = 1;
9d00fac0:	3c04bf80 	lui	a0,0xbf80
9d00fac4:	8c856010 	lw	a1,24592(a0)
9d00fac8:	7c655284 	ins	a1,v1,0xa,0x1
9d00facc:	ac856010 	sw	a1,24592(a0)
    U1STAbits.URXEN = 1;
9d00fad0:	8c856010 	lw	a1,24592(a0)
9d00fad4:	7c656304 	ins	a1,v1,0xc,0x1
9d00fad8:	ac856010 	sw	a1,24592(a0)
    // configure without hardware flow control
    U1MODEbits.UEN = 0;
9d00fadc:	94446000 	lhu	a0,24576(v0)
9d00fae0:	7c044a04 	ins	a0,zero,0x8,0x2
9d00fae4:	a4446000 	sh	a0,24576(v0)

    // enable the uart
    U1MODEbits.ON = 1;
9d00fae8:	94446000 	lhu	a0,24576(v0)
9d00faec:	7c647bc4 	ins	a0,v1,0xf,0x1
9d00faf0:	a4446000 	sh	a0,24576(v0)

    __builtin_enable_interrupts();
9d00faf4:	41626020 	ei	v0
}
9d00faf8:	8fbf0004 	lw	ra,4(sp)
9d00fafc:	03e00008 	jr	ra
9d00fb00:	27bd0008 	addiu	sp,sp,8

9d00fb04 <NU32DIP_ReadUART1>:
// block other functions until you get a '\r' or '\n'
// send the pointer to your char array and the number of elements in the array

void NU32DIP_ReadUART1(char * message, int maxLength) {
    char data = 0;
    int complete = 0, num_bytes = 0;
9d00fb04:	00001025 	move	v0,zero
    // loop until you get a '\r' or '\n'
    while (!complete) {
        if (U1STAbits.URXDA) { // if data is available
9d00fb08:	3c0abf80 	lui	t2,0xbf80
            data = U1RXREG; // read the data
9d00fb0c:	3c09bf80 	lui	t1,0xbf80
            if ((data == '\n') || (data == '\r')) {
9d00fb10:	2408000a 	li	t0,10
9d00fb14:	2407000d 	li	a3,13
        if (U1STAbits.URXDA) { // if data is available
9d00fb18:	8d436010 	lw	v1,24592(t2)
9d00fb1c:	30630001 	andi	v1,v1,0x1
9d00fb20:	1060fffd 	beqz	v1,9d00fb18 <NU32DIP_ReadUART1+0x14>
9d00fb24:	00000000 	nop
            data = U1RXREG; // read the data
9d00fb28:	8d236030 	lw	v1,24624(t1)
9d00fb2c:	7c031c20 	seb	v1,v1
            if ((data == '\n') || (data == '\r')) {
9d00fb30:	5068000b 	beql	v1,t0,9d00fb60 <NU32DIP_ReadUART1+0x5c>
9d00fb34:	00822021 	addu	a0,a0,v0
9d00fb38:	10670008 	beq	v1,a3,9d00fb5c <NU32DIP_ReadUART1+0x58>
9d00fb3c:	24460001 	addiu	a2,v0,1
                complete = 1;
            } else {
                message[num_bytes] = data;
                ++num_bytes;
                // roll over if the array is too small
                if (num_bytes >= maxLength) {
9d00fb40:	00c5302a 	slt	a2,a2,a1
                    num_bytes = 0;
9d00fb44:	244b0001 	addiu	t3,v0,1
                message[num_bytes] = data;
9d00fb48:	00821021 	addu	v0,a0,v0
9d00fb4c:	a0430000 	sb	v1,0(v0)
9d00fb50:	01601025 	move	v0,t3
9d00fb54:	1000fff0 	b	9d00fb18 <NU32DIP_ReadUART1+0x14>
9d00fb58:	0006100a 	movz	v0,zero,a2
                }
            }
        }
    }
    // end the string
    message[num_bytes] = '\0';
9d00fb5c:	00822021 	addu	a0,a0,v0
}
9d00fb60:	03e00008 	jr	ra
9d00fb64:	a0800000 	sb	zero,0(a0)

9d00fb68 <NU32DIP_WriteUART1>:

// Write a character array using UART1

void NU32DIP_WriteUART1(const char * string) {
    while (*string != '\0') {
9d00fb68:	80820000 	lb	v0,0(a0)
9d00fb6c:	1040000b 	beqz	v0,9d00fb9c <NU32DIP_WriteUART1+0x34>
9d00fb70:	3c06bf80 	lui	a2,0xbf80
        while (U1STAbits.UTXBF) {
            ; // wait until tx buffer isn't full
        }
        U1TXREG = *string;
9d00fb74:	3c05bf80 	lui	a1,0xbf80
        while (U1STAbits.UTXBF) {
9d00fb78:	8cc36010 	lw	v1,24592(a2)
9d00fb7c:	7c630240 	ext	v1,v1,0x9,0x1
9d00fb80:	1460fffd 	bnez	v1,9d00fb78 <NU32DIP_WriteUART1+0x10>
9d00fb84:	00000000 	nop
        U1TXREG = *string;
9d00fb88:	aca26020 	sw	v0,24608(a1)
        ++string;
9d00fb8c:	24840001 	addiu	a0,a0,1
    while (*string != '\0') {
9d00fb90:	80820000 	lb	v0,0(a0)
9d00fb94:	1440fff8 	bnez	v0,9d00fb78 <NU32DIP_WriteUART1+0x10>
9d00fb98:	00000000 	nop
    }
}
9d00fb9c:	03e00008 	jr	ra
9d00fba0:	00000000 	nop

Disassembly of section .text.fp32mul:

9d00fba4 <__mulsf3>:
9d00fba4:	00043dc2 30e700ff 00054dc2 312900ff     .=.....0.M....)1
9d00fbb4:	3c0a8000 00043200 00ca3025 00054200     ...<.2..%0...B..
9d00fbc4:	010a4025 00856026 014c5024 24ecffff     %@..&`..$PL....$
9d00fbd4:	2d8100fe 10200021 00000000              ...-!. .....

9d00fbe0 <Clab1>:
9d00fbe0:	252cffff 	addiu	t4,t1,-1
9d00fbe4:	2d8100fe 	sltiu	at,t4,254
9d00fbe8:	10200036 	beqz	at,9d00fcc4 <CspecB>
9d00fbec:	00000000 	nop

9d00fbf0 <Clab2>:
9d00fbf0:	00c80019 	multu	a2,t0
9d00fbf4:	00005812 	mflo	t3
9d00fbf8:	11600002 	beqz	t3,9d00fc04 <i17>
9d00fbfc:	00003010 	mfhi	a2
9d00fc00:	34c60001 	ori	a2,a2,0x1

9d00fc04 <i17>:
9d00fc04:	04c00003 	bltz	a2,9d00fc14 <i18>
9d00fc08:	00000000 	nop
9d00fc0c:	00063040 	sll	a2,a2,0x1
9d00fc10:	24e7ffff 	addiu	a3,a3,-1

9d00fc14 <i18>:
9d00fc14:	252cff82 	addiu	t4,t1,-126
9d00fc18:	00ec3821 	addu	a3,a3,t4
9d00fc1c:	24ecffff 	addiu	t4,a3,-1
9d00fc20:	2d8100fe 	sltiu	at,t4,254
9d00fc24:	1020003a 	beqz	at,9d00fd10 <Coveund>
9d00fc28:	00000000 	nop

9d00fc2c <Clab8>:
9d00fc2c:	24c60080 	addiu	a2,a2,128
9d00fc30:	2ccc0080 	sltiu	t4,a2,128
9d00fc34:	00ec3821 	addu	a3,a3,t4
9d00fc38:	00066202 	srl	t4,a2,0x8
9d00fc3c:	318c0001 	andi	t4,t4,0x1
9d00fc40:	00cc3023 	subu	a2,a2,t4
9d00fc44:	00063040 	sll	a2,a2,0x1
9d00fc48:	00063242 	srl	a2,a2,0x9
9d00fc4c:	000765c0 	sll	t4,a3,0x17
9d00fc50:	00cc3025 	or	a2,a2,t4
9d00fc54:	00ca1025 	or	v0,a2,t2

9d00fc58 <C999>:
9d00fc58:	03e00008 	jr	ra
9d00fc5c:	00000000 	nop

9d00fc60 <CspecA>:
9d00fc60:	14e0000d 	bnez	a3,9d00fc98 <i19>
9d00fc64:	00000000 	nop
9d00fc68:	00c63021 	addu	a2,a2,a2
9d00fc6c:	10c00005 	beqz	a2,9d00fc84 <i20>
9d00fc70:	00000000 	nop
9d00fc74:	70cb5820 	clz	t3,a2
9d00fc78:	00eb3823 	subu	a3,a3,t3
9d00fc7c:	1000ffd8 	b	9d00fbe0 <Clab1>
9d00fc80:	01663004 	sllv	a2,a2,t3

9d00fc84 <i20>:
9d00fc84:	240100ff 	li	at,255
9d00fc88:	1121001f 	beq	t1,at,9d00fd08 <Cnan>
9d00fc8c:	00000000 	nop
9d00fc90:	10000015 	b	9d00fce8 <Czer>
9d00fc94:	00000000 	nop

9d00fc98 <i19>:
9d00fc98:	00c66021 	addu	t4,a2,a2
9d00fc9c:	1580001a 	bnez	t4,9d00fd08 <Cnan>
9d00fca0:	00000000 	nop
9d00fca4:	15200004 	bnez	t1,9d00fcb8 <i21>
9d00fca8:	00000000 	nop
9d00fcac:	01086021 	addu	t4,t0,t0
9d00fcb0:	11800015 	beqz	t4,9d00fd08 <Cnan>
9d00fcb4:	00000000 	nop

9d00fcb8 <i21>:
9d00fcb8:	240100ff 	li	at,255
9d00fcbc:	1521000f 	bne	t1,at,9d00fcfc <Cinf>
9d00fcc0:	00000000 	nop

9d00fcc4 <CspecB>:
9d00fcc4:	1520000a 	bnez	t1,9d00fcf0 <i22>
9d00fcc8:	00000000 	nop
9d00fccc:	01084021 	addu	t0,t0,t0
9d00fcd0:	11000005 	beqz	t0,9d00fce8 <Czer>
9d00fcd4:	00000000 	nop
9d00fcd8:	710b5820 	clz	t3,t0
9d00fcdc:	012b4823 	subu	t1,t1,t3
9d00fce0:	1000ffc3 	b	9d00fbf0 <Clab2>
9d00fce4:	01684004 	sllv	t0,t0,t3

9d00fce8 <Czer>:
9d00fce8:	1000ffdb 	b	9d00fc58 <C999>
9d00fcec:	000a1025 	or	v0,zero,t2

9d00fcf0 <i22>:
9d00fcf0:	01086021 	addu	t4,t0,t0
9d00fcf4:	15800004 	bnez	t4,9d00fd08 <Cnan>
9d00fcf8:	00000000 	nop

9d00fcfc <Cinf>:
9d00fcfc:	3c017f80 	lui	at,0x7f80
9d00fd00:	1000ffd5 	b	9d00fc58 <C999>
9d00fd04:	01411025 	or	v0,t2,at

9d00fd08 <Cnan>:
9d00fd08:	1000ffd3 	b	9d00fc58 <C999>
9d00fd0c:	3c02ffc0 	lui	v0,0xffc0

9d00fd10 <Coveund>:
9d00fd10:	1ce0fffa 	bgtz	a3,9d00fcfc <Cinf>
9d00fd14:	00000000 	nop
9d00fd18:	240b0001 	li	t3,1
9d00fd1c:	01675823 	subu	t3,t3,a3
9d00fd20:	2d610020 	sltiu	at,t3,32
9d00fd24:	1020fff0 	beqz	at,9d00fce8 <Czer>
9d00fd28:	00000000 	nop
9d00fd2c:	240c0020 	li	t4,32
9d00fd30:	018b6023 	subu	t4,t4,t3
9d00fd34:	01863804 	sllv	a3,a2,t4
9d00fd38:	10e00002 	beqz	a3,9d00fd44 <i25>
9d00fd3c:	01663006 	srlv	a2,a2,t3
9d00fd40:	34c60002 	ori	a2,a2,0x2

9d00fd44 <i25>:
9d00fd44:	24070000 	li	a3,0
9d00fd48:	24cc0080 	addiu	t4,a2,128
9d00fd4c:	0581ffb7 	bgez	t4,9d00fc2c <Clab8>
9d00fd50:	00000000 	nop
9d00fd54:	1000ffb5 	b	9d00fc2c <Clab8>
9d00fd58:	24070001 	li	a3,1
9d00fd5c:	00000000 	nop

Disassembly of section .text.free:

9d00fd60 <free>:
9d00fd60:	10800063 	beqz	a0,9d00fef0 <free+0x190>
9d00fd64:	00000000 	nop
9d00fd68:	8c82fffc 	lw	v0,-4(a0)
9d00fd6c:	27bdffd0 	addiu	sp,sp,-48
9d00fd70:	afb2001c 	sw	s2,28(sp)
9d00fd74:	00409025 	move	s2,v0
9d00fd78:	afb00014 	sw	s0,20(sp)
9d00fd7c:	7c120004 	ins	s2,zero,0x0,0x1
9d00fd80:	2490fff8 	addiu	s0,a0,-8
9d00fd84:	afb10018 	sw	s1,24(sp)
9d00fd88:	02128821 	addu	s1,s0,s2
9d00fd8c:	8e230000 	lw	v1,0(s1)
9d00fd90:	afb40024 	sw	s4,36(sp)
9d00fd94:	afbf002c 	sw	ra,44(sp)
9d00fd98:	afb50028 	sw	s5,40(sp)
9d00fd9c:	afb30020 	sw	s3,32(sp)
9d00fda0:	10430003 	beq	v0,v1,9d00fdb0 <free+0x50>
9d00fda4:	2414fffe 	li	s4,-2
9d00fda8:	a0000000 	sb	zero,0(zero)
9d00fdac:	00000034 	teq	zero,zero
9d00fdb0:	8e020000 	lw	v0,0(s0)
9d00fdb4:	8e230004 	lw	v1,4(s1)
9d00fdb8:	00431024 	and	v0,v0,v1
9d00fdbc:	30420001 	andi	v0,v0,0x1
9d00fdc0:	1440000e 	bnez	v0,9d00fdfc <free+0x9c>
9d00fdc4:	36420001 	ori	v0,s2,0x1
9d00fdc8:	0f404d17 	jal	9d01345c <alloc_rev>
9d00fdcc:	02002025 	move	a0,s0
9d00fdd0:	54400041 	bnezl	v0,9d00fed8 <free+0x178>
9d00fdd4:	8e020000 	lw	v0,0(s0)
9d00fdd8:	0f404dc1 	jal	9d013704 <alloc_fwd>
9d00fddc:	02202025 	move	a0,s1
9d00fde0:	5040fff4 	beqzl	v0,9d00fdb4 <free+0x54>
9d00fde4:	8e020000 	lw	v0,0(s0)
9d00fde8:	8e220004 	lw	v0,4(s1)
9d00fdec:	02821024 	and	v0,s4,v0
9d00fdf0:	02429021 	addu	s2,s2,v0
9d00fdf4:	1000ffee 	b	9d00fdb0 <free+0x50>
9d00fdf8:	02228821 	addu	s1,s1,v0
9d00fdfc:	ae020004 	sw	v0,4(s0)
9d00fe00:	02402025 	move	a0,s2
9d00fe04:	0f404e2b 	jal	9d0138ac <bin_index>
9d00fe08:	ae220000 	sw	v0,0(s1)
9d00fe0c:	00402025 	move	a0,v0
9d00fe10:	0f405095 	jal	9d014254 <lock_bin>
9d00fe14:	00409825 	move	s3,v0
9d00fe18:	8e020000 	lw	v0,0(s0)
9d00fe1c:	8e230004 	lw	v1,4(s1)
9d00fe20:	00431024 	and	v0,v0,v1
9d00fe24:	30420001 	andi	v0,v0,0x1
9d00fe28:	1040ffe7 	beqz	v0,9d00fdc8 <free+0x68>
9d00fe2c:	3c15a000 	lui	s5,0xa000
9d00fe30:	8ea40e00 	lw	a0,3584(s5)
9d00fe34:	8ea50e04 	lw	a1,3588(s5)
9d00fe38:	02603025 	move	a2,s3
9d00fe3c:	0f405069 	jal	9d0141a4 <__lshrdi3>
9d00fe40:	26b40e00 	addiu	s4,s5,3584
9d00fe44:	30420001 	andi	v0,v0,0x1
9d00fe48:	1440000e 	bnez	v0,9d00fe84 <free+0x124>
9d00fe4c:	00002825 	move	a1,zero
9d00fe50:	02603025 	move	a2,s3
9d00fe54:	0f405078 	jal	9d0141e0 <__ashldi3>
9d00fe58:	24040001 	li	a0,1
9d00fe5c:	10400004 	beqz	v0,9d00fe70 <free+0x110>
9d00fe60:	00602825 	move	a1,v1
9d00fe64:	8ea40e00 	lw	a0,3584(s5)
9d00fe68:	00822025 	or	a0,a0,v0
9d00fe6c:	aea40e00 	sw	a0,3584(s5)
9d00fe70:	50a00005 	beqzl	a1,9d00fe88 <free+0x128>
9d00fe74:	26730001 	addiu	s3,s3,1
9d00fe78:	8e820004 	lw	v0,4(s4)
9d00fe7c:	00431025 	or	v0,v0,v1
9d00fe80:	ae820004 	sw	v0,4(s4)
9d00fe84:	26730001 	addiu	s3,s3,1
9d00fe88:	001398c0 	sll	s3,s3,0x3
9d00fe8c:	02939821 	addu	s3,s4,s3
9d00fe90:	2662fff8 	addiu	v0,s3,-8
9d00fe94:	ae120004 	sw	s2,4(s0)
9d00fe98:	ae320000 	sw	s2,0(s1)
9d00fe9c:	ae020008 	sw	v0,8(s0)
9d00fea0:	8e620004 	lw	v0,4(s3)
9d00fea4:	8fbf002c 	lw	ra,44(sp)
9d00fea8:	8fb50028 	lw	s5,40(sp)
9d00feac:	ae02000c 	sw	v0,12(s0)
9d00feb0:	ae700004 	sw	s0,4(s3)
9d00feb4:	8e02000c 	lw	v0,12(s0)
9d00feb8:	8fb40024 	lw	s4,36(sp)
9d00febc:	8fb30020 	lw	s3,32(sp)
9d00fec0:	ac500008 	sw	s0,8(v0)
9d00fec4:	8fb2001c 	lw	s2,28(sp)
9d00fec8:	8fb10018 	lw	s1,24(sp)
9d00fecc:	8fb00014 	lw	s0,20(sp)
9d00fed0:	03e00008 	jr	ra
9d00fed4:	27bd0030 	addiu	sp,sp,48
9d00fed8:	02821024 	and	v0,s4,v0
9d00fedc:	02028023 	subu	s0,s0,v0
9d00fee0:	8e020004 	lw	v0,4(s0)
9d00fee4:	02821024 	and	v0,s4,v0
9d00fee8:	1000ffbb 	b	9d00fdd8 <free+0x78>
9d00feec:	02429021 	addu	s2,s2,v0
9d00fef0:	03e00008 	jr	ra
9d00fef4:	00000000 	nop

Disassembly of section .dinit:

9d00fef8 <.dinit>:
9d00fef8:	a000000c 	sb	zero,12(zero)
9d00fefc:	0000000c 	syscall
9d00ff00:	00000000 	nop
9d00ff04:	a0000050 	sb	zero,80(zero)
9d00ff08:	00000064 	0x64
9d00ff0c:	00000000 	nop
9d00ff10:	a0000018 	sb	zero,24(zero)
9d00ff14:	00000014 	0x14
9d00ff18:	00000000 	nop
9d00ff1c:	a0000000 	sb	zero,0(zero)
9d00ff20:	00000004 	sllv	zero,zero,zero
9d00ff24:	00000001 	movf	zero,zero,$fcc0
9d00ff28:	43480000 	c0	0x1480000
9d00ff2c:	a0000004 	sb	zero,4(zero)
9d00ff30:	00000004 	sllv	zero,zero,zero
9d00ff34:	00000001 	movf	zero,zero,$fcc0
9d00ff38:	00000001 	movf	zero,zero,$fcc0
9d00ff3c:	a000002c 	sb	zero,44(zero)
9d00ff40:	00000020 	add	zero,zero,zero
9d00ff44:	00000000 	nop
9d00ff48:	a00000b4 	sb	zero,180(zero)
9d00ff4c:	00000c80 	sll	at,zero,0x12
9d00ff50:	00000000 	nop
9d00ff54:	a0000d34 	sb	zero,3380(zero)
9d00ff58:	00000060 	0x60
9d00ff5c:	00000001 	movf	zero,zero,$fcc0
9d00ff60:	00000001 	movf	zero,zero,$fcc0
9d00ff64:	00000003 	sra	zero,zero,0x0
	...
9d00ff7c:	9d01213c 	0x9d01213c
	...
9d00ff8c:	9d0146ac 	0x9d0146ac
9d00ff90:	9d012c80 	0x9d012c80
	...
9d00ffc0:	a0000df4 	sb	zero,3572(zero)
9d00ffc4:	00000004 	sllv	zero,zero,zero
9d00ffc8:	00000000 	nop
9d00ffcc:	a0000d94 	sb	zero,3476(zero)
9d00ffd0:	00000060 	0x60
9d00ffd4:	00000001 	movf	zero,zero,$fcc0
9d00ffd8:	00000001 	movf	zero,zero,$fcc0
9d00ffdc:	00000003 	sra	zero,zero,0x0
	...
9d00fff4:	9d01213c 	0x9d01213c
	...
9d010004:	9d0146ac 	0x9d0146ac
9d010008:	9d012c80 	0x9d012c80
	...
9d010038:	a0000df8 	sb	zero,3576(zero)
9d01003c:	00000210 	0x210
9d010040:	00000000 	nop
9d010044:	a0001008 	sb	zero,4104(zero)
9d010048:	00000050 	0x50
9d01004c:	00000000 	nop
9d010050:	a0001058 	sb	zero,4184(zero)
9d010054:	00000024 	and	zero,zero,zero
9d010058:	00000000 	nop
9d01005c:	a0000008 	sb	zero,8(zero)
9d010060:	00000004 	sllv	zero,zero,zero
9d010064:	00000001 	movf	zero,zero,$fcc0
9d010068:	00000002 	srl	zero,zero,0x0
9d01006c:	a000107c 	sb	zero,4220(zero)
9d010070:	00000004 	sllv	zero,zero,zero
	...
9d01007c:	44444444 	0x44444444
9d010080:	44444444 	0x44444444
9d010084:	44444444 	0x44444444

Disassembly of section .text.__pop_int:

9d010088 <__pop_int>:
9d010088:	24020088 	li	v0,136
9d01008c:	10a2003f 	beq	a1,v0,9d01018c <__pop_int+0x104>
9d010090:	28a20089 	slti	v0,a1,137
9d010094:	1040001a 	beqz	v0,9d010100 <__pop_int+0x78>
9d010098:	24020081 	li	v0,129
9d01009c:	10a20054 	beq	a1,v0,9d0101f0 <__pop_int+0x168>
9d0100a0:	28a20082 	slti	v0,a1,130
9d0100a4:	10400005 	beqz	v0,9d0100bc <__pop_int+0x34>
9d0100a8:	24020080 	li	v0,128
9d0100ac:	50a20051 	beql	a1,v0,9d0101f4 <__pop_int+0x16c>
9d0100b0:	8ce20000 	lw	v0,0(a3)
9d0100b4:	03e00008 	jr	ra
9d0100b8:	00001025 	move	v0,zero
9d0100bc:	24020082 	li	v0,130
9d0100c0:	50a2003b 	beql	a1,v0,9d0101b0 <__pop_int+0x128>
9d0100c4:	8ce20000 	lw	v0,0(a3)
9d0100c8:	24020084 	li	v0,132
9d0100cc:	14a2fff9 	bne	a1,v0,9d0100b4 <__pop_int+0x2c>
9d0100d0:	00000000 	nop
9d0100d4:	8ce20000 	lw	v0,0(a3)
9d0100d8:	24430004 	addiu	v1,v0,4
9d0100dc:	8c420000 	lw	v0,0(v0)
9d0100e0:	10c00027 	beqz	a2,9d010180 <__pop_int+0xf8>
9d0100e4:	ace30000 	sw	v1,0(a3)
9d0100e8:	7c021620 	seh	v0,v0
9d0100ec:	ac820000 	sw	v0,0(a0)
9d0100f0:	000217c3 	sra	v0,v0,0x1f
9d0100f4:	ac820004 	sw	v0,4(a0)
9d0100f8:	03e00008 	jr	ra
9d0100fc:	24020001 	li	v0,1
9d010100:	240200a0 	li	v0,160
9d010104:	50a20036 	beql	a1,v0,9d0101e0 <__pop_int+0x158>
9d010108:	8ce20000 	lw	v0,0(a3)
9d01010c:	28a200a1 	slti	v0,a1,161
9d010110:	10400010 	beqz	v0,9d010154 <__pop_int+0xcc>
9d010114:	24020090 	li	v0,144
9d010118:	14a2ffe6 	bne	a1,v0,9d0100b4 <__pop_int+0x2c>
9d01011c:	00000000 	nop
9d010120:	8ce20000 	lw	v0,0(a3)
9d010124:	24420007 	addiu	v0,v0,7
9d010128:	7c021004 	ins	v0,zero,0x0,0x3
9d01012c:	8c480000 	lw	t0,0(v0)
9d010130:	8c490004 	lw	t1,4(v0)
9d010134:	24420008 	addiu	v0,v0,8
9d010138:	ace20000 	sw	v0,0(a3)
9d01013c:	ac880000 	sw	t0,0(a0)
9d010140:	ac890004 	sw	t1,4(a0)
9d010144:	10c00001 	beqz	a2,9d01014c <__pop_int+0xc4>
9d010148:	24020001 	li	v0,1
9d01014c:	03e00008 	jr	ra
9d010150:	00000000 	nop
9d010154:	240200c0 	li	v0,192
9d010158:	50a20005 	beql	a1,v0,9d010170 <__pop_int+0xe8>
9d01015c:	8ce20000 	lw	v0,0(a3)
9d010160:	240200f0 	li	v0,240
9d010164:	14a2ffd3 	bne	a1,v0,9d0100b4 <__pop_int+0x2c>
9d010168:	00000000 	nop
9d01016c:	8ce20000 	lw	v0,0(a3)
9d010170:	24430004 	addiu	v1,v0,4
9d010174:	ace30000 	sw	v1,0(a3)
9d010178:	10000002 	b	9d010184 <__pop_int+0xfc>
9d01017c:	8c420000 	lw	v0,0(v0)
9d010180:	3042ffff 	andi	v0,v0,0xffff
9d010184:	10000020 	b	9d010208 <__pop_int+0x180>
9d010188:	ac820000 	sw	v0,0(a0)
9d01018c:	8ce20000 	lw	v0,0(a3)
9d010190:	24430004 	addiu	v1,v0,4
9d010194:	8c420000 	lw	v0,0(v0)
9d010198:	10c00003 	beqz	a2,9d0101a8 <__pop_int+0x120>
9d01019c:	ace30000 	sw	v1,0(a3)
9d0101a0:	1000ffd2 	b	9d0100ec <__pop_int+0x64>
9d0101a4:	7c021420 	seb	v0,v0
9d0101a8:	1000fff6 	b	9d010184 <__pop_int+0xfc>
9d0101ac:	304200ff 	andi	v0,v0,0xff
9d0101b0:	24420007 	addiu	v0,v0,7
9d0101b4:	7c021004 	ins	v0,zero,0x0,0x3
9d0101b8:	8c480000 	lw	t0,0(v0)
9d0101bc:	8c490004 	lw	t1,4(v0)
9d0101c0:	24420008 	addiu	v0,v0,8
9d0101c4:	ace20000 	sw	v0,0(a3)
9d0101c8:	ac880000 	sw	t0,0(a0)
9d0101cc:	ac890004 	sw	t1,4(a0)
9d0101d0:	10c0ffde 	beqz	a2,9d01014c <__pop_int+0xc4>
9d0101d4:	24020001 	li	v0,1
9d0101d8:	03e00008 	jr	ra
9d0101dc:	00000000 	nop
9d0101e0:	24430004 	addiu	v1,v0,4
9d0101e4:	ace30000 	sw	v1,0(a3)
9d0101e8:	1000ffc0 	b	9d0100ec <__pop_int+0x64>
9d0101ec:	8c420000 	lw	v0,0(v0)
9d0101f0:	8ce20000 	lw	v0,0(a3)
9d0101f4:	24430004 	addiu	v1,v0,4
9d0101f8:	ace30000 	sw	v1,0(a3)
9d0101fc:	8c420000 	lw	v0,0(v0)
9d010200:	14c0ffbb 	bnez	a2,9d0100f0 <__pop_int+0x68>
9d010204:	ac820000 	sw	v0,0(a0)
9d010208:	1000ffbb 	b	9d0100f8 <__pop_int+0x70>
9d01020c:	ac800004 	sw	zero,4(a0)

Disassembly of section .text:

9d010210 <i2c_master_setup>:
// I2C Master utilities, 400 kHz, using polling rather than interrupts
// The functions must be callled in the correct order as per the I2C protocol
// Master will use I2C1 (SET PINS) SDA1 (D9) and SCL1 (D10)

void i2c_master_setup(void) {
  I2C1BRG = 53; //53 for 400kHz    // I2CBRG = [1/(2*Fsck) - PGD]*Pblck - 2 
9d010210:	3c02bf80 	lui	v0,0xbf80
9d010214:	24030035 	li	v1,53
9d010218:	ac435040 	sw	v1,20544(v0)
                                    // Fsck is the SCL freq, PGD = 104 ns
  I2C1CONbits.ON = 1;               // turn on the I2C1 module
9d01021c:	3c02bf80 	lui	v0,0xbf80
9d010220:	94435000 	lhu	v1,20480(v0)
9d010224:	24040001 	li	a0,1
9d010228:	7c837bc4 	ins	v1,a0,0xf,0x1
9d01022c:	a4435000 	sh	v1,20480(v0)
}
9d010230:	03e00008 	jr	ra
9d010234:	00000000 	nop

9d010238 <i2c_master_start>:

// Start a transmission on the I2C bus
void i2c_master_start(void) {
    I2C1CONbits.SEN = 1;            // send the start bit
9d010238:	3c02bf80 	lui	v0,0xbf80
9d01023c:	94435000 	lhu	v1,20480(v0)
9d010240:	24040001 	li	a0,1
9d010244:	7c830004 	ins	v1,a0,0x0,0x1
9d010248:	a4435000 	sh	v1,20480(v0)
    while(I2C1CONbits.SEN) { ; }    // wait for the start bit to be sent
9d01024c:	00401825 	move	v1,v0
9d010250:	8c625000 	lw	v0,20480(v1)
9d010254:	30420001 	andi	v0,v0,0x1
9d010258:	1440fffd 	bnez	v0,9d010250 <i2c_master_start+0x18>
9d01025c:	00000000 	nop
}
9d010260:	03e00008 	jr	ra
9d010264:	00000000 	nop

9d010268 <i2c_master_restart>:

void i2c_master_restart(void) {     
    I2C1CONbits.RSEN = 1;           // send a restart 
9d010268:	3c02bf80 	lui	v0,0xbf80
9d01026c:	94435000 	lhu	v1,20480(v0)
9d010270:	24040001 	li	a0,1
9d010274:	7c830844 	ins	v1,a0,0x1,0x1
9d010278:	a4435000 	sh	v1,20480(v0)
    while(I2C1CONbits.RSEN) { ; }   // wait for the restart to clear
9d01027c:	00401825 	move	v1,v0
9d010280:	8c625000 	lw	v0,20480(v1)
9d010284:	7c420040 	ext	v0,v0,0x1,0x1
9d010288:	1440fffd 	bnez	v0,9d010280 <i2c_master_restart+0x18>
9d01028c:	00000000 	nop
}
9d010290:	03e00008 	jr	ra
9d010294:	00000000 	nop

9d010298 <i2c_master_send>:

void i2c_master_send(unsigned char byte) { // send a byte to slave
  I2C1TRN = byte;                   // if an address, bit 0 = 0 for write, 1 for read
9d010298:	3c02bf80 	lui	v0,0xbf80
9d01029c:	ac445050 	sw	a0,20560(v0)
  while(I2C1STATbits.TRSTAT) { ; }  // wait for the transmission to finish
9d0102a0:	3c03bf80 	lui	v1,0xbf80
9d0102a4:	8c625010 	lw	v0,20496(v1)
9d0102a8:	7c420380 	ext	v0,v0,0xe,0x1
9d0102ac:	1440fffd 	bnez	v0,9d0102a4 <i2c_master_send+0xc>
9d0102b0:	3c02bf80 	lui	v0,0xbf80
  if(I2C1STATbits.ACKSTAT) {        // if this is high, slave has not acknowledged
9d0102b4:	8c425010 	lw	v0,20496(v0)
9d0102b8:	7c4203c0 	ext	v0,v0,0xf,0x1
9d0102bc:	10400008 	beqz	v0,9d0102e0 <i2c_master_send+0x48>
9d0102c0:	3c049d00 	lui	a0,0x9d00
void i2c_master_send(unsigned char byte) { // send a byte to slave
9d0102c4:	27bdffe8 	addiu	sp,sp,-24
9d0102c8:	afbf0014 	sw	ra,20(sp)
    NU32DIP_WriteUART1("I2C2 Master: failed to receive ACK\r\n");
9d0102cc:	0f403eda 	jal	9d00fb68 <NU32DIP_WriteUART1>
9d0102d0:	24847494 	addiu	a0,a0,29844
  }
}
9d0102d4:	8fbf0014 	lw	ra,20(sp)
9d0102d8:	03e00008 	jr	ra
9d0102dc:	27bd0018 	addiu	sp,sp,24
9d0102e0:	03e00008 	jr	ra
9d0102e4:	00000000 	nop

9d0102e8 <i2c_master_recv>:

unsigned char i2c_master_recv(void) { // receive a byte from the slave
    I2C1CONbits.RCEN = 1;             // start receiving data
9d0102e8:	3c02bf80 	lui	v0,0xbf80
9d0102ec:	94435000 	lhu	v1,20480(v0)
9d0102f0:	24040001 	li	a0,1
9d0102f4:	7c8318c4 	ins	v1,a0,0x3,0x1
9d0102f8:	a4435000 	sh	v1,20480(v0)
    while(!I2C1STATbits.RBF) { ; }    // wait to receive the data
9d0102fc:	3c03bf80 	lui	v1,0xbf80
9d010300:	8c625010 	lw	v0,20496(v1)
9d010304:	7c420040 	ext	v0,v0,0x1,0x1
9d010308:	1040fffd 	beqz	v0,9d010300 <i2c_master_recv+0x18>
9d01030c:	3c02bf80 	lui	v0,0xbf80
    return I2C1RCV;                   // read and return the data
9d010310:	8c425060 	lw	v0,20576(v0)
}
9d010314:	03e00008 	jr	ra
9d010318:	304200ff 	andi	v0,v0,0xff

9d01031c <i2c_master_ack>:

void i2c_master_ack(int val) {        // sends ACK = 0 (slave should send another byte)
                                      // or NACK = 1 (no more bytes requested from slave)
    I2C1CONbits.ACKDT = val;          // store ACK/NACK in ACKDT
9d01031c:	3c02bf80 	lui	v0,0xbf80
9d010320:	94435000 	lhu	v1,20480(v0)
9d010324:	7c832944 	ins	v1,a0,0x5,0x1
9d010328:	a4435000 	sh	v1,20480(v0)
    I2C1CONbits.ACKEN = 1;            // send ACKDT
9d01032c:	94435000 	lhu	v1,20480(v0)
9d010330:	24040001 	li	a0,1
9d010334:	7c832104 	ins	v1,a0,0x4,0x1
9d010338:	a4435000 	sh	v1,20480(v0)
    while(I2C1CONbits.ACKEN) { ; }    // wait for ACK/NACK to be sent
9d01033c:	00401825 	move	v1,v0
9d010340:	8c625000 	lw	v0,20480(v1)
9d010344:	7c420100 	ext	v0,v0,0x4,0x1
9d010348:	1440fffd 	bnez	v0,9d010340 <i2c_master_ack+0x24>
9d01034c:	00000000 	nop
}
9d010350:	03e00008 	jr	ra
9d010354:	00000000 	nop

9d010358 <i2c_master_stop>:

void i2c_master_stop(void) {          // send a STOP:
  I2C1CONbits.PEN = 1;                // comm is complete and master relinquishes bus
9d010358:	3c02bf80 	lui	v0,0xbf80
9d01035c:	94435000 	lhu	v1,20480(v0)
9d010360:	24040001 	li	a0,1
9d010364:	7c831084 	ins	v1,a0,0x2,0x1
9d010368:	a4435000 	sh	v1,20480(v0)
  while(I2C1CONbits.PEN) { ; }        // wait for STOP to complete
9d01036c:	00401825 	move	v1,v0
9d010370:	8c625000 	lw	v0,20480(v1)
9d010374:	7c420080 	ext	v0,v0,0x2,0x1
9d010378:	1440fffd 	bnez	v0,9d010370 <i2c_master_stop+0x18>
9d01037c:	00000000 	nop
}
9d010380:	03e00008 	jr	ra
9d010384:	00000000 	nop

Disassembly of section .text.__push_int:

9d010388 <__push_int>:
9d010388:	24020088 	li	v0,136
9d01038c:	50a2003c 	beql	a1,v0,9d010480 <__push_int+0xf8>
9d010390:	8ce20000 	lw	v0,0(a3)
9d010394:	28a20089 	slti	v0,a1,137
9d010398:	10400019 	beqz	v0,9d010400 <__push_int+0x78>
9d01039c:	24020081 	li	v0,129
9d0103a0:	50a20040 	beql	a1,v0,9d0104a4 <__push_int+0x11c>
9d0103a4:	8ce20000 	lw	v0,0(a3)
9d0103a8:	28a20082 	slti	v0,a1,130
9d0103ac:	10400005 	beqz	v0,9d0103c4 <__push_int+0x3c>
9d0103b0:	24020080 	li	v0,128
9d0103b4:	50a20048 	beql	a1,v0,9d0104d8 <__push_int+0x150>
9d0103b8:	8ce20000 	lw	v0,0(a3)
9d0103bc:	03e00008 	jr	ra
9d0103c0:	00001025 	move	v0,zero
9d0103c4:	24020082 	li	v0,130
9d0103c8:	10a20015 	beq	a1,v0,9d010420 <__push_int+0x98>
9d0103cc:	24020084 	li	v0,132
9d0103d0:	14a2fffa 	bne	a1,v0,9d0103bc <__push_int+0x34>
9d0103d4:	00000000 	nop
9d0103d8:	8ce20000 	lw	v0,0(a3)
9d0103dc:	8c830000 	lw	v1,0(a0)
9d0103e0:	24440004 	addiu	a0,v0,4
9d0103e4:	ace40000 	sw	a0,0(a3)
9d0103e8:	8c420000 	lw	v0,0(v0)
9d0103ec:	a4430000 	sh	v1,0(v0)
9d0103f0:	10c00001 	beqz	a2,9d0103f8 <__push_int+0x70>
9d0103f4:	24020001 	li	v0,1
9d0103f8:	03e00008 	jr	ra
9d0103fc:	00000000 	nop
9d010400:	240200a0 	li	v0,160
9d010404:	50a20018 	beql	a1,v0,9d010468 <__push_int+0xe0>
9d010408:	8ce20000 	lw	v0,0(a3)
9d01040c:	28a200a1 	slti	v0,a1,161
9d010410:	1040000e 	beqz	v0,9d01044c <__push_int+0xc4>
9d010414:	24020090 	li	v0,144
9d010418:	14a2ffe8 	bne	a1,v0,9d0103bc <__push_int+0x34>
9d01041c:	00000000 	nop
9d010420:	8ce20000 	lw	v0,0(a3)
9d010424:	10c00028 	beqz	a2,9d0104c8 <__push_int+0x140>
9d010428:	24430004 	addiu	v1,v0,4
9d01042c:	ace30000 	sw	v1,0(a3)
9d010430:	8c850004 	lw	a1,4(a0)
9d010434:	8c840000 	lw	a0,0(a0)
9d010438:	8c420000 	lw	v0,0(v0)
9d01043c:	ac440000 	sw	a0,0(v0)
9d010440:	ac450004 	sw	a1,4(v0)
9d010444:	03e00008 	jr	ra
9d010448:	24020001 	li	v0,1
9d01044c:	240200c0 	li	v0,192
9d010450:	50a20005 	beql	a1,v0,9d010468 <__push_int+0xe0>
9d010454:	8ce20000 	lw	v0,0(a3)
9d010458:	240200f0 	li	v0,240
9d01045c:	14a2ffd7 	bne	a1,v0,9d0103bc <__push_int+0x34>
9d010460:	00000000 	nop
9d010464:	8ce20000 	lw	v0,0(a3)
9d010468:	8c830000 	lw	v1,0(a0)
9d01046c:	24440004 	addiu	a0,v0,4
9d010470:	ace40000 	sw	a0,0(a3)
9d010474:	8c420000 	lw	v0,0(v0)
9d010478:	1000fff2 	b	9d010444 <__push_int+0xbc>
9d01047c:	ac430000 	sw	v1,0(v0)
9d010480:	8c830000 	lw	v1,0(a0)
9d010484:	24440004 	addiu	a0,v0,4
9d010488:	ace40000 	sw	a0,0(a3)
9d01048c:	8c420000 	lw	v0,0(v0)
9d010490:	a0430000 	sb	v1,0(v0)
9d010494:	10c0ffd8 	beqz	a2,9d0103f8 <__push_int+0x70>
9d010498:	24020001 	li	v0,1
9d01049c:	03e00008 	jr	ra
9d0104a0:	00000000 	nop
9d0104a4:	8c830000 	lw	v1,0(a0)
9d0104a8:	24440004 	addiu	a0,v0,4
9d0104ac:	ace40000 	sw	a0,0(a3)
9d0104b0:	8c420000 	lw	v0,0(v0)
9d0104b4:	ac430000 	sw	v1,0(v0)
9d0104b8:	10c0ffcf 	beqz	a2,9d0103f8 <__push_int+0x70>
9d0104bc:	24020001 	li	v0,1
9d0104c0:	03e00008 	jr	ra
9d0104c4:	00000000 	nop
9d0104c8:	8c850004 	lw	a1,4(a0)
9d0104cc:	8c840000 	lw	a0,0(a0)
9d0104d0:	1000ffd9 	b	9d010438 <__push_int+0xb0>
9d0104d4:	ace30000 	sw	v1,0(a3)
9d0104d8:	8c830000 	lw	v1,0(a0)
9d0104dc:	24440004 	addiu	a0,v0,4
9d0104e0:	ace40000 	sw	a0,0(a3)
9d0104e4:	8c420000 	lw	v0,0(v0)
9d0104e8:	ac430000 	sw	v1,0(v0)
9d0104ec:	24020001 	li	v0,1
9d0104f0:	03e00008 	jr	ra
9d0104f4:	00000000 	nop

Disassembly of section .text.libm:

9d0104f8 <__mchp_ldexp>:
9d0104f8:	00054840 00094d42 252cffff 2d8107fe     @H..BM....,%...-
9d010508:	1020000f 00000000                       .. .....

9d010510 <Clab1>:
9d010510:	01264821 	addu	t1,t1,a2
9d010514:	252cffff 	addiu	t4,t1,-1
9d010518:	2d8107fe 	sltiu	at,t4,2046
9d01051c:	10200021 	beqz	at,9d0105a4 <Cspec2>
9d010520:	00000000 	nop
9d010524:	3c01800f 	lui	at,0x800f
9d010528:	3421ffff 	ori	at,at,0xffff
9d01052c:	00a12824 	and	a1,a1,at
9d010530:	00096500 	sll	t4,t1,0x14
9d010534:	00ac2825 	or	a1,a1,t4

9d010538 <Cret>:
9d010538:	00041025 	or	v0,zero,a0
9d01053c:	00051825 	or	v1,zero,a1

9d010540 <C999>:
9d010540:	03e00008 	jr	ra
9d010544:	00000000 	nop

9d010548 <Cspec>:
9d010548:	00056300 	sll	t4,a1,0xc
9d01054c:	01846025 	or	t4,t4,a0
9d010550:	1180fff9 	beqz	t4,9d010538 <Cret>
9d010554:	00000000 	nop
9d010558:	11200004 	beqz	t1,9d01056c <i9>
9d01055c:	00000000 	nop
9d010560:	3c05fff8 	lui	a1,0xfff8
9d010564:	1000fff4 	b	9d010538 <Cret>
9d010568:	24040000 	li	a0,0

9d01056c <i9>:
9d01056c:	25290001 	addiu	t1,t1,1
9d010570:	3c018000 	lui	at,0x8000
9d010574:	00a15024 	and	t2,a1,at

9d010578 <b10>:
9d010578:	2529ffff 	addiu	t1,t1,-1
9d01057c:	0080602a 	slt	t4,a0,zero
9d010580:	00842021 	addu	a0,a0,a0
9d010584:	00a52821 	addu	a1,a1,a1
9d010588:	00ac2821 	addu	a1,a1,t4
9d01058c:	3c010010 	lui	at,0x10
9d010590:	00a1082b 	sltu	at,a1,at
9d010594:	1420fff8 	bnez	at,9d010578 <b10>
9d010598:	00000000 	nop
9d01059c:	1000ffdc 	b	9d010510 <Clab1>
9d0105a0:	00aa2825 	or	a1,a1,t2

9d0105a4 <Cspec2>:
9d0105a4:	000542c0 	sll	t0,a1,0xb
9d0105a8:	00046542 	srl	t4,a0,0x15
9d0105ac:	010c4025 	or	t0,t0,t4
9d0105b0:	00043ac0 	sll	a3,a0,0xb
9d0105b4:	3c018000 	lui	at,0x8000
9d0105b8:	01014025 	or	t0,t0,at
9d0105bc:	3c018000 	lui	at,0x8000
9d0105c0:	19200005 	blez	t1,9d0105d8 <i11>
9d0105c4:	00a12824 	and	a1,a1,at
9d0105c8:	3c017ff0 	lui	at,0x7ff0
9d0105cc:	00a12825 	or	a1,a1,at
9d0105d0:	1000ffd9 	b	9d010538 <Cret>
9d0105d4:	24040000 	li	a0,0

9d0105d8 <i11>:
9d0105d8:	240a0001 	li	t2,1
9d0105dc:	01495023 	subu	t2,t2,t1

9d0105e0 <L13>:
9d0105e0:	2d410020 	sltiu	at,t2,32
9d0105e4:	14200007 	bnez	at,9d010604 <L14>
9d0105e8:	00000000 	nop
9d0105ec:	214affe0 	addi	t2,t2,-32
9d0105f0:	0007202b 	sltu	a0,zero,a3
9d0105f4:	1008000d 	beq	zero,t0,9d01062c <L15>
9d0105f8:	01043825 	or	a3,t0,a0
9d0105fc:	1000fff8 	b	9d0105e0 <L13>
9d010600:	34080000 	li	t0,0x0

9d010604 <L14>:
9d010604:	11400009 	beqz	t2,9d01062c <L15>
9d010608:	00000000 	nop
9d01060c:	000a5822 	neg	t3,t2
9d010610:	01672004 	sllv	a0,a3,t3
9d010614:	01685804 	sllv	t3,t0,t3
9d010618:	01473806 	srlv	a3,a3,t2
9d01061c:	01484006 	srlv	t0,t0,t2
9d010620:	10800002 	beqz	a0,9d01062c <L15>
9d010624:	01673825 	or	a3,t3,a3
9d010628:	34e70002 	ori	a3,a3,0x2

9d01062c <L15>:
9d01062c:	24e70400 	addiu	a3,a3,1024
9d010630:	2cec0400 	sltiu	t4,a3,1024
9d010634:	010c4021 	addu	t0,t0,t4
9d010638:	000762c2 	srl	t4,a3,0xb
9d01063c:	318c0001 	andi	t4,t4,0x1
9d010640:	00ec3823 	subu	a3,a3,t4
9d010644:	000722c2 	srl	a0,a3,0xb
9d010648:	00086540 	sll	t4,t0,0x15
9d01064c:	008c2025 	or	a0,a0,t4
9d010650:	00086040 	sll	t4,t0,0x1
9d010654:	000c6302 	srl	t4,t4,0xc
9d010658:	1000ffb7 	b	9d010538 <Cret>
9d01065c:	00ac2825 	or	a1,a1,t4
9d010660:	00000000 	nop

Disassembly of section .text:

9d010664 <writeINA219>:
  float ma = value / 3.0;
  return ma;
}

// write 2 bytes
void writeINA219(unsigned char reg, unsigned short value){
9d010664:	27bdffe0 	addiu	sp,sp,-32
9d010668:	afbf001c 	sw	ra,28(sp)
9d01066c:	afb10018 	sw	s1,24(sp)
9d010670:	afb00014 	sw	s0,20(sp)
9d010674:	00808825 	move	s1,a0
  i2c_master_start();
9d010678:	0f40408e 	jal	9d010238 <i2c_master_start>
9d01067c:	00a08025 	move	s0,a1
  i2c_master_send(INA219_ADDR<<1); // write to the INA219
9d010680:	0f4040a6 	jal	9d010298 <i2c_master_send>
9d010684:	24040080 	li	a0,128
  i2c_master_send(reg); // the reg to write to
9d010688:	0f4040a6 	jal	9d010298 <i2c_master_send>
9d01068c:	02202025 	move	a0,s1
  i2c_master_send(value>>8);
9d010690:	0f4040a6 	jal	9d010298 <i2c_master_send>
9d010694:	00102202 	srl	a0,s0,0x8
  i2c_master_send(value&0xff);
9d010698:	0f4040a6 	jal	9d010298 <i2c_master_send>
9d01069c:	320400ff 	andi	a0,s0,0xff
  i2c_master_stop();
9d0106a0:	0f4040d6 	jal	9d010358 <i2c_master_stop>
9d0106a4:	00000000 	nop
}
9d0106a8:	8fbf001c 	lw	ra,28(sp)
9d0106ac:	8fb10018 	lw	s1,24(sp)
9d0106b0:	8fb00014 	lw	s0,20(sp)
9d0106b4:	03e00008 	jr	ra
9d0106b8:	27bd0020 	addiu	sp,sp,32

9d0106bc <INA219_Startup>:
void INA219_Startup() {
9d0106bc:	27bdffe8 	addiu	sp,sp,-24
9d0106c0:	afbf0014 	sw	ra,20(sp)
  __builtin_disable_interrupts();
9d0106c4:	41626000 	di	v0
9d0106c8:	000000c0 	ehb
  i2c_master_setup();
9d0106cc:	0f404084 	jal	9d010210 <i2c_master_setup>
9d0106d0:	00000000 	nop
  writeINA219(INA219_REG_CALIBRATION, ina219_calValue);
9d0106d4:	24050400 	li	a1,1024
9d0106d8:	0f404199 	jal	9d010664 <writeINA219>
9d0106dc:	24040005 	li	a0,5
  writeINA219(INA219_REG_CONFIG, ina219_config);
9d0106e0:	2405308f 	li	a1,12431
9d0106e4:	0f404199 	jal	9d010664 <writeINA219>
9d0106e8:	00002025 	move	a0,zero
  __builtin_enable_interrupts();
9d0106ec:	41626020 	ei	v0
}
9d0106f0:	8fbf0014 	lw	ra,20(sp)
9d0106f4:	03e00008 	jr	ra
9d0106f8:	27bd0018 	addiu	sp,sp,24

9d0106fc <readINA219>:

// read 2 bytes
signed short readINA219(unsigned char reg){
9d0106fc:	27bdffe0 	addiu	sp,sp,-32
9d010700:	afbf001c 	sw	ra,28(sp)
9d010704:	afb10018 	sw	s1,24(sp)
9d010708:	afb00014 	sw	s0,20(sp)
  i2c_master_start();
9d01070c:	0f40408e 	jal	9d010238 <i2c_master_start>
9d010710:	00808025 	move	s0,a0
  i2c_master_send(INA219_ADDR<<1); // write to the INA219
9d010714:	0f4040a6 	jal	9d010298 <i2c_master_send>
9d010718:	24040080 	li	a0,128
  i2c_master_send(reg); // the reg to read from
9d01071c:	0f4040a6 	jal	9d010298 <i2c_master_send>
9d010720:	02002025 	move	a0,s0
  i2c_master_restart();
9d010724:	0f40409a 	jal	9d010268 <i2c_master_restart>
9d010728:	00000000 	nop
  i2c_master_send((INA219_ADDR<<1)|0b1); // read from the INA219
9d01072c:	0f4040a6 	jal	9d010298 <i2c_master_send>
9d010730:	24040081 	li	a0,129
  unsigned char r1 = i2c_master_recv();
9d010734:	0f4040ba 	jal	9d0102e8 <i2c_master_recv>
9d010738:	00000000 	nop
9d01073c:	00408025 	move	s0,v0
  i2c_master_ack(0); // read again
9d010740:	0f4040c7 	jal	9d01031c <i2c_master_ack>
9d010744:	00002025 	move	a0,zero
  unsigned char r2 = i2c_master_recv();
9d010748:	0f4040ba 	jal	9d0102e8 <i2c_master_recv>
9d01074c:	00000000 	nop
9d010750:	00408825 	move	s1,v0
  i2c_master_ack(1); // no more reads
9d010754:	0f4040c7 	jal	9d01031c <i2c_master_ack>
9d010758:	24040001 	li	a0,1
  i2c_master_stop();
9d01075c:	0f4040d6 	jal	9d010358 <i2c_master_stop>
9d010760:	00000000 	nop

  signed short value = (r1<<8)|r2;
9d010764:	00101200 	sll	v0,s0,0x8
9d010768:	00511025 	or	v0,v0,s1
  return value;
}
9d01076c:	7c021620 	seh	v0,v0
9d010770:	8fbf001c 	lw	ra,28(sp)
9d010774:	8fb10018 	lw	s1,24(sp)
9d010778:	8fb00014 	lw	s0,20(sp)
9d01077c:	03e00008 	jr	ra
9d010780:	27bd0020 	addiu	sp,sp,32

9d010784 <INA219_read_current>:
float INA219_read_current(){
9d010784:	27bdffe8 	addiu	sp,sp,-24
9d010788:	afbf0014 	sw	ra,20(sp)
  signed short value = readINA219(INA219_REG_CURRENT);
9d01078c:	0f4041bf 	jal	9d0106fc <readINA219>
9d010790:	24040004 	li	a0,4
  float ma = value / 3.0;
9d010794:	0f404cf9 	jal	9d0133e4 <__floatsidf>
9d010798:	00402025 	move	a0,v0
9d01079c:	3c049d00 	lui	a0,0x9d00
9d0107a0:	8c8674d0 	lw	a2,29904(a0)
9d0107a4:	8c8774d4 	lw	a3,29908(a0)
9d0107a8:	00402025 	move	a0,v0
9d0107ac:	0f403064 	jal	9d00c190 <__divdf3>
9d0107b0:	00602825 	move	a1,v1
9d0107b4:	00402025 	move	a0,v0
9d0107b8:	0f4046c2 	jal	9d011b08 <__truncdfsf2>
9d0107bc:	00602825 	move	a1,v1
}
9d0107c0:	8fbf0014 	lw	ra,20(sp)
9d0107c4:	03e00008 	jr	ra
9d0107c8:	27bd0018 	addiu	sp,sp,24

9d0107cc <get_mode>:

volatile struct cont_dat cont;

// mode set/get
volatile enum mode_t get_mode(void){
	return mode;
9d0107cc:	8f82805c 	lw	v0,-32676(gp)
}
9d0107d0:	03e00008 	jr	ra
9d0107d4:	00000000 	nop

9d0107d8 <set_mode>:
void set_mode(enum mode_t s){
	mode = s;
9d0107d8:	af84805c 	sw	a0,-32676(gp)
}
9d0107dc:	03e00008 	jr	ra
9d0107e0:	00000000 	nop

9d0107e4 <set_PWM>:

// PWM set/get
void set_PWM(int d){
	duty = d;
9d0107e4:	af848058 	sw	a0,-32680(gp)
}
9d0107e8:	03e00008 	jr	ra
9d0107ec:	00000000 	nop

9d0107f0 <set_dir>:
void set_dir(int d){
	dir = d;
9d0107f0:	af848054 	sw	a0,-32684(gp)
}
9d0107f4:	03e00008 	jr	ra
9d0107f8:	00000000 	nop

9d0107fc <get_dir>:
int get_dir(){
	return dir;
9d0107fc:	8f828054 	lw	v0,-32684(gp)
}
9d010800:	03e00008 	jr	ra
9d010804:	00000000 	nop

9d010808 <get_PWM>:
int get_PWM(){
	return duty;
9d010808:	8f828058 	lw	v0,-32680(gp)
}
9d01080c:	03e00008 	jr	ra
9d010810:	00000000 	nop

9d010814 <set_igains>:

// current gain set/get
void set_igains(float kp, float ki) {
	iKi = ki;
9d010814:	af858050 	sw	a1,-32688(gp)
	iKp = kp;
9d010818:	af84804c 	sw	a0,-32692(gp)
}
9d01081c:	03e00008 	jr	ra
9d010820:	00000000 	nop

9d010824 <get_igain_ki>:
float get_igain_ki(){
	return iKi;
9d010824:	8f828050 	lw	v0,-32688(gp)
}
9d010828:	03e00008 	jr	ra
9d01082c:	00000000 	nop

9d010830 <get_igain_kp>:
float get_igain_kp(){
	return iKp;
9d010830:	8f82804c 	lw	v0,-32692(gp)
}
9d010834:	03e00008 	jr	ra
9d010838:	00000000 	nop

9d01083c <set_ieint>:

// current e_integral
void set_ieint(int d){
	ieint = d;
9d01083c:	af848048 	sw	a0,-32696(gp)
}
9d010840:	03e00008 	jr	ra
9d010844:	00000000 	nop

9d010848 <get_ieint>:
int get_ieint(){
	return ieint;
9d010848:	8f828048 	lw	v0,-32696(gp)
}
9d01084c:	03e00008 	jr	ra
9d010850:	00000000 	nop

9d010854 <set_pgains>:

// position gain set/get
void set_pgains(float kp, float ki,float kd ) {
	pKi = ki;
9d010854:	af858044 	sw	a1,-32700(gp)
	pKp = kp;
9d010858:	af848040 	sw	a0,-32704(gp)
	pKd = kd;
9d01085c:	af86803c 	sw	a2,-32708(gp)
}
9d010860:	03e00008 	jr	ra
9d010864:	00000000 	nop

9d010868 <get_pgain_ki>:
float get_pgain_ki(){
	return pKi;
9d010868:	8f828044 	lw	v0,-32700(gp)
}
9d01086c:	03e00008 	jr	ra
9d010870:	00000000 	nop

9d010874 <get_pgain_kp>:
float get_pgain_kp(){
	return pKp;
9d010874:	8f828040 	lw	v0,-32704(gp)
}
9d010878:	03e00008 	jr	ra
9d01087c:	00000000 	nop

9d010880 <get_pgain_kd>:
float get_pgain_kd(){
	return pKd;
9d010880:	8f82803c 	lw	v0,-32708(gp)
}
9d010884:	03e00008 	jr	ra
9d010888:	00000000 	nop

9d01088c <get_cont>:

volatile struct cont_dat get_cont(){
9d01088c:	00801025 	move	v0,a0
	return cont;
9d010890:	3c03a000 	lui	v1,0xa000
9d010894:	246300b4 	addiu	v1,v1,180
9d010898:	00802825 	move	a1,a0
9d01089c:	24640c80 	addiu	a0,v1,3200
9d0108a0:	8c690000 	lw	t1,0(v1)
9d0108a4:	8c680004 	lw	t0,4(v1)
9d0108a8:	8c670008 	lw	a3,8(v1)
9d0108ac:	8c66000c 	lw	a2,12(v1)
9d0108b0:	aca90000 	sw	t1,0(a1)
9d0108b4:	aca80004 	sw	t0,4(a1)
9d0108b8:	aca70008 	sw	a3,8(a1)
9d0108bc:	aca6000c 	sw	a2,12(a1)
9d0108c0:	24630010 	addiu	v1,v1,16
9d0108c4:	1464fff6 	bne	v1,a0,9d0108a0 <get_cont+0x14>
9d0108c8:	24a50010 	addiu	a1,a1,16
}
9d0108cc:	03e00008 	jr	ra
9d0108d0:	00000000 	nop

9d0108d4 <set_iADC>:
void set_iADC(float s, int i){
	cont.iADC[i] =  s;
9d0108d4:	24a500c8 	addiu	a1,a1,200
9d0108d8:	00052880 	sll	a1,a1,0x2
9d0108dc:	3c02a000 	lui	v0,0xa000
9d0108e0:	244200b4 	addiu	v0,v0,180
9d0108e4:	00a22821 	addu	a1,a1,v0
9d0108e8:	aca40000 	sw	a0,0(a1)
}
9d0108ec:	03e00008 	jr	ra
9d0108f0:	00000000 	nop

9d0108f4 <set_iREF>:
void set_iREF(float s, int i){
	cont.iREF[i] =  s;
9d0108f4:	00052880 	sll	a1,a1,0x2
9d0108f8:	3c02a000 	lui	v0,0xa000
9d0108fc:	244200b4 	addiu	v0,v0,180
9d010900:	00a22821 	addu	a1,a1,v0
9d010904:	aca40000 	sw	a0,0(a1)
}
9d010908:	03e00008 	jr	ra
9d01090c:	00000000 	nop

9d010910 <set_stor>:

void set_stor(int i){
	StoringData = i;
9d010910:	af848014 	sw	a0,-32748(gp)
}
9d010914:	03e00008 	jr	ra
9d010918:	00000000 	nop

9d01091c <get_stor>:
int get_stor(){
	return StoringData;
9d01091c:	8f828014 	lw	v0,-32748(gp)
9d010920:	03e00008 	jr	ra
9d010924:	00000000 	nop

Disassembly of section .text.__scan_s:

9d010928 <__scan_s>:
9d010928:	27bdffc8 	addiu	sp,sp,-56
9d01092c:	afb50028 	sw	s5,40(sp)
9d010930:	afb30020 	sw	s3,32(sp)
9d010934:	afb2001c 	sw	s2,28(sp)
9d010938:	afb10018 	sw	s1,24(sp)
9d01093c:	afb00014 	sw	s0,20(sp)
9d010940:	afbf0034 	sw	ra,52(sp)
9d010944:	afb70030 	sw	s7,48(sp)
9d010948:	afb6002c 	sw	s6,44(sp)
9d01094c:	afb40024 	sw	s4,36(sp)
9d010950:	0080a825 	move	s5,a0
9d010954:	00a08025 	move	s0,a1
9d010958:	00c09825 	move	s3,a2
9d01095c:	00e09025 	move	s2,a3
9d010960:	10c00006 	beqz	a2,9d01097c <__scan_s+0x54>
9d010964:	8fb10048 	lw	s1,72(sp)
9d010968:	0f404909 	jal	9d012424 <__skipws>
9d01096c:	00000000 	nop
9d010970:	8e430000 	lw	v1,0(s2)
9d010974:	00621021 	addu	v0,v1,v0
9d010978:	ae420000 	sw	v0,0(s2)
9d01097c:	8e140008 	lw	s4,8(s0)
9d010980:	2416ffff 	li	s6,-1
9d010984:	00008025 	move	s0,zero
9d010988:	24170020 	li	s7,32
9d01098c:	12800003 	beqz	s4,9d01099c <__scan_s+0x74>
9d010990:	0214102a 	slt	v0,s0,s4
9d010994:	1040001f 	beqz	v0,9d010a14 <__scan_s+0xec>
9d010998:	00000000 	nop
9d01099c:	8ea2003c 	lw	v0,60(s5)
9d0109a0:	8ea3004c 	lw	v1,76(s5)
9d0109a4:	0043182b 	sltu	v1,v0,v1
9d0109a8:	10600014 	beqz	v1,9d0109fc <__scan_s+0xd4>
9d0109ac:	24430001 	addiu	v1,v0,1
9d0109b0:	aea3003c 	sw	v1,60(s5)
9d0109b4:	90420000 	lbu	v0,0(v0)
9d0109b8:	12600024 	beqz	s3,9d010a4c <__scan_s+0x124>
9d0109bc:	00000000 	nop
9d0109c0:	10570004 	beq	v0,s7,9d0109d4 <__scan_s+0xac>
9d0109c4:	2443fff7 	addiu	v1,v0,-9
9d0109c8:	2c630005 	sltiu	v1,v1,5
9d0109cc:	1060001f 	beqz	v1,9d010a4c <__scan_s+0x124>
9d0109d0:	00000000 	nop
9d0109d4:	8ea2004c 	lw	v0,76(s5)
9d0109d8:	10400004 	beqz	v0,9d0109ec <__scan_s+0xc4>
9d0109dc:	00000000 	nop
9d0109e0:	8ea2003c 	lw	v0,60(s5)
9d0109e4:	2442ffff 	addiu	v0,v0,-1
9d0109e8:	aea2003c 	sw	v0,60(s5)
9d0109ec:	16200021 	bnez	s1,9d010a74 <__scan_s+0x14c>
9d0109f0:	0010102b 	sltu	v0,zero,s0
9d0109f4:	1000000b 	b	9d010a24 <__scan_s+0xfc>
9d0109f8:	8fbf0034 	lw	ra,52(sp)
9d0109fc:	0f4048dc 	jal	9d012370 <__shgetc>
9d010a00:	02a02025 	move	a0,s5
9d010a04:	1456ffec 	bne	v0,s6,9d0109b8 <__scan_s+0x90>
9d010a08:	00000000 	nop
9d010a0c:	12000005 	beqz	s0,9d010a24 <__scan_s+0xfc>
9d010a10:	8fbf0034 	lw	ra,52(sp)
9d010a14:	16200015 	bnez	s1,9d010a6c <__scan_s+0x144>
9d010a18:	00000000 	nop
9d010a1c:	0010102b 	sltu	v0,zero,s0
9d010a20:	8fbf0034 	lw	ra,52(sp)
9d010a24:	8fb70030 	lw	s7,48(sp)
9d010a28:	8fb6002c 	lw	s6,44(sp)
9d010a2c:	8fb50028 	lw	s5,40(sp)
9d010a30:	8fb40024 	lw	s4,36(sp)
9d010a34:	8fb30020 	lw	s3,32(sp)
9d010a38:	8fb2001c 	lw	s2,28(sp)
9d010a3c:	8fb10018 	lw	s1,24(sp)
9d010a40:	8fb00014 	lw	s0,20(sp)
9d010a44:	03e00008 	jr	ra
9d010a48:	27bd0038 	addiu	sp,sp,56
9d010a4c:	12200002 	beqz	s1,9d010a58 <__scan_s+0x130>
9d010a50:	02301821 	addu	v1,s1,s0
9d010a54:	a0620000 	sb	v0,0(v1)
9d010a58:	8e420000 	lw	v0,0(s2)
9d010a5c:	26100001 	addiu	s0,s0,1
9d010a60:	24420001 	addiu	v0,v0,1
9d010a64:	1000ffc9 	b	9d01098c <__scan_s+0x64>
9d010a68:	ae420000 	sw	v0,0(s2)
9d010a6c:	1260ffec 	beqz	s3,9d010a20 <__scan_s+0xf8>
9d010a70:	0010102b 	sltu	v0,zero,s0
9d010a74:	02308821 	addu	s1,s1,s0
9d010a78:	1000ffe8 	b	9d010a1c <__scan_s+0xf4>
9d010a7c:	a2200000 	sb	zero,0(s1)

Disassembly of section .text.__scan_o:

9d010a80 <__scan_o>:
9d010a80:	27bdffc0 	addiu	sp,sp,-64
9d010a84:	afb60034 	sw	s6,52(sp)
9d010a88:	8cd60008 	lw	s6,8(a2)
9d010a8c:	afb50030 	sw	s5,48(sp)
9d010a90:	afb4002c 	sw	s4,44(sp)
9d010a94:	afb30028 	sw	s3,40(sp)
9d010a98:	afb20024 	sw	s2,36(sp)
9d010a9c:	afb10020 	sw	s1,32(sp)
9d010aa0:	afbf003c 	sw	ra,60(sp)
9d010aa4:	afb70038 	sw	s7,56(sp)
9d010aa8:	afb0001c 	sw	s0,28(sp)
9d010aac:	00808825 	move	s1,a0
9d010ab0:	00a0a825 	move	s5,a1
9d010ab4:	00e0a025 	move	s4,a3
9d010ab8:	8cd30010 	lw	s3,16(a2)
9d010abc:	0f404909 	jal	9d012424 <__skipws>
9d010ac0:	8cd2000c 	lw	s2,12(a2)
9d010ac4:	52c00001 	beqzl	s6,9d010acc <__scan_o+0x4c>
9d010ac8:	2676ffff 	addiu	s6,s3,-1
9d010acc:	8e830000 	lw	v1,0(s4)
9d010ad0:	00008025 	move	s0,zero
9d010ad4:	2673ffff 	addiu	s3,s3,-1
9d010ad8:	00621821 	addu	v1,v1,v0
9d010adc:	ae830000 	sw	v1,0(s4)
9d010ae0:	2417ffff 	li	s7,-1
9d010ae4:	0216102a 	slt	v0,s0,s6
9d010ae8:	1040001b 	beqz	v0,9d010b58 <__scan_o+0xd8>
9d010aec:	0213102a 	slt	v0,s0,s3
9d010af0:	5040001a 	beqzl	v0,9d010b5c <__scan_o+0xdc>
9d010af4:	02508021 	addu	s0,s2,s0
9d010af8:	8e22003c 	lw	v0,60(s1)
9d010afc:	8e23004c 	lw	v1,76(s1)
9d010b00:	0043182b 	sltu	v1,v0,v1
9d010b04:	1060000e 	beqz	v1,9d010b40 <__scan_o+0xc0>
9d010b08:	24430001 	addiu	v1,v0,1
9d010b0c:	ae23003c 	sw	v1,60(s1)
9d010b10:	90420000 	lbu	v0,0(v0)
9d010b14:	2443ffd0 	addiu	v1,v0,-48
9d010b18:	2c630008 	sltiu	v1,v1,8
9d010b1c:	14600027 	bnez	v1,9d010bbc <__scan_o+0x13c>
9d010b20:	02501821 	addu	v1,s2,s0
9d010b24:	8e22004c 	lw	v0,76(s1)
9d010b28:	5040000c 	beqzl	v0,9d010b5c <__scan_o+0xdc>
9d010b2c:	02508021 	addu	s0,s2,s0
9d010b30:	8e22003c 	lw	v0,60(s1)
9d010b34:	2442ffff 	addiu	v0,v0,-1
9d010b38:	10000007 	b	9d010b58 <__scan_o+0xd8>
9d010b3c:	ae22003c 	sw	v0,60(s1)
9d010b40:	0f4048dc 	jal	9d012370 <__shgetc>
9d010b44:	02202025 	move	a0,s1
9d010b48:	1457fff3 	bne	v0,s7,9d010b18 <__scan_o+0x98>
9d010b4c:	2443ffd0 	addiu	v1,v0,-48
9d010b50:	12000010 	beqz	s0,9d010b94 <__scan_o+0x114>
9d010b54:	8fbf003c 	lw	ra,60(sp)
9d010b58:	02508021 	addu	s0,s2,s0
9d010b5c:	02402025 	move	a0,s2
9d010b60:	a2000000 	sb	zero,0(s0)
9d010b64:	24060008 	li	a2,8
9d010b68:	0f4050d4 	jal	9d014350 <strtoull>
9d010b6c:	27a50010 	addiu	a1,sp,16
9d010b70:	aea20000 	sw	v0,0(s5)
9d010b74:	8fa20010 	lw	v0,16(sp)
9d010b78:	aea30004 	sw	v1,4(s5)
9d010b7c:	2404fffe 	li	a0,-2
9d010b80:	00521026 	xor	v0,v0,s2
9d010b84:	24030001 	li	v1,1
9d010b88:	0082180a 	movz	v1,a0,v0
9d010b8c:	00601025 	move	v0,v1
9d010b90:	8fbf003c 	lw	ra,60(sp)
9d010b94:	8fb70038 	lw	s7,56(sp)
9d010b98:	8fb60034 	lw	s6,52(sp)
9d010b9c:	8fb50030 	lw	s5,48(sp)
9d010ba0:	8fb4002c 	lw	s4,44(sp)
9d010ba4:	8fb30028 	lw	s3,40(sp)
9d010ba8:	8fb20024 	lw	s2,36(sp)
9d010bac:	8fb10020 	lw	s1,32(sp)
9d010bb0:	8fb0001c 	lw	s0,28(sp)
9d010bb4:	03e00008 	jr	ra
9d010bb8:	27bd0040 	addiu	sp,sp,64
9d010bbc:	a0620000 	sb	v0,0(v1)
9d010bc0:	8e820000 	lw	v0,0(s4)
9d010bc4:	26100001 	addiu	s0,s0,1
9d010bc8:	24420001 	addiu	v0,v0,1
9d010bcc:	1000ffc5 	b	9d010ae4 <__scan_o+0x64>
9d010bd0:	ae820000 	sw	v0,0(s4)

Disassembly of section .text._sbrk_init:

9d010bd4 <_sbrk_init>:
9d010bd4:	27bdffd8 	addiu	sp,sp,-40
9d010bd8:	afb40020 	sw	s4,32(sp)
9d010bdc:	3c14a000 	lui	s4,0xa000
9d010be0:	8e821070 	lw	v0,4208(s4)
9d010be4:	afbf0024 	sw	ra,36(sp)
9d010be8:	afb3001c 	sw	s3,28(sp)
9d010bec:	afb20018 	sw	s2,24(sp)
9d010bf0:	afb10014 	sw	s1,20(sp)
9d010bf4:	1440003a 	bnez	v0,9d010ce0 <_sbrk_init+0x10c>
9d010bf8:	afb00010 	sw	s0,16(sp)
9d010bfc:	3c12a000 	lui	s2,0xa000
9d010c00:	8e511078 	lw	s1,4216(s2)
9d010c04:	16200003 	bnez	s1,9d010c14 <_sbrk_init+0x40>
9d010c08:	3c13a000 	lui	s3,0xa000
9d010c0c:	3c11a000 	lui	s1,0xa000
9d010c10:	26311088 	addiu	s1,s1,4232
9d010c14:	8e701074 	lw	s0,4212(s3)
9d010c18:	16000005 	bnez	s0,9d010c30 <_sbrk_init+0x5c>
9d010c1c:	3c020000 	lui	v0,0x0
9d010c20:	3c10a000 	lui	s0,0xa000
9d010c24:	26101088 	addiu	s0,s0,4232
9d010c28:	24420000 	addiu	v0,v0,0
9d010c2c:	02028021 	addu	s0,s0,v0
9d010c30:	00111f82 	srl	v1,s1,0x1e
9d010c34:	24020002 	li	v0,2
9d010c38:	50620001 	beql	v1,v0,9d010c40 <_sbrk_init+0x6c>
9d010c3c:	7e31e000 	ext	s1,s1,0x0,0x1d
9d010c40:	00101f82 	srl	v1,s0,0x1e
9d010c44:	24020002 	li	v0,2
9d010c48:	50620001 	beql	v1,v0,9d010c50 <_sbrk_init+0x7c>
9d010c4c:	7e10e000 	ext	s0,s0,0x0,0x1d
9d010c50:	0f405142 	jal	9d014508 <_stub_sbd_memlayout>
9d010c54:	00000000 	nop
9d010c58:	8c430000 	lw	v1,0(v0)
9d010c5c:	8c420004 	lw	v0,4(v0)
9d010c60:	0223202b 	sltu	a0,s1,v1
9d010c64:	14800004 	bnez	a0,9d010c78 <_sbrk_init+0xa4>
9d010c68:	00621021 	addu	v0,v1,v0
9d010c6c:	0222202b 	sltu	a0,s1,v0
9d010c70:	54800029 	bnezl	a0,9d010d18 <_sbrk_init+0x144>
9d010c74:	0211182b 	sltu	v1,s0,s1
9d010c78:	3c04a000 	lui	a0,0xa000
9d010c7c:	24840d34 	addiu	a0,a0,3380
9d010c80:	7c84e000 	ext	a0,a0,0x0,0x1d
9d010c84:	0064202b 	sltu	a0,v1,a0
9d010c88:	14800015 	bnez	a0,9d010ce0 <_sbrk_init+0x10c>
9d010c8c:	0203202b 	sltu	a0,s0,v1
9d010c90:	14800004 	bnez	a0,9d010ca4 <_sbrk_init+0xd0>
9d010c94:	0062202b 	sltu	a0,v1,v0
9d010c98:	0202202b 	sltu	a0,s0,v0
9d010c9c:	14800018 	bnez	a0,9d010d00 <_sbrk_init+0x12c>
9d010ca0:	0062202b 	sltu	a0,v1,v0
9d010ca4:	1080000f 	beqz	a0,9d010ce4 <_sbrk_init+0x110>
9d010ca8:	8fbf0024 	lw	ra,36(sp)
9d010cac:	3c04a000 	lui	a0,0xa000
9d010cb0:	24840d34 	addiu	a0,a0,3380
9d010cb4:	00042742 	srl	a0,a0,0x1d
9d010cb8:	24050005 	li	a1,5
9d010cbc:	14850012 	bne	a0,a1,9d010d08 <_sbrk_init+0x134>
9d010cc0:	24050004 	li	a1,4
9d010cc4:	3c04a000 	lui	a0,0xa000
9d010cc8:	00641825 	or	v1,v1,a0
9d010ccc:	00441025 	or	v0,v0,a0
9d010cd0:	ae431078 	sw	v1,4216(s2)
9d010cd4:	ae621074 	sw	v0,4212(s3)
9d010cd8:	8e421078 	lw	v0,4216(s2)
9d010cdc:	ae821070 	sw	v0,4208(s4)
9d010ce0:	8fbf0024 	lw	ra,36(sp)
9d010ce4:	8fb40020 	lw	s4,32(sp)
9d010ce8:	8fb3001c 	lw	s3,28(sp)
9d010cec:	8fb20018 	lw	s2,24(sp)
9d010cf0:	8fb10014 	lw	s1,20(sp)
9d010cf4:	8fb00010 	lw	s0,16(sp)
9d010cf8:	03e00008 	jr	ra
9d010cfc:	27bd0028 	addiu	sp,sp,40
9d010d00:	1000ffea 	b	9d010cac <_sbrk_init+0xd8>
9d010d04:	02001025 	move	v0,s0
9d010d08:	1085ffef 	beq	a0,a1,9d010cc8 <_sbrk_init+0xf4>
9d010d0c:	3c048000 	lui	a0,0x8000
9d010d10:	1000fff1 	b	9d010cd8 <_sbrk_init+0x104>
9d010d14:	ae421078 	sw	v0,4216(s2)
9d010d18:	1460ffe4 	bnez	v1,9d010cac <_sbrk_init+0xd8>
9d010d1c:	02201825 	move	v1,s1
9d010d20:	1000ffde 	b	9d010c9c <_sbrk_init+0xc8>
9d010d24:	0202202b 	sltu	a0,s0,v0

Disassembly of section .text.__fmt_d:

9d010d28 <__fmt_d>:
9d010d28:	27bdffc0 	addiu	sp,sp,-64
9d010d2c:	afb1002c 	sw	s1,44(sp)
9d010d30:	00808825 	move	s1,a0
9d010d34:	00c02025 	move	a0,a2
9d010d38:	8c870004 	lw	a3,4(a0)
9d010d3c:	8ca20000 	lw	v0,0(a1)
9d010d40:	afb40038 	sw	s4,56(sp)
9d010d44:	0007a7c2 	srl	s4,a3,0x1f
9d010d48:	afb30034 	sw	s3,52(sp)
9d010d4c:	afb20030 	sw	s2,48(sp)
9d010d50:	afb00028 	sw	s0,40(sp)
9d010d54:	afbf003c 	sw	ra,60(sp)
9d010d58:	00a08025 	move	s0,a1
9d010d5c:	8ca30004 	lw	v1,4(a1)
9d010d60:	8cb20008 	lw	s2,8(a1)
9d010d64:	afa20020 	sw	v0,32(sp)
9d010d68:	8cb3000c 	lw	s3,12(a1)
9d010d6c:	1280003e 	beqz	s4,9d010e68 <__fmt_d+0x140>
9d010d70:	8cc60000 	lw	a2,0(a2)
9d010d74:	00063023 	negu	a2,a2
9d010d78:	0006202b 	sltu	a0,zero,a2
9d010d7c:	00073823 	negu	a3,a3
9d010d80:	04600008 	bltz	v1,9d010da4 <__fmt_d+0x7c>
9d010d84:	00e43823 	subu	a3,a3,a0
9d010d88:	7c020844 	ins	v0,zero,0x1,0x1
9d010d8c:	16800005 	bnez	s4,9d010da4 <__fmt_d+0x7c>
9d010d90:	afa20020 	sw	v0,32(sp)
9d010d94:	8fa20020 	lw	v0,32(sp)
9d010d98:	30430004 	andi	v1,v0,0x4
9d010d9c:	1060002a 	beqz	v1,9d010e48 <__fmt_d+0x120>
9d010da0:	7c4200c0 	ext	v0,v0,0x3,0x1
9d010da4:	2642ffff 	addiu	v0,s2,-1
9d010da8:	27a30020 	addiu	v1,sp,32
9d010dac:	afa30018 	sw	v1,24(sp)
9d010db0:	2403000a 	li	v1,10
9d010db4:	afa30014 	sw	v1,20(sp)
9d010db8:	afa20010 	sw	v0,16(sp)
9d010dbc:	0f4043f2 	jal	9d010fc8 <__cvt_u>
9d010dc0:	02002025 	move	a0,s0
9d010dc4:	16800006 	bnez	s4,9d010de0 <__fmt_d+0xb8>
9d010dc8:	2403002d 	li	v1,45
9d010dcc:	8fa30020 	lw	v1,32(sp)
9d010dd0:	30640004 	andi	a0,v1,0x4
9d010dd4:	1080001e 	beqz	a0,9d010e50 <__fmt_d+0x128>
9d010dd8:	30630008 	andi	v1,v1,0x8
9d010ddc:	2403002b 	li	v1,43
9d010de0:	2442ffff 	addiu	v0,v0,-1
9d010de4:	02622021 	addu	a0,s3,v0
9d010de8:	a0830000 	sb	v1,0(a0)
9d010dec:	8e060010 	lw	a2,16(s0)
9d010df0:	8fa30020 	lw	v1,32(sp)
9d010df4:	02403825 	move	a3,s2
9d010df8:	24c6ffff 	addiu	a2,a2,-1
9d010dfc:	afa30010 	sw	v1,16(sp)
9d010e00:	00c23023 	subu	a2,a2,v0
9d010e04:	02622821 	addu	a1,s3,v0
9d010e08:	0f404682 	jal	9d011a08 <__pad>
9d010e0c:	02202025 	move	a0,s1
9d010e10:	8e230004 	lw	v1,4(s1)
9d010e14:	30630100 	andi	v1,v1,0x100
9d010e18:	10600004 	beqz	v1,9d010e2c <__fmt_d+0x104>
9d010e1c:	8fbf003c 	lw	ra,60(sp)
9d010e20:	8e030004 	lw	v1,4(s0)
9d010e24:	0043202a 	slt	a0,v0,v1
9d010e28:	0064100b 	movn	v0,v1,a0
9d010e2c:	8fb40038 	lw	s4,56(sp)
9d010e30:	8fb30034 	lw	s3,52(sp)
9d010e34:	8fb20030 	lw	s2,48(sp)
9d010e38:	8fb1002c 	lw	s1,44(sp)
9d010e3c:	8fb00028 	lw	s0,40(sp)
9d010e40:	03e00008 	jr	ra
9d010e44:	27bd0040 	addiu	sp,sp,64
9d010e48:	1000ffd7 	b	9d010da8 <__fmt_d+0x80>
9d010e4c:	02421023 	subu	v0,s2,v0
9d010e50:	1060ffe6 	beqz	v1,9d010dec <__fmt_d+0xc4>
9d010e54:	24040020 	li	a0,32
9d010e58:	2442ffff 	addiu	v0,v0,-1
9d010e5c:	02621821 	addu	v1,s3,v0
9d010e60:	1000ffe2 	b	9d010dec <__fmt_d+0xc4>
9d010e64:	a0640000 	sb	a0,0(v1)
9d010e68:	0463ffc8 	bgezl	v1,9d010d8c <__fmt_d+0x64>
9d010e6c:	7c020844 	ins	v0,zero,0x1,0x1
9d010e70:	1000ffc9 	b	9d010d98 <__fmt_d+0x70>
9d010e74:	8fa20020 	lw	v0,32(sp)

Disassembly of section .text.__read_int:

9d010e78 <__read_int>:
9d010e78:	27bdffc8 	addiu	sp,sp,-56
9d010e7c:	afb50028 	sw	s5,40(sp)
9d010e80:	8cb50008 	lw	s5,8(a1)
9d010e84:	afb40024 	sw	s4,36(sp)
9d010e88:	afb30020 	sw	s3,32(sp)
9d010e8c:	afb2001c 	sw	s2,28(sp)
9d010e90:	afb10018 	sw	s1,24(sp)
9d010e94:	afbf0034 	sw	ra,52(sp)
9d010e98:	afb70030 	sw	s7,48(sp)
9d010e9c:	afb6002c 	sw	s6,44(sp)
9d010ea0:	afb00014 	sw	s0,20(sp)
9d010ea4:	00808825 	move	s1,a0
9d010ea8:	00c09025 	move	s2,a2
9d010eac:	8cb40010 	lw	s4,16(a1)
9d010eb0:	0f404909 	jal	9d012424 <__skipws>
9d010eb4:	8cb3000c 	lw	s3,12(a1)
9d010eb8:	52a00001 	beqzl	s5,9d010ec0 <__read_int+0x48>
9d010ebc:	2695ffff 	addiu	s5,s4,-1
9d010ec0:	8e430000 	lw	v1,0(s2)
9d010ec4:	00008025 	move	s0,zero
9d010ec8:	2694ffff 	addiu	s4,s4,-1
9d010ecc:	00621821 	addu	v1,v1,v0
9d010ed0:	ae430000 	sw	v1,0(s2)
9d010ed4:	2416ffff 	li	s6,-1
9d010ed8:	2417fffd 	li	s7,-3
9d010edc:	0215102a 	slt	v0,s0,s5
9d010ee0:	1040001b 	beqz	v0,9d010f50 <__read_int+0xd8>
9d010ee4:	0214102a 	slt	v0,s0,s4
9d010ee8:	5040001a 	beqzl	v0,9d010f54 <__read_int+0xdc>
9d010eec:	02708021 	addu	s0,s3,s0
9d010ef0:	8e22003c 	lw	v0,60(s1)
9d010ef4:	8e23004c 	lw	v1,76(s1)
9d010ef8:	0043182b 	sltu	v1,v0,v1
9d010efc:	1060000e 	beqz	v1,9d010f38 <__read_int+0xc0>
9d010f00:	24430001 	addiu	v1,v0,1
9d010f04:	ae23003c 	sw	v1,60(s1)
9d010f08:	90420000 	lbu	v0,0(v0)
9d010f0c:	2443ffd5 	addiu	v1,v0,-43
9d010f10:	00771824 	and	v1,v1,s7
9d010f14:	00701825 	or	v1,v1,s0
9d010f18:	1460001b 	bnez	v1,9d010f88 <__read_int+0x110>
9d010f1c:	2443ffd0 	addiu	v1,v0,-48
9d010f20:	a2620000 	sb	v0,0(s3)
9d010f24:	8e420000 	lw	v0,0(s2)
9d010f28:	24100001 	li	s0,1
9d010f2c:	24420001 	addiu	v0,v0,1
9d010f30:	1000ffea 	b	9d010edc <__read_int+0x64>
9d010f34:	ae420000 	sw	v0,0(s2)
9d010f38:	0f4048dc 	jal	9d012370 <__shgetc>
9d010f3c:	02202025 	move	a0,s1
9d010f40:	1456fff3 	bne	v0,s6,9d010f10 <__read_int+0x98>
9d010f44:	2443ffd5 	addiu	v1,v0,-43
9d010f48:	12000005 	beqz	s0,9d010f60 <__read_int+0xe8>
9d010f4c:	8fbf0034 	lw	ra,52(sp)
9d010f50:	02708021 	addu	s0,s3,s0
9d010f54:	a2000000 	sb	zero,0(s0)
9d010f58:	00001025 	move	v0,zero
9d010f5c:	8fbf0034 	lw	ra,52(sp)
9d010f60:	8fb70030 	lw	s7,48(sp)
9d010f64:	8fb6002c 	lw	s6,44(sp)
9d010f68:	8fb50028 	lw	s5,40(sp)
9d010f6c:	8fb40024 	lw	s4,36(sp)
9d010f70:	8fb30020 	lw	s3,32(sp)
9d010f74:	8fb2001c 	lw	s2,28(sp)
9d010f78:	8fb10018 	lw	s1,24(sp)
9d010f7c:	8fb00014 	lw	s0,20(sp)
9d010f80:	03e00008 	jr	ra
9d010f84:	27bd0038 	addiu	sp,sp,56
9d010f88:	2c63000a 	sltiu	v1,v1,10
9d010f8c:	54600008 	bnezl	v1,9d010fb0 <__read_int+0x138>
9d010f90:	02701821 	addu	v1,s3,s0
9d010f94:	8e22004c 	lw	v0,76(s1)
9d010f98:	5040ffee 	beqzl	v0,9d010f54 <__read_int+0xdc>
9d010f9c:	02708021 	addu	s0,s3,s0
9d010fa0:	8e22003c 	lw	v0,60(s1)
9d010fa4:	2442ffff 	addiu	v0,v0,-1
9d010fa8:	1000ffe9 	b	9d010f50 <__read_int+0xd8>
9d010fac:	ae22003c 	sw	v0,60(s1)
9d010fb0:	a0620000 	sb	v0,0(v1)
9d010fb4:	8e420000 	lw	v0,0(s2)
9d010fb8:	26100001 	addiu	s0,s0,1
9d010fbc:	24420001 	addiu	v0,v0,1
9d010fc0:	1000ffc6 	b	9d010edc <__read_int+0x64>
9d010fc4:	ae420000 	sw	v0,0(s2)

Disassembly of section .text.__cvt_u:

9d010fc8 <__cvt_u>:
9d010fc8:	8c820004 	lw	v0,4(a0)
9d010fcc:	27bdffc0 	addiu	sp,sp,-64
9d010fd0:	afbe0038 	sw	s8,56(sp)
9d010fd4:	afb40028 	sw	s4,40(sp)
9d010fd8:	afb20020 	sw	s2,32(sp)
9d010fdc:	afb1001c 	sw	s1,28(sp)
9d010fe0:	afbf003c 	sw	ra,60(sp)
9d010fe4:	afb70034 	sw	s7,52(sp)
9d010fe8:	afb60030 	sw	s6,48(sp)
9d010fec:	afb5002c 	sw	s5,44(sp)
9d010ff0:	afb30024 	sw	s3,36(sp)
9d010ff4:	afb00018 	sw	s0,24(sp)
9d010ff8:	00c08825 	move	s1,a2
9d010ffc:	00e09025 	move	s2,a3
9d011000:	8fb40054 	lw	s4,84(sp)
9d011004:	04410002 	bgez	v0,9d011010 <__cvt_u+0x48>
9d011008:	8fbe0058 	lw	s8,88(sp)
9d01100c:	24020001 	li	v0,1
9d011010:	8c900010 	lw	s0,16(a0)
9d011014:	8c95000c 	lw	s5,12(a0)
9d011018:	8fd70000 	lw	s7,0(s8)
9d01101c:	8fb30050 	lw	s3,80(sp)
9d011020:	2610ffff 	addiu	s0,s0,-1
9d011024:	02b01821 	addu	v1,s5,s0
9d011028:	a0600000 	sb	zero,0(v1)
9d01102c:	24090001 	li	t1,1
9d011030:	00534023 	subu	t0,v0,s3
9d011034:	32f70002 	andi	s7,s7,0x2
9d011038:	0014b7c3 	sra	s6,s4,0x1f
9d01103c:	1e000010 	bgtz	s0,9d011080 <__cvt_u+0xb8>
9d011040:	02321025 	or	v0,s1,s2
9d011044:	5120002c 	beqzl	t1,9d0110f8 <__cvt_u+0x130>
9d011048:	8fc20000 	lw	v0,0(s8)
9d01104c:	8fbf003c 	lw	ra,60(sp)
9d011050:	02001025 	move	v0,s0
9d011054:	8fbe0038 	lw	s8,56(sp)
9d011058:	8fb70034 	lw	s7,52(sp)
9d01105c:	8fb60030 	lw	s6,48(sp)
9d011060:	8fb5002c 	lw	s5,44(sp)
9d011064:	8fb40028 	lw	s4,40(sp)
9d011068:	8fb30024 	lw	s3,36(sp)
9d01106c:	8fb20020 	lw	s2,32(sp)
9d011070:	8fb1001c 	lw	s1,28(sp)
9d011074:	8fb00018 	lw	s0,24(sp)
9d011078:	03e00008 	jr	ra
9d01107c:	27bd0040 	addiu	sp,sp,64
9d011080:	14400007 	bnez	v0,9d0110a0 <__cvt_u+0xd8>
9d011084:	01131021 	addu	v0,t0,s3
9d011088:	1c400006 	bgtz	v0,9d0110a4 <__cvt_u+0xdc>
9d01108c:	02202025 	move	a0,s1
9d011090:	1a60ffec 	blez	s3,9d011044 <__cvt_u+0x7c>
9d011094:	00000000 	nop
9d011098:	12e0ffea 	beqz	s7,9d011044 <__cvt_u+0x7c>
9d01109c:	00000000 	nop
9d0110a0:	02202025 	move	a0,s1
9d0110a4:	02402825 	move	a1,s2
9d0110a8:	02803025 	move	a2,s4
9d0110ac:	02c03825 	move	a3,s6
9d0110b0:	afa80014 	sw	t0,20(sp)
9d0110b4:	0f4037be 	jal	9d00def8 <__umoddi3>
9d0110b8:	2610ffff 	addiu	s0,s0,-1
9d0110bc:	afa20010 	sw	v0,16(sp)
9d0110c0:	02b01821 	addu	v1,s5,s0
9d0110c4:	24420030 	addiu	v0,v0,48
9d0110c8:	02202025 	move	a0,s1
9d0110cc:	02402825 	move	a1,s2
9d0110d0:	a0620000 	sb	v0,0(v1)
9d0110d4:	02803025 	move	a2,s4
9d0110d8:	0f4036cf 	jal	9d00db3c <__udivdi3>
9d0110dc:	02c03825 	move	a3,s6
9d0110e0:	2673ffff 	addiu	s3,s3,-1
9d0110e4:	00408825 	move	s1,v0
9d0110e8:	00609025 	move	s2,v1
9d0110ec:	8fa80014 	lw	t0,20(sp)
9d0110f0:	1000ffd2 	b	9d01103c <__cvt_u+0x74>
9d0110f4:	8fa90010 	lw	t1,16(sp)
9d0110f8:	7c022104 	ins	v0,zero,0x4,0x1
9d0110fc:	1000ffd3 	b	9d01104c <__cvt_u+0x84>
9d011100:	afc20000 	sw	v0,0(s8)

Disassembly of section .text.read:

9d011104 <read>:
9d011104:	50a0004a 	beqzl	a1,9d011230 <read+0x12c>
9d011108:	00002025 	move	a0,zero
9d01110c:	50c00048 	beqzl	a2,9d011230 <read+0x12c>
9d011110:	00002025 	move	a0,zero
9d011114:	27bdffe0 	addiu	sp,sp,-32
9d011118:	afb10014 	sw	s1,20(sp)
9d01111c:	afbf001c 	sw	ra,28(sp)
9d011120:	afb20018 	sw	s2,24(sp)
9d011124:	afb00010 	sw	s0,16(sp)
9d011128:	1480000b 	bnez	a0,9d011158 <read+0x54>
9d01112c:	00c08825 	move	s1,a2
9d011130:	3c020000 	lui	v0,0x0
9d011134:	24420000 	addiu	v0,v0,0
9d011138:	1040000f 	beqz	v0,9d011178 <read+0x74>
9d01113c:	00a08025 	move	s0,a1
9d011140:	00a69021 	addu	s2,a1,a2
9d011144:	0c000000 	jal	90000000 <_bmxdudba_address+0x8fff0000>
9d011148:	24040001 	li	a0,1
9d01114c:	26100001 	addiu	s0,s0,1
9d011150:	1650fffc 	bne	s2,s0,9d011144 <read+0x40>
9d011154:	a202ffff 	sb	v0,-1(s0)
9d011158:	02202025 	move	a0,s1
9d01115c:	8fbf001c 	lw	ra,28(sp)
9d011160:	00801025 	move	v0,a0
9d011164:	8fb20018 	lw	s2,24(sp)
9d011168:	8fb10014 	lw	s1,20(sp)
9d01116c:	8fb00010 	lw	s0,16(sp)
9d011170:	03e00008 	jr	ra
9d011174:	27bd0020 	addiu	sp,sp,32
9d011178:	3c03bf80 	lui	v1,0xbf80
9d01117c:	24626010 	addiu	v0,v1,24592
9d011180:	1040fff6 	beqz	v0,9d01115c <read+0x58>
9d011184:	3c03a000 	lui	v1,0xa000
9d011188:	8c640008 	lw	a0,8(v1)
9d01118c:	24030002 	li	v1,2
9d011190:	1083001d 	beq	a0,v1,9d011208 <read+0x104>
9d011194:	3c03bf80 	lui	v1,0xbf80
9d011198:	3c03bf80 	lui	v1,0xbf80
9d01119c:	8c646000 	lw	a0,24576(v1)
9d0111a0:	3c03bf80 	lui	v1,0xbf80
9d0111a4:	24636030 	addiu	v1,v1,24624
9d0111a8:	30848000 	andi	a0,a0,0x8000
9d0111ac:	14800003 	bnez	a0,9d0111bc <read+0xb8>
9d0111b0:	3c04bf80 	lui	a0,0xbf80
9d0111b4:	34058000 	li	a1,0x8000
9d0111b8:	ac856008 	sw	a1,24584(a0)
9d0111bc:	02202025 	move	a0,s1
9d0111c0:	240500a1 	li	a1,161
9d0111c4:	8c460000 	lw	a2,0(v0)
9d0111c8:	30c60001 	andi	a2,a2,0x1
9d0111cc:	14c00003 	bnez	a2,9d0111dc <read+0xd8>
9d0111d0:	24a5ffff 	addiu	a1,a1,-1
9d0111d4:	14a0fffb 	bnez	a1,9d0111c4 <read+0xc0>
9d0111d8:	00000000 	nop
9d0111dc:	8c450000 	lw	a1,0(v0)
9d0111e0:	30a50001 	andi	a1,a1,0x1
9d0111e4:	54a0ffdc 	bnezl	a1,9d011158 <read+0x54>
9d0111e8:	02248823 	subu	s1,s1,a0
9d0111ec:	8c650000 	lw	a1,0(v1)
9d0111f0:	26100001 	addiu	s0,s0,1
9d0111f4:	2484ffff 	addiu	a0,a0,-1
9d0111f8:	1480fff1 	bnez	a0,9d0111c0 <read+0xbc>
9d0111fc:	a205ffff 	sb	a1,-1(s0)
9d011200:	1000ffd5 	b	9d011158 <read+0x54>
9d011204:	02248823 	subu	s1,s1,a0
9d011208:	24636240 	addiu	v1,v1,25152
9d01120c:	5060ffe3 	beqzl	v1,9d01119c <read+0x98>
9d011210:	3c03bf80 	lui	v1,0xbf80
9d011214:	3c02bf80 	lui	v0,0xbf80
9d011218:	8c446200 	lw	a0,25088(v0)
9d01121c:	3c03bf80 	lui	v1,0xbf80
9d011220:	3c02bf80 	lui	v0,0xbf80
9d011224:	24636230 	addiu	v1,v1,25136
9d011228:	1000ffdf 	b	9d0111a8 <read+0xa4>
9d01122c:	24426210 	addiu	v0,v0,25104
9d011230:	03e00008 	jr	ra
9d011234:	00801025 	move	v0,a0

Disassembly of section .text.dpcmp:

9d011238 <__eqdf2>:
9d011238:	2409fffe 00055040 00075840 01645825     ...$@P..@X..%Xd.
9d011248:	01665825 014b5025 15400003 00000000     %Xf.%PK...@.....
9d011258:	1000003c 24020000                       <......$

9d011260 <i56>:
9d011260:	10800002 	beqz	a0,9d01126c <i57>
9d011264:	00054040 	sll	t0,a1,0x1
9d011268:	25080001 	addiu	t0,t0,1

9d01126c <i57>:
9d01126c:	3c01ffe0 	lui	at,0xffe0
9d011270:	34210001 	ori	at,at,0x1
9d011274:	0101082b 	sltu	at,t0,at
9d011278:	10200037 	beqz	at,9d011358 <Lnan>
9d01127c:	00000000 	nop
9d011280:	10c00002 	beqz	a2,9d01128c <i58>
9d011284:	00074040 	sll	t0,a3,0x1
9d011288:	25080001 	addiu	t0,t0,1

9d01128c <i58>:
9d01128c:	3c01ffe0 	lui	at,0xffe0
9d011290:	34210001 	ori	at,at,0x1
9d011294:	0101082b 	sltu	at,t0,at
9d011298:	1020002f 	beqz	at,9d011358 <Lnan>
9d01129c:	00000000 	nop
9d0112a0:	04a10016 	bgez	a1,9d0112fc <i59>
9d0112a4:	00000000 	nop
9d0112a8:	04e00003 	bltz	a3,9d0112b8 <i60>
9d0112ac:	00000000 	nop
9d0112b0:	10000026 	b	9d01134c <L999>
9d0112b4:	2402ffff 	li	v0,-1

9d0112b8 <i60>:
9d0112b8:	0086502b 	sltu	t2,a0,a2
9d0112bc:	00862023 	subu	a0,a0,a2
9d0112c0:	00aa582b 	sltu	t3,a1,t2
9d0112c4:	00aa2823 	subu	a1,a1,t2
9d0112c8:	00a7502b 	sltu	t2,a1,a3
9d0112cc:	014b5025 	or	t2,t2,t3
9d0112d0:	11400003 	beqz	t2,9d0112e0 <i61>
9d0112d4:	00a72823 	subu	a1,a1,a3
9d0112d8:	1000001c 	b	9d01134c <L999>
9d0112dc:	24020001 	li	v0,1

9d0112e0 <i61>:
9d0112e0:	00a45025 	or	t2,a1,a0
9d0112e4:	11400003 	beqz	t2,9d0112f4 <i62>
9d0112e8:	00000000 	nop
9d0112ec:	10000017 	b	9d01134c <L999>
9d0112f0:	2402ffff 	li	v0,-1

9d0112f4 <i62>:
9d0112f4:	10000015 	b	9d01134c <L999>
9d0112f8:	24020000 	li	v0,0

9d0112fc <i59>:
9d0112fc:	04e10003 	bgez	a3,9d01130c <i63>
9d011300:	00000000 	nop
9d011304:	10000011 	b	9d01134c <L999>
9d011308:	24020001 	li	v0,1

9d01130c <i63>:
9d01130c:	0086502b 	sltu	t2,a0,a2
9d011310:	00862023 	subu	a0,a0,a2
9d011314:	00aa582b 	sltu	t3,a1,t2
9d011318:	00aa2823 	subu	a1,a1,t2
9d01131c:	00a7502b 	sltu	t2,a1,a3
9d011320:	014b5025 	or	t2,t2,t3
9d011324:	11400003 	beqz	t2,9d011334 <i64>
9d011328:	00a72823 	subu	a1,a1,a3
9d01132c:	10000007 	b	9d01134c <L999>
9d011330:	2402ffff 	li	v0,-1

9d011334 <i64>:
9d011334:	00a45025 	or	t2,a1,a0
9d011338:	11400003 	beqz	t2,9d011348 <i65>
9d01133c:	00000000 	nop
9d011340:	10000002 	b	9d01134c <L999>
9d011344:	24020001 	li	v0,1

9d011348 <i65>:
9d011348:	24020000 	li	v0,0

9d01134c <L999>:
9d01134c:	03e00008 	jr	ra
9d011350:	00000000 	nop
9d011354:	00000000 	nop

9d011358 <Lnan>:
9d011358:	1000fffc 	b	9d01134c <L999>
9d01135c:	00091025 	or	v0,zero,t1
9d011360:	00000000 	nop

Disassembly of section .text.dfcmplt:

9d011364 <dpcmplt>:
9d011364:	2409fffe 	li	t1,-2
9d011368:	00055040 	sll	t2,a1,0x1
9d01136c:	00075840 	sll	t3,a3,0x1
9d011370:	01645825 	or	t3,t3,a0
9d011374:	01665825 	or	t3,t3,a2
9d011378:	014b5025 	or	t2,t2,t3
9d01137c:	15400003 	bnez	t2,9d01138c <dpcmplt+0x28>
9d011380:	00000000 	nop
9d011384:	1000003c 	b	9d011478 <dpcmplt+0x114>
9d011388:	24020000 	li	v0,0
9d01138c:	10800002 	beqz	a0,9d011398 <dpcmplt+0x34>
9d011390:	00054040 	sll	t0,a1,0x1
9d011394:	25080001 	addiu	t0,t0,1
9d011398:	3c01ffe0 	lui	at,0xffe0
9d01139c:	34210001 	ori	at,at,0x1
9d0113a0:	0101082b 	sltu	at,t0,at
9d0113a4:	10200037 	beqz	at,9d011484 <dpcmplt+0x120>
9d0113a8:	00000000 	nop
9d0113ac:	10c00002 	beqz	a2,9d0113b8 <dpcmplt+0x54>
9d0113b0:	00074040 	sll	t0,a3,0x1
9d0113b4:	25080001 	addiu	t0,t0,1
9d0113b8:	3c01ffe0 	lui	at,0xffe0
9d0113bc:	34210001 	ori	at,at,0x1
9d0113c0:	0101082b 	sltu	at,t0,at
9d0113c4:	1020002f 	beqz	at,9d011484 <dpcmplt+0x120>
9d0113c8:	00000000 	nop
9d0113cc:	04a10016 	bgez	a1,9d011428 <dpcmplt+0xc4>
9d0113d0:	00000000 	nop
9d0113d4:	04e00003 	bltz	a3,9d0113e4 <dpcmplt+0x80>
9d0113d8:	00000000 	nop
9d0113dc:	10000026 	b	9d011478 <dpcmplt+0x114>
9d0113e0:	2402ffff 	li	v0,-1
9d0113e4:	0086502b 	sltu	t2,a0,a2
9d0113e8:	00862023 	subu	a0,a0,a2
9d0113ec:	00aa582b 	sltu	t3,a1,t2
9d0113f0:	00aa2823 	subu	a1,a1,t2
9d0113f4:	00a7502b 	sltu	t2,a1,a3
9d0113f8:	014b5025 	or	t2,t2,t3
9d0113fc:	11400003 	beqz	t2,9d01140c <dpcmplt+0xa8>
9d011400:	00a72823 	subu	a1,a1,a3
9d011404:	1000001c 	b	9d011478 <dpcmplt+0x114>
9d011408:	24020001 	li	v0,1
9d01140c:	00a45025 	or	t2,a1,a0
9d011410:	11400003 	beqz	t2,9d011420 <dpcmplt+0xbc>
9d011414:	00000000 	nop
9d011418:	10000017 	b	9d011478 <dpcmplt+0x114>
9d01141c:	2402ffff 	li	v0,-1
9d011420:	10000015 	b	9d011478 <dpcmplt+0x114>
9d011424:	24020000 	li	v0,0
9d011428:	04e10003 	bgez	a3,9d011438 <dpcmplt+0xd4>
9d01142c:	00000000 	nop
9d011430:	10000011 	b	9d011478 <dpcmplt+0x114>
9d011434:	24020001 	li	v0,1
9d011438:	0086502b 	sltu	t2,a0,a2
9d01143c:	00862023 	subu	a0,a0,a2
9d011440:	00aa582b 	sltu	t3,a1,t2
9d011444:	00aa2823 	subu	a1,a1,t2
9d011448:	00a7502b 	sltu	t2,a1,a3
9d01144c:	014b5025 	or	t2,t2,t3
9d011450:	11400003 	beqz	t2,9d011460 <dpcmplt+0xfc>
9d011454:	00a72823 	subu	a1,a1,a3
9d011458:	10000007 	b	9d011478 <dpcmplt+0x114>
9d01145c:	2402ffff 	li	v0,-1
9d011460:	00a45025 	or	t2,a1,a0
9d011464:	11400003 	beqz	t2,9d011474 <dpcmplt+0x110>
9d011468:	00000000 	nop
9d01146c:	10000002 	b	9d011478 <dpcmplt+0x114>
9d011470:	24020001 	li	v0,1
9d011474:	24020000 	li	v0,0
9d011478:	03e00008 	jr	ra
9d01147c:	00000000 	nop
9d011480:	00000000 	nop
9d011484:	1000fffc 	b	9d011478 <dpcmplt+0x114>
9d011488:	34020001 	li	v0,0x1
9d01148c:	00000000 	nop

Disassembly of section .text._mon_putc:

9d011490 <_mon_putc>:
9d011490:	3c02a000 	lui	v0,0xa000
9d011494:	8c430008 	lw	v1,8(v0)
9d011498:	14600013 	bnez	v1,9d0114e8 <_mon_putc+0x58>
9d01149c:	00803025 	move	a2,a0
9d0114a0:	3c020000 	lui	v0,0x0
9d0114a4:	27bdffe8 	addiu	sp,sp,-24
9d0114a8:	24420000 	addiu	v0,v0,0
9d0114ac:	10400006 	beqz	v0,9d0114c8 <_mon_putc+0x38>
9d0114b0:	afbf0014 	sw	ra,20(sp)
9d0114b4:	0c000000 	jal	90000000 <_bmxdudba_address+0x8fff0000>
9d0114b8:	00000000 	nop
9d0114bc:	8fbf0014 	lw	ra,20(sp)
9d0114c0:	03e00008 	jr	ra
9d0114c4:	27bd0018 	addiu	sp,sp,24
9d0114c8:	3c020000 	lui	v0,0x0
9d0114cc:	24420000 	addiu	v0,v0,0
9d0114d0:	10400025 	beqz	v0,9d011568 <_mon_putc+0xd8>
9d0114d4:	3c05bf80 	lui	a1,0xbf80
9d0114d8:	0c000000 	jal	90000000 <_bmxdudba_address+0x8fff0000>
9d0114dc:	00000000 	nop
9d0114e0:	1000fff7 	b	9d0114c0 <_mon_putc+0x30>
9d0114e4:	8fbf0014 	lw	ra,20(sp)
9d0114e8:	3c02bf80 	lui	v0,0xbf80
9d0114ec:	24426010 	addiu	v0,v0,24592
9d0114f0:	1040002f 	beqz	v0,9d0115b0 <_mon_putc+0x120>
9d0114f4:	00000000 	nop
9d0114f8:	24040001 	li	a0,1
9d0114fc:	14640012 	bne	v1,a0,9d011548 <_mon_putc+0xb8>
9d011500:	3c03bf80 	lui	v1,0xbf80
9d011504:	3c03bf80 	lui	v1,0xbf80
9d011508:	3c04bf80 	lui	a0,0xbf80
9d01150c:	3c05bf80 	lui	a1,0xbf80
9d011510:	24636020 	addiu	v1,v1,24608
9d011514:	24846018 	addiu	a0,a0,24600
9d011518:	24a56008 	addiu	a1,a1,24584
9d01151c:	34078000 	li	a3,0x8000
9d011520:	aca70000 	sw	a3,0(a1)
9d011524:	24050400 	li	a1,1024
9d011528:	ac850000 	sw	a1,0(a0)
9d01152c:	8c440000 	lw	a0,0(v0)
9d011530:	30840100 	andi	a0,a0,0x100
9d011534:	1080fffd 	beqz	a0,9d01152c <_mon_putc+0x9c>
9d011538:	00000000 	nop
9d01153c:	ac660000 	sw	a2,0(v1)
9d011540:	03e00008 	jr	ra
9d011544:	00000000 	nop
9d011548:	3c04bf80 	lui	a0,0xbf80
9d01154c:	3c05bf80 	lui	a1,0xbf80
9d011550:	3c02bf80 	lui	v0,0xbf80
9d011554:	24636220 	addiu	v1,v1,25120
9d011558:	24846218 	addiu	a0,a0,25112
9d01155c:	24a56208 	addiu	a1,a1,25096
9d011560:	1000ffee 	b	9d01151c <_mon_putc+0x8c>
9d011564:	24426210 	addiu	v0,v0,25104
9d011568:	24a56208 	addiu	a1,a1,25096
9d01156c:	3c04bf80 	lui	a0,0xbf80
9d011570:	34078000 	li	a3,0x8000
9d011574:	aca70000 	sw	a3,0(a1)
9d011578:	3c03bf80 	lui	v1,0xbf80
9d01157c:	24846218 	addiu	a0,a0,25112
9d011580:	3c02bf80 	lui	v0,0xbf80
9d011584:	24050400 	li	a1,1024
9d011588:	24636220 	addiu	v1,v1,25120
9d01158c:	24426210 	addiu	v0,v0,25104
9d011590:	ac850000 	sw	a1,0(a0)
9d011594:	8c440000 	lw	a0,0(v0)
9d011598:	30840100 	andi	a0,a0,0x100
9d01159c:	1080fffd 	beqz	a0,9d011594 <_mon_putc+0x104>
9d0115a0:	00000000 	nop
9d0115a4:	ac660000 	sw	a2,0(v1)
9d0115a8:	1000ffc5 	b	9d0114c0 <_mon_putc+0x30>
9d0115ac:	8fbf0014 	lw	ra,20(sp)
9d0115b0:	03e00008 	jr	ra
9d0115b4:	00000000 	nop

Disassembly of section .text.logbl:

9d0115b8 <logbl>:
9d0115b8:	27bdffe0 	addiu	sp,sp,-32
9d0115bc:	afa50024 	sw	a1,36(sp)
9d0115c0:	afb20018 	sw	s2,24(sp)
9d0115c4:	87b20026 	lh	s2,38(sp)
9d0115c8:	24037ff0 	li	v1,32752
9d0115cc:	afbf001c 	sw	ra,28(sp)
9d0115d0:	32427ff0 	andi	v0,s2,0x7ff0
9d0115d4:	afb10014 	sw	s1,20(sp)
9d0115d8:	afb00010 	sw	s0,16(sp)
9d0115dc:	10430021 	beq	v0,v1,9d011664 <logbl+0xac>
9d0115e0:	afa40020 	sw	a0,32(sp)
9d0115e4:	14400012 	bnez	v0,9d011630 <logbl+0x78>
9d0115e8:	00003025 	move	a2,zero
9d0115ec:	0f40448e 	jal	9d011238 <__eqdf2>
9d0115f0:	00003825 	move	a3,zero
9d0115f4:	1440002e 	bnez	v0,9d0116b0 <logbl+0xf8>
9d0115f8:	3c029d00 	lui	v0,0x9d00
9d0115fc:	3c02a000 	lui	v0,0xa000
9d011600:	24030021 	li	v1,33
9d011604:	00008025 	move	s0,zero
9d011608:	3c11ffc0 	lui	s1,0xffc0
9d01160c:	ac43107c 	sw	v1,4220(v0)
9d011610:	8fbf001c 	lw	ra,28(sp)
9d011614:	02001025 	move	v0,s0
9d011618:	02201825 	move	v1,s1
9d01161c:	8fb20018 	lw	s2,24(sp)
9d011620:	8fb10014 	lw	s1,20(sp)
9d011624:	8fb00010 	lw	s0,16(sp)
9d011628:	03e00008 	jr	ra
9d01162c:	27bd0020 	addiu	sp,sp,32
9d011630:	00022103 	sra	a0,v0,0x4
9d011634:	0f404cf9 	jal	9d0133e4 <__floatsidf>
9d011638:	2484fc01 	addiu	a0,a0,-1023
9d01163c:	8fbf001c 	lw	ra,28(sp)
9d011640:	00408025 	move	s0,v0
9d011644:	00608825 	move	s1,v1
9d011648:	02001025 	move	v0,s0
9d01164c:	02201825 	move	v1,s1
9d011650:	8fb20018 	lw	s2,24(sp)
9d011654:	8fb10014 	lw	s1,20(sp)
9d011658:	8fb00010 	lw	s0,16(sp)
9d01165c:	03e00008 	jr	ra
9d011660:	27bd0020 	addiu	sp,sp,32
9d011664:	00803025 	move	a2,a0
9d011668:	00a03825 	move	a3,a1
9d01166c:	00808025 	move	s0,a0
9d011670:	0f40448e 	jal	9d011238 <__eqdf2>
9d011674:	00a08825 	move	s1,a1
9d011678:	1440ffe6 	bnez	v0,9d011614 <logbl+0x5c>
9d01167c:	8fbf001c 	lw	ra,28(sp)
9d011680:	32527fff 	andi	s2,s2,0x7fff
9d011684:	a7b20026 	sh	s2,38(sp)
9d011688:	8fb00020 	lw	s0,32(sp)
9d01168c:	8fb10024 	lw	s1,36(sp)
9d011690:	8fbf001c 	lw	ra,28(sp)
9d011694:	02001025 	move	v0,s0
9d011698:	02201825 	move	v1,s1
9d01169c:	8fb20018 	lw	s2,24(sp)
9d0116a0:	8fb10014 	lw	s1,20(sp)
9d0116a4:	8fb00010 	lw	s0,16(sp)
9d0116a8:	03e00008 	jr	ra
9d0116ac:	27bd0020 	addiu	sp,sp,32
9d0116b0:	8c5176f4 	lw	s1,30452(v0)
9d0116b4:	8c5076f0 	lw	s0,30448(v0)
9d0116b8:	8fbf001c 	lw	ra,28(sp)
9d0116bc:	02201825 	move	v1,s1
9d0116c0:	02001025 	move	v0,s0
9d0116c4:	8fb20018 	lw	s2,24(sp)
9d0116c8:	8fb10014 	lw	s1,20(sp)
9d0116cc:	8fb00010 	lw	s0,16(sp)
9d0116d0:	03e00008 	jr	ra
9d0116d4:	27bd0020 	addiu	sp,sp,32

Disassembly of section .text.realloc:

9d0116d8 <realloc>:
9d0116d8:	27bdffd8 	addiu	sp,sp,-40
9d0116dc:	afbf0024 	sw	ra,36(sp)
9d0116e0:	afb40020 	sw	s4,32(sp)
9d0116e4:	afb3001c 	sw	s3,28(sp)
9d0116e8:	afb20018 	sw	s2,24(sp)
9d0116ec:	afb10014 	sw	s1,20(sp)
9d0116f0:	afb00010 	sw	s0,16(sp)
9d0116f4:	1480000d 	bnez	a0,9d01172c <realloc+0x54>
9d0116f8:	afa5002c 	sw	a1,44(sp)
9d0116fc:	0f403c39 	jal	9d00f0e4 <malloc>
9d011700:	00a02025 	move	a0,a1
9d011704:	00408825 	move	s1,v0
9d011708:	8fbf0024 	lw	ra,36(sp)
9d01170c:	02201025 	move	v0,s1
9d011710:	8fb40020 	lw	s4,32(sp)
9d011714:	8fb3001c 	lw	s3,28(sp)
9d011718:	8fb20018 	lw	s2,24(sp)
9d01171c:	8fb10014 	lw	s1,20(sp)
9d011720:	8fb00010 	lw	s0,16(sp)
9d011724:	03e00008 	jr	ra
9d011728:	27bd0028 	addiu	sp,sp,40
9d01172c:	00808025 	move	s0,a0
9d011730:	0f404ece 	jal	9d013b38 <adjust_size>
9d011734:	27a4002c 	addiu	a0,sp,44
9d011738:	0440002b 	bltz	v0,9d0117e8 <realloc+0x110>
9d01173c:	2413fffe 	li	s3,-2
9d011740:	8e02fffc 	lw	v0,-4(s0)
9d011744:	2614fff8 	addiu	s4,s0,-8
9d011748:	00539024 	and	s2,v0,s3
9d01174c:	02928821 	addu	s1,s4,s2
9d011750:	8e230000 	lw	v1,0(s1)
9d011754:	10430003 	beq	v0,v1,9d011764 <realloc+0x8c>
9d011758:	8fa2002c 	lw	v0,44(sp)
9d01175c:	a0000000 	sb	zero,0(zero)
9d011760:	00000034 	teq	zero,zero
9d011764:	0242102b 	sltu	v0,s2,v0
9d011768:	10400009 	beqz	v0,9d011790 <realloc+0xb8>
9d01176c:	02401825 	move	v1,s2
9d011770:	0f404dc1 	jal	9d013704 <alloc_fwd>
9d011774:	02202025 	move	a0,s1
9d011778:	10400005 	beqz	v0,9d011790 <realloc+0xb8>
9d01177c:	02401825 	move	v1,s2
9d011780:	8e220004 	lw	v0,4(s1)
9d011784:	02629824 	and	s3,s3,v0
9d011788:	02721821 	addu	v1,s3,s2
9d01178c:	02338821 	addu	s1,s1,s3
9d011790:	8fa5002c 	lw	a1,44(sp)
9d011794:	34620001 	ori	v0,v1,0x1
9d011798:	ae02fffc 	sw	v0,-4(s0)
9d01179c:	0065182b 	sltu	v1,v1,a1
9d0117a0:	14600005 	bnez	v1,9d0117b8 <realloc+0xe0>
9d0117a4:	ae220000 	sw	v0,0(s1)
9d0117a8:	0f404ee4 	jal	9d013b90 <trim>
9d0117ac:	02802025 	move	a0,s4
9d0117b0:	1000ffd5 	b	9d011708 <realloc+0x30>
9d0117b4:	02008825 	move	s1,s0
9d0117b8:	0f403c39 	jal	9d00f0e4 <malloc>
9d0117bc:	24a4fff8 	addiu	a0,a1,-8
9d0117c0:	1040ffd1 	beqz	v0,9d011708 <realloc+0x30>
9d0117c4:	00408825 	move	s1,v0
9d0117c8:	2646fff8 	addiu	a2,s2,-8
9d0117cc:	02002825 	move	a1,s0
9d0117d0:	0f405100 	jal	9d014400 <memcpy>
9d0117d4:	00402025 	move	a0,v0
9d0117d8:	0f403f58 	jal	9d00fd60 <free>
9d0117dc:	02002025 	move	a0,s0
9d0117e0:	1000ffca 	b	9d01170c <realloc+0x34>
9d0117e4:	8fbf0024 	lw	ra,36(sp)
9d0117e8:	1000ffc7 	b	9d011708 <realloc+0x30>
9d0117ec:	00008825 	move	s1,zero

Disassembly of section .rodata:

9d0117f0 <table-0xc>:
9d0117f0:	04020100 	bltzl	zero,9d011bf4 <i49+0x14>
9d0117f4:	05060307 	0x5060307
9d0117f8:	00000000 	nop

9d0117fc <table>:
9d0117fc:	ffffffff ffffffff ffffffff ffffffff     ................
9d01180c:	ffffffff ffffffff ffffffff ffffffff     ................
9d01181c:	ffffffff ffffffff ffffffff ffffffff     ................
9d01182c:	020100ff 06050403 ff090807 ffffffff     ................
9d01183c:	0b0affff 0f0e0d0c 13121110 17161514     ................
9d01184c:	1b1a1918 1f1e1d1c 23222120 ffffffff     ........ !"#....
9d01185c:	0b0affff 0f0e0d0c 13121110 17161514     ................
9d01186c:	1b1a1918 1f1e1d1c 23222120 ffffffff     ........ !"#....
9d01187c:	ffffffff ffffffff ffffffff ffffffff     ................
9d01188c:	ffffffff ffffffff ffffffff ffffffff     ................
9d01189c:	ffffffff ffffffff ffffffff ffffffff     ................
9d0118ac:	ffffffff ffffffff ffffffff ffffffff     ................
9d0118bc:	ffffffff ffffffff ffffffff ffffffff     ................
9d0118cc:	ffffffff ffffffff ffffffff ffffffff     ................
9d0118dc:	ffffffff ffffffff ffffffff ffffffff     ................
9d0118ec:	ffffffff ffffffff ffffffff ffffffff     ................
9d0118fc:	000000ff                                ....

Disassembly of section .text:

9d011900 <dpfloor>:
9d011900:	3c018000 00a13024 00053840 00073d42     ...<$0..@8..B=..
9d011910:	240107ff 10e1002b 00000000 24090433     ...$+.......3..$
9d011920:	01273823 2ce10035 1420000b 00000000     #8'.5..,.. .....
9d011930:	04e00020 00000000 10c0002d 00000000      .......-.......
9d011940:	00054840 01244825 15200026 00000000     @H..%H$.&. .....
9d011950:	10000027 00000000                       '.......

9d011958 <i1>:
9d011958:	10c00005 	beqz	a2,9d011970 <i3>
9d01195c:	00000000 	nop
9d011960:	0004482b 	sltu	t1,zero,a0
9d011964:	00042023 	negu	a0,a0
9d011968:	00052823 	negu	a1,a1
9d01196c:	00a92823 	subu	a1,a1,t1

9d011970 <i3>:
9d011970:	30e9001f 	andi	t1,a3,0x1f
9d011974:	24080001 	li	t0,1
9d011978:	01284004 	sllv	t0,t0,t1
9d01197c:	00084023 	negu	t0,t0
9d011980:	2ce10020 	sltiu	at,a3,32
9d011984:	14200004 	bnez	at,9d011998 <i4>
9d011988:	00000000 	nop
9d01198c:	24040000 	li	a0,0
9d011990:	10000002 	b	9d01199c <e4>
9d011994:	00a82824 	and	a1,a1,t0

9d011998 <i4>:
9d011998:	00882024 	and	a0,a0,t0

9d01199c <e4>:
9d01199c:	10c00005 	beqz	a2,9d0119b4 <Aret>
9d0119a0:	00000000 	nop
9d0119a4:	0004482b 	sltu	t1,zero,a0
9d0119a8:	00042023 	negu	a0,a0
9d0119ac:	00052823 	negu	a1,a1
9d0119b0:	00a92823 	subu	a1,a1,t1

9d0119b4 <Aret>:
9d0119b4:	00041025 	or	v0,zero,a0
9d0119b8:	00051825 	or	v1,zero,a1

9d0119bc <A999>:
9d0119bc:	03e00008 	jr	ra
9d0119c0:	00000000 	nop

9d0119c4 <Aspec>:
9d0119c4:	3c01000f 	lui	at,0xf
9d0119c8:	3421ffff 	ori	at,at,0xffff
9d0119cc:	00a14824 	and	t1,a1,at
9d0119d0:	01244825 	or	t1,t1,a0
9d0119d4:	15200009 	bnez	t1,9d0119fc <Anan>
9d0119d8:	00000000 	nop
9d0119dc:	1000fff5 	b	9d0119b4 <Aret>
9d0119e0:	00000000 	nop

9d0119e4 <Amin1>:
9d0119e4:	3c05bff0 	lui	a1,0xbff0
9d0119e8:	1000fff2 	b	9d0119b4 <Aret>
9d0119ec:	24040000 	li	a0,0

9d0119f0 <Azer>:
9d0119f0:	00062825 	or	a1,zero,a2
9d0119f4:	1000ffef 	b	9d0119b4 <Aret>
9d0119f8:	24040000 	li	a0,0

9d0119fc <Anan>:
9d0119fc:	3c05fff8 	lui	a1,0xfff8
9d011a00:	1000ffec 	b	9d0119b4 <Aret>
9d011a04:	24040000 	li	a0,0

Disassembly of section .text.__pad:

9d011a08 <__pad>:
9d011a08:	27bdffc0 	addiu	sp,sp,-64
9d011a0c:	afb3002c 	sw	s3,44(sp)
9d011a10:	8fb30050 	lw	s3,80(sp)
9d011a14:	afb60038 	sw	s6,56(sp)
9d011a18:	afb40030 	sw	s4,48(sp)
9d011a1c:	32730001 	andi	s3,s3,0x1
9d011a20:	afb20028 	sw	s2,40(sp)
9d011a24:	afb10024 	sw	s1,36(sp)
9d011a28:	afb00020 	sw	s0,32(sp)
9d011a2c:	afbf003c 	sw	ra,60(sp)
9d011a30:	afb50034 	sw	s5,52(sp)
9d011a34:	00809025 	move	s2,a0
9d011a38:	00a0b025 	move	s6,a1
9d011a3c:	00c08025 	move	s0,a2
9d011a40:	00e08825 	move	s1,a3
9d011a44:	16600003 	bnez	s3,9d011a54 <__pad+0x4c>
9d011a48:	00c7a02b 	sltu	s4,a2,a3
9d011a4c:	56800013 	bnezl	s4,9d011a9c <__pad+0x94>
9d011a50:	0230a023 	subu	s4,s1,s0
9d011a54:	02003025 	move	a2,s0
9d011a58:	02c02825 	move	a1,s6
9d011a5c:	0f404b8e 	jal	9d012e38 <__out>
9d011a60:	02402025 	move	a0,s2
9d011a64:	1680000d 	bnez	s4,9d011a9c <__pad+0x94>
9d011a68:	0230a023 	subu	s4,s1,s0
9d011a6c:	02008825 	move	s1,s0
9d011a70:	8fbf003c 	lw	ra,60(sp)
9d011a74:	02201025 	move	v0,s1
9d011a78:	8fb60038 	lw	s6,56(sp)
9d011a7c:	8fb50034 	lw	s5,52(sp)
9d011a80:	8fb40030 	lw	s4,48(sp)
9d011a84:	8fb3002c 	lw	s3,44(sp)
9d011a88:	8fb20028 	lw	s2,40(sp)
9d011a8c:	8fb10024 	lw	s1,36(sp)
9d011a90:	8fb00020 	lw	s0,32(sp)
9d011a94:	03e00008 	jr	ra
9d011a98:	27bd0040 	addiu	sp,sp,64
9d011a9c:	2e860011 	sltiu	a2,s4,17
9d011aa0:	24020010 	li	v0,16
9d011aa4:	0286100b 	movn	v0,s4,a2
9d011aa8:	00403025 	move	a2,v0
9d011aac:	24050020 	li	a1,32
9d011ab0:	27a40010 	addiu	a0,sp,16
9d011ab4:	0f405189 	jal	9d014624 <memset>
9d011ab8:	0280a825 	move	s5,s4
9d011abc:	2ea20010 	sltiu	v0,s5,16
9d011ac0:	1040000b 	beqz	v0,9d011af0 <__pad+0xe8>
9d011ac4:	3286000f 	andi	a2,s4,0xf
9d011ac8:	27a50010 	addiu	a1,sp,16
9d011acc:	0f404b8e 	jal	9d012e38 <__out>
9d011ad0:	02402025 	move	a0,s2
9d011ad4:	1660ffe6 	bnez	s3,9d011a70 <__pad+0x68>
9d011ad8:	02003025 	move	a2,s0
9d011adc:	02c02825 	move	a1,s6
9d011ae0:	0f404b8e 	jal	9d012e38 <__out>
9d011ae4:	02402025 	move	a0,s2
9d011ae8:	1000ffe2 	b	9d011a74 <__pad+0x6c>
9d011aec:	8fbf003c 	lw	ra,60(sp)
9d011af0:	24060010 	li	a2,16
9d011af4:	27a50010 	addiu	a1,sp,16
9d011af8:	0f404b8e 	jal	9d012e38 <__out>
9d011afc:	02402025 	move	a0,s2
9d011b00:	1000ffee 	b	9d011abc <__pad+0xb4>
9d011b04:	26b5fff0 	addiu	s5,s5,-16

Disassembly of section .text.dptofp:

9d011b08 <__truncdfsf2>:
9d011b08:	00053ac0 00045d42 00eb3825 000432c0     .:..B]..%8...2..
9d011b18:	3c018000 00e13825 3c018000 00a14824     ...<%8.....<$H..
9d011b28:	00054040 00084542 2508fc80 250bffff     @@..BE.....%...%
9d011b38:	2d6100fe 10200012 00000000              ..a-.. .....

9d011b44 <Hlab1>:
9d011b44:	10c00002 	beqz	a2,9d011b50 <i45>
9d011b48:	00000000 	nop
9d011b4c:	34e70001 	ori	a3,a3,0x1

9d011b50 <i45>:
9d011b50:	24e70080 	addiu	a3,a3,128
9d011b54:	2ceb0080 	sltiu	t3,a3,128
9d011b58:	010b4021 	addu	t0,t0,t3
9d011b5c:	00075a02 	srl	t3,a3,0x8
9d011b60:	316b0001 	andi	t3,t3,0x1
9d011b64:	00eb3823 	subu	a3,a3,t3
9d011b68:	00073840 	sll	a3,a3,0x1
9d011b6c:	00073a42 	srl	a3,a3,0x9
9d011b70:	00085dc0 	sll	t3,t0,0x17
9d011b74:	00eb3825 	or	a3,a3,t3
9d011b78:	00e91025 	or	v0,a3,t1

9d011b7c <H999>:
9d011b7c:	03e00008 	jr	ra
9d011b80:	00000000 	nop
9d011b84:	00000000 	nop

9d011b88 <Hspec>:
9d011b88:	2401047f 	li	at,1151
9d011b8c:	15010007 	bne	t0,at,9d011bac <i46>
9d011b90:	00000000 	nop
9d011b94:	00075840 	sll	t3,a3,0x1
9d011b98:	01665825 	or	t3,t3,a2
9d011b9c:	11600003 	beqz	t3,9d011bac <i46>
9d011ba0:	00000000 	nop
9d011ba4:	1000fff5 	b	9d011b7c <H999>
9d011ba8:	3c02ffc0 	lui	v0,0xffc0

9d011bac <i46>:
9d011bac:	290100ff 	slti	at,t0,255
9d011bb0:	14200004 	bnez	at,9d011bc4 <i48>
9d011bb4:	00000000 	nop
9d011bb8:	3c017f80 	lui	at,0x7f80
9d011bbc:	1000ffef 	b	9d011b7c <H999>
9d011bc0:	01211025 	or	v0,t1,at

9d011bc4 <i48>:
9d011bc4:	240a0001 	li	t2,1
9d011bc8:	01485023 	subu	t2,t2,t0
9d011bcc:	2d410020 	sltiu	at,t2,32
9d011bd0:	14200003 	bnez	at,9d011be0 <i49>
9d011bd4:	00000000 	nop
9d011bd8:	1000ffe8 	b	9d011b7c <H999>
9d011bdc:	00091025 	or	v0,zero,t1

9d011be0 <i49>:
9d011be0:	240c0020 	li	t4,32
9d011be4:	018a6023 	subu	t4,t4,t2
9d011be8:	01875804 	sllv	t3,a3,t4
9d011bec:	00cb3025 	or	a2,a2,t3
9d011bf0:	01473806 	srlv	a3,a3,t2
9d011bf4:	24080000 	li	t0,0
9d011bf8:	3c018000 	lui	at,0x8000
9d011bfc:	1000ffd1 	b	9d011b44 <Hlab1>
9d011c00:	00e13825 	or	a3,a3,at
9d011c04:	00000000 	nop

Disassembly of section .text.__fmt_o:

9d011c08 <__fmt_o>:
9d011c08:	8ca20000 	lw	v0,0(a1)
9d011c0c:	8ca30004 	lw	v1,4(a1)
9d011c10:	27bdffc0 	addiu	sp,sp,-64
9d011c14:	afb30038 	sw	s3,56(sp)
9d011c18:	afb20034 	sw	s2,52(sp)
9d011c1c:	afb10030 	sw	s1,48(sp)
9d011c20:	afb0002c 	sw	s0,44(sp)
9d011c24:	afbf003c 	sw	ra,60(sp)
9d011c28:	00809025 	move	s2,a0
9d011c2c:	00a08025 	move	s0,a1
9d011c30:	8cb30008 	lw	s3,8(a1)
9d011c34:	afa20020 	sw	v0,32(sp)
9d011c38:	04600003 	bltz	v1,9d011c48 <__fmt_o+0x40>
9d011c3c:	8cb1000c 	lw	s1,12(a1)
9d011c40:	7c020844 	ins	v0,zero,0x1,0x1
9d011c44:	afa20020 	sw	v0,32(sp)
9d011c48:	27a20020 	addiu	v0,sp,32
9d011c4c:	afa20018 	sw	v0,24(sp)
9d011c50:	24020008 	li	v0,8
9d011c54:	afa20014 	sw	v0,20(sp)
9d011c58:	afb30010 	sw	s3,16(sp)
9d011c5c:	8cc70004 	lw	a3,4(a2)
9d011c60:	8cc60000 	lw	a2,0(a2)
9d011c64:	0f4043f2 	jal	9d010fc8 <__cvt_u>
9d011c68:	02002025 	move	a0,s0
9d011c6c:	8fa30020 	lw	v1,32(sp)
9d011c70:	30630010 	andi	v1,v1,0x10
9d011c74:	10600004 	beqz	v1,9d011c88 <__fmt_o+0x80>
9d011c78:	24040030 	li	a0,48
9d011c7c:	2442ffff 	addiu	v0,v0,-1
9d011c80:	02221821 	addu	v1,s1,v0
9d011c84:	a0640000 	sb	a0,0(v1)
9d011c88:	8fa30020 	lw	v1,32(sp)
9d011c8c:	30630008 	andi	v1,v1,0x8
9d011c90:	10600004 	beqz	v1,9d011ca4 <__fmt_o+0x9c>
9d011c94:	24040020 	li	a0,32
9d011c98:	2442ffff 	addiu	v0,v0,-1
9d011c9c:	02221821 	addu	v1,s1,v0
9d011ca0:	a0640000 	sb	a0,0(v1)
9d011ca4:	8e060010 	lw	a2,16(s0)
9d011ca8:	8fa30020 	lw	v1,32(sp)
9d011cac:	02603825 	move	a3,s3
9d011cb0:	24c6ffff 	addiu	a2,a2,-1
9d011cb4:	afa30010 	sw	v1,16(sp)
9d011cb8:	00c23023 	subu	a2,a2,v0
9d011cbc:	02222821 	addu	a1,s1,v0
9d011cc0:	0f404682 	jal	9d011a08 <__pad>
9d011cc4:	02402025 	move	a0,s2
9d011cc8:	8e430004 	lw	v1,4(s2)
9d011ccc:	30630100 	andi	v1,v1,0x100
9d011cd0:	10600004 	beqz	v1,9d011ce4 <__fmt_o+0xdc>
9d011cd4:	8fbf003c 	lw	ra,60(sp)
9d011cd8:	8e030004 	lw	v1,4(s0)
9d011cdc:	0043202a 	slt	a0,v0,v1
9d011ce0:	0064100b 	movn	v0,v1,a0
9d011ce4:	8fb30038 	lw	s3,56(sp)
9d011ce8:	8fb20034 	lw	s2,52(sp)
9d011cec:	8fb10030 	lw	s1,48(sp)
9d011cf0:	8fb0002c 	lw	s0,44(sp)
9d011cf4:	03e00008 	jr	ra
9d011cf8:	27bd0040 	addiu	sp,sp,64

Disassembly of section .text.scalbn:

9d011cfc <scalbn>:
9d011cfc:	27bdffe0 	addiu	sp,sp,-32
9d011d00:	afb10014 	sw	s1,20(sp)
9d011d04:	00c08825 	move	s1,a2
9d011d08:	28c60400 	slti	a2,a2,1024
9d011d0c:	afbf001c 	sw	ra,28(sp)
9d011d10:	afb20018 	sw	s2,24(sp)
9d011d14:	14c0001f 	bnez	a2,9d011d94 <scalbn+0x98>
9d011d18:	afb00010 	sw	s0,16(sp)
9d011d1c:	3c129d00 	lui	s2,0x9d00
9d011d20:	8e467730 	lw	a2,30512(s2)
9d011d24:	8e477734 	lw	a3,30516(s2)
9d011d28:	0f4038ac 	jal	9d00e2b0 <__muldf3>
9d011d2c:	2630fc01 	addiu	s0,s1,-1023
9d011d30:	2a040400 	slti	a0,s0,1024
9d011d34:	14800009 	bnez	a0,9d011d5c <scalbn+0x60>
9d011d38:	8e467730 	lw	a2,30512(s2)
9d011d3c:	8e477734 	lw	a3,30516(s2)
9d011d40:	00402025 	move	a0,v0
9d011d44:	00602825 	move	a1,v1
9d011d48:	0f4038ac 	jal	9d00e2b0 <__muldf3>
9d011d4c:	2630f802 	addiu	s0,s1,-2046
9d011d50:	2a050400 	slti	a1,s0,1024
9d011d54:	240403ff 	li	a0,1023
9d011d58:	0085800a 	movz	s0,a0,a1
9d011d5c:	261003ff 	addiu	s0,s0,1023
9d011d60:	00102500 	sll	a0,s0,0x14
9d011d64:	00002825 	move	a1,zero
9d011d68:	00a03025 	move	a2,a1
9d011d6c:	00803825 	move	a3,a0
9d011d70:	00602825 	move	a1,v1
9d011d74:	0f4038ac 	jal	9d00e2b0 <__muldf3>
9d011d78:	00402025 	move	a0,v0
9d011d7c:	8fbf001c 	lw	ra,28(sp)
9d011d80:	8fb20018 	lw	s2,24(sp)
9d011d84:	8fb10014 	lw	s1,20(sp)
9d011d88:	8fb00010 	lw	s0,16(sp)
9d011d8c:	03e00008 	jr	ra
9d011d90:	27bd0020 	addiu	sp,sp,32
9d011d94:	2a26fc02 	slti	a2,s1,-1022
9d011d98:	00801025 	move	v0,a0
9d011d9c:	00a01825 	move	v1,a1
9d011da0:	10c0ffee 	beqz	a2,9d011d5c <scalbn+0x60>
9d011da4:	02208025 	move	s0,s1
9d011da8:	3c129d00 	lui	s2,0x9d00
9d011dac:	8e467738 	lw	a2,30520(s2)
9d011db0:	8e47773c 	lw	a3,30524(s2)
9d011db4:	0f4038ac 	jal	9d00e2b0 <__muldf3>
9d011db8:	263003c9 	addiu	s0,s1,969
9d011dbc:	2a04fc02 	slti	a0,s0,-1022
9d011dc0:	1080ffe6 	beqz	a0,9d011d5c <scalbn+0x60>
9d011dc4:	8e467738 	lw	a2,30520(s2)
9d011dc8:	8e47773c 	lw	a3,30524(s2)
9d011dcc:	00402025 	move	a0,v0
9d011dd0:	00602825 	move	a1,v1
9d011dd4:	0f4038ac 	jal	9d00e2b0 <__muldf3>
9d011dd8:	26300792 	addiu	s0,s1,1938
9d011ddc:	2a05fc02 	slti	a1,s0,-1022
9d011de0:	2404fc02 	li	a0,-1022
9d011de4:	1000ffdd 	b	9d011d5c <scalbn+0x60>
9d011de8:	0085800b 	movn	s0,a0,a1

Disassembly of section .text.__pop_ptr:

9d011dec <__pop_ptr>:
9d011dec:	24020084 	li	v0,132
9d011df0:	50a20022 	beql	a1,v0,9d011e7c <__pop_ptr+0x90>
9d011df4:	8ce20000 	lw	v0,0(a3)
9d011df8:	28a20085 	slti	v0,a1,133
9d011dfc:	10400010 	beqz	v0,9d011e40 <__pop_ptr+0x54>
9d011e00:	24020081 	li	v0,129
9d011e04:	50a20008 	beql	a1,v0,9d011e28 <__pop_ptr+0x3c>
9d011e08:	8ce20000 	lw	v0,0(a3)
9d011e0c:	24020082 	li	v0,130
9d011e10:	50a20027 	beql	a1,v0,9d011eb0 <__pop_ptr+0xc4>
9d011e14:	8ce20000 	lw	v0,0(a3)
9d011e18:	24020080 	li	v0,128
9d011e1c:	14a20010 	bne	a1,v0,9d011e60 <__pop_ptr+0x74>
9d011e20:	00000000 	nop
9d011e24:	8ce20000 	lw	v0,0(a3)
9d011e28:	24430004 	addiu	v1,v0,4
9d011e2c:	ace30000 	sw	v1,0(a3)
9d011e30:	8c420000 	lw	v0,0(v0)
9d011e34:	ac820000 	sw	v0,0(a0)
9d011e38:	10000015 	b	9d011e90 <__pop_ptr+0xa4>
9d011e3c:	ac460000 	sw	a2,0(v0)
9d011e40:	24020090 	li	v0,144
9d011e44:	50a2001a 	beql	a1,v0,9d011eb0 <__pop_ptr+0xc4>
9d011e48:	8ce20000 	lw	v0,0(a3)
9d011e4c:	28a20091 	slti	v0,a1,145
9d011e50:	10400005 	beqz	v0,9d011e68 <__pop_ptr+0x7c>
9d011e54:	24020088 	li	v0,136
9d011e58:	50a2000f 	beql	a1,v0,9d011e98 <__pop_ptr+0xac>
9d011e5c:	8ce20000 	lw	v0,0(a3)
9d011e60:	03e00008 	jr	ra
9d011e64:	00001025 	move	v0,zero
9d011e68:	240200a0 	li	v0,160
9d011e6c:	50a2ffee 	beql	a1,v0,9d011e28 <__pop_ptr+0x3c>
9d011e70:	8ce20000 	lw	v0,0(a3)
9d011e74:	1000ffe9 	b	9d011e1c <__pop_ptr+0x30>
9d011e78:	240200c0 	li	v0,192
9d011e7c:	24430004 	addiu	v1,v0,4
9d011e80:	ace30000 	sw	v1,0(a3)
9d011e84:	8c420000 	lw	v0,0(v0)
9d011e88:	ac820000 	sw	v0,0(a0)
9d011e8c:	a4460000 	sh	a2,0(v0)
9d011e90:	03e00008 	jr	ra
9d011e94:	24020001 	li	v0,1
9d011e98:	24430004 	addiu	v1,v0,4
9d011e9c:	ace30000 	sw	v1,0(a3)
9d011ea0:	8c420000 	lw	v0,0(v0)
9d011ea4:	ac820000 	sw	v0,0(a0)
9d011ea8:	1000fff9 	b	9d011e90 <__pop_ptr+0xa4>
9d011eac:	a0460000 	sb	a2,0(v0)
9d011eb0:	24430004 	addiu	v1,v0,4
9d011eb4:	ace30000 	sw	v1,0(a3)
9d011eb8:	8c420000 	lw	v0,0(v0)
9d011ebc:	ac820000 	sw	v0,0(a0)
9d011ec0:	ac460000 	sw	a2,0(v0)
9d011ec4:	000637c3 	sra	a2,a2,0x1f
9d011ec8:	1000fff1 	b	9d011e90 <__pop_ptr+0xa4>
9d011ecc:	ac460004 	sw	a2,4(v0)

Disassembly of section .text.general_exception:

9d011ed0 <_general_exception_context>:
9d011ed0:	27bdffa8 	addiu	sp,sp,-88
9d011ed4:	afa10004 	sw	at,4(sp)
9d011ed8:	afa20008 	sw	v0,8(sp)
9d011edc:	afa3000c 	sw	v1,12(sp)
9d011ee0:	afa40010 	sw	a0,16(sp)
9d011ee4:	afa50014 	sw	a1,20(sp)
9d011ee8:	afa60018 	sw	a2,24(sp)
9d011eec:	afa7001c 	sw	a3,28(sp)
9d011ef0:	afa80020 	sw	t0,32(sp)
9d011ef4:	afa90024 	sw	t1,36(sp)
9d011ef8:	afaa0028 	sw	t2,40(sp)
9d011efc:	afab002c 	sw	t3,44(sp)
9d011f00:	afac0030 	sw	t4,48(sp)
9d011f04:	afad0034 	sw	t5,52(sp)
9d011f08:	afae0038 	sw	t6,56(sp)
9d011f0c:	afaf003c 	sw	t7,60(sp)
9d011f10:	afb80040 	sw	t8,64(sp)
9d011f14:	afb90044 	sw	t9,68(sp)
9d011f18:	afbf0048 	sw	ra,72(sp)
9d011f1c:	00004012 	mflo	t0
9d011f20:	afa8004c 	sw	t0,76(sp)
9d011f24:	00004010 	mfhi	t0
9d011f28:	afa80050 	sw	t0,80(sp)
9d011f2c:	3c1a9d01 	lui	k0,0x9d01
9d011f30:	275a3e10 	addiu	k0,k0,15888
9d011f34:	00000000 	nop
9d011f38:	40046800 	mfc0	a0,c0_cause
9d011f3c:	40056000 	mfc0	a1,c0_status
9d011f40:	0340f809 	jalr	k0
9d011f44:	00000000 	nop
9d011f48:	8fa80050 	lw	t0,80(sp)
9d011f4c:	01000011 	mthi	t0
9d011f50:	8fa8004c 	lw	t0,76(sp)
9d011f54:	01000013 	mtlo	t0
9d011f58:	8fa10004 	lw	at,4(sp)
9d011f5c:	8fa20008 	lw	v0,8(sp)
9d011f60:	8fa3000c 	lw	v1,12(sp)
9d011f64:	8fa40010 	lw	a0,16(sp)
9d011f68:	8fa50014 	lw	a1,20(sp)
9d011f6c:	8fa60018 	lw	a2,24(sp)
9d011f70:	8fa7001c 	lw	a3,28(sp)
9d011f74:	8fa80020 	lw	t0,32(sp)
9d011f78:	8fa90024 	lw	t1,36(sp)
9d011f7c:	8faa0028 	lw	t2,40(sp)
9d011f80:	8fab002c 	lw	t3,44(sp)
9d011f84:	8fac0030 	lw	t4,48(sp)
9d011f88:	8fad0034 	lw	t5,52(sp)
9d011f8c:	8fae0038 	lw	t6,56(sp)
9d011f90:	8faf003c 	lw	t7,60(sp)
9d011f94:	8fb80040 	lw	t8,64(sp)
9d011f98:	8fb90044 	lw	t9,68(sp)
9d011f9c:	8fbf0048 	lw	ra,72(sp)
9d011fa0:	27bd0058 	addiu	sp,sp,88
9d011fa4:	000000c0 	ehb
9d011fa8:	42000018 	eret

Disassembly of section .text.__stdio_read:

9d011fac <__stdio_read>:
9d011fac:	8c83000c 	lw	v1,12(a0)
9d011fb0:	27bdffd0 	addiu	sp,sp,-48
9d011fb4:	afb00020 	sw	s0,32(sp)
9d011fb8:	0003102b 	sltu	v0,zero,v1
9d011fbc:	00c21023 	subu	v0,a2,v0
9d011fc0:	00808025 	move	s0,a0
9d011fc4:	afa20014 	sw	v0,20(sp)
9d011fc8:	8c820008 	lw	v0,8(a0)
9d011fcc:	8c840000 	lw	a0,0(a0)
9d011fd0:	afb20028 	sw	s2,40(sp)
9d011fd4:	afb10024 	sw	s1,36(sp)
9d011fd8:	00a09025 	move	s2,a1
9d011fdc:	00c08825 	move	s1,a2
9d011fe0:	afa50010 	sw	a1,16(sp)
9d011fe4:	24060002 	li	a2,2
9d011fe8:	27a50010 	addiu	a1,sp,16
9d011fec:	afbf002c 	sw	ra,44(sp)
9d011ff0:	afa20018 	sw	v0,24(sp)
9d011ff4:	0f404cda 	jal	9d013368 <readv>
9d011ff8:	afa3001c 	sw	v1,28(sp)
9d011ffc:	1c400007 	bgtz	v0,9d01201c <__stdio_read+0x70>
9d012000:	30430018 	andi	v1,v0,0x18
9d012004:	38640008 	xori	a0,v1,0x8
9d012008:	8e030004 	lw	v1,4(s0)
9d01200c:	00641825 	or	v1,v1,a0
9d012010:	ae030004 	sw	v1,4(s0)
9d012014:	10000011 	b	9d01205c <__stdio_read+0xb0>
9d012018:	00408825 	move	s1,v0
9d01201c:	8fa40014 	lw	a0,20(sp)
9d012020:	0082182b 	sltu	v1,a0,v0
9d012024:	5060000d 	beqzl	v1,9d01205c <__stdio_read+0xb0>
9d012028:	00408825 	move	s1,v0
9d01202c:	8e030008 	lw	v1,8(s0)
9d012030:	00441023 	subu	v0,v0,a0
9d012034:	00621021 	addu	v0,v1,v0
9d012038:	ae020040 	sw	v0,64(s0)
9d01203c:	8e02000c 	lw	v0,12(s0)
9d012040:	10400006 	beqz	v0,9d01205c <__stdio_read+0xb0>
9d012044:	ae03003c 	sw	v1,60(s0)
9d012048:	24620001 	addiu	v0,v1,1
9d01204c:	ae02003c 	sw	v0,60(s0)
9d012050:	90620000 	lbu	v0,0(v1)
9d012054:	02519021 	addu	s2,s2,s1
9d012058:	a242ffff 	sb	v0,-1(s2)
9d01205c:	8fbf002c 	lw	ra,44(sp)
9d012060:	02201025 	move	v0,s1
9d012064:	8fb20028 	lw	s2,40(sp)
9d012068:	8fb10024 	lw	s1,36(sp)
9d01206c:	8fb00020 	lw	s0,32(sp)
9d012070:	03e00008 	jr	ra
9d012074:	27bd0030 	addiu	sp,sp,48

Disassembly of section .text.__stdio_seek_rw:

9d012078 <__stdio_seek_rw>:
9d012078:	27bdffe0 	addiu	sp,sp,-32
9d01207c:	24020001 	li	v0,1
9d012080:	afb20018 	sw	s2,24(sp)
9d012084:	afb10014 	sw	s1,20(sp)
9d012088:	afb00010 	sw	s0,16(sp)
9d01208c:	afbf001c 	sw	ra,28(sp)
9d012090:	00808025 	move	s0,a0
9d012094:	00c09025 	move	s2,a2
9d012098:	14c20005 	bne	a2,v0,9d0120b0 <__stdio_seek_rw+0x38>
9d01209c:	00a08825 	move	s1,a1
9d0120a0:	8c820040 	lw	v0,64(a0)
9d0120a4:	8c83003c 	lw	v1,60(a0)
9d0120a8:	00431023 	subu	v0,v0,v1
9d0120ac:	00a28823 	subu	s1,a1,v0
9d0120b0:	8e020004 	lw	v0,4(s0)
9d0120b4:	30420020 	andi	v0,v0,0x20
9d0120b8:	1040000a 	beqz	v0,9d0120e4 <__stdio_seek_rw+0x6c>
9d0120bc:	02403025 	move	a2,s2
9d0120c0:	8e020014 	lw	v0,20(s0)
9d0120c4:	8e030018 	lw	v1,24(s0)
9d0120c8:	0062102b 	sltu	v0,v1,v0
9d0120cc:	5440000d 	bnezl	v0,9d012104 <__stdio_seek_rw+0x8c>
9d0120d0:	8e02002c 	lw	v0,44(s0)
9d0120d4:	ae000028 	sw	zero,40(s0)
9d0120d8:	ae000018 	sw	zero,24(s0)
9d0120dc:	ae000014 	sw	zero,20(s0)
9d0120e0:	02403025 	move	a2,s2
9d0120e4:	02202825 	move	a1,s1
9d0120e8:	0f404fba 	jal	9d013ee8 <__stdio_seek_unbuffered>
9d0120ec:	02002025 	move	a0,s0
9d0120f0:	0440000b 	bltz	v0,9d012120 <__stdio_seek_rw+0xa8>
9d0120f4:	00001025 	move	v0,zero
9d0120f8:	ae000040 	sw	zero,64(s0)
9d0120fc:	10000009 	b	9d012124 <__stdio_seek_rw+0xac>
9d012100:	ae00003c 	sw	zero,60(s0)
9d012104:	00003025 	move	a2,zero
9d012108:	00002825 	move	a1,zero
9d01210c:	0040f809 	jalr	v0
9d012110:	02002025 	move	a0,s0
9d012114:	8e020014 	lw	v0,20(s0)
9d012118:	5440ffef 	bnezl	v0,9d0120d8 <__stdio_seek_rw+0x60>
9d01211c:	ae000028 	sw	zero,40(s0)
9d012120:	2402ffff 	li	v0,-1
9d012124:	8fbf001c 	lw	ra,28(sp)
9d012128:	8fb20018 	lw	s2,24(sp)
9d01212c:	8fb10014 	lw	s1,20(sp)
9d012130:	8fb00010 	lw	s0,16(sp)
9d012134:	03e00008 	jr	ra
9d012138:	27bd0020 	addiu	sp,sp,32

Disassembly of section .text.__stdio_close_rw:

9d01213c <__stdio_close_rw>:
9d01213c:	14800003 	bnez	a0,9d01214c <__stdio_close_rw+0x10>
9d012140:	00001025 	move	v0,zero
9d012144:	03e00008 	jr	ra
9d012148:	00000000 	nop
9d01214c:	8c820004 	lw	v0,4(a0)
9d012150:	27bdffe0 	addiu	sp,sp,-32
9d012154:	afb10018 	sw	s1,24(sp)
9d012158:	30420020 	andi	v0,v0,0x20
9d01215c:	afb00014 	sw	s0,20(sp)
9d012160:	afbf001c 	sw	ra,28(sp)
9d012164:	00808025 	move	s0,a0
9d012168:	10400009 	beqz	v0,9d012190 <__stdio_close_rw+0x54>
9d01216c:	00a08825 	move	s1,a1
9d012170:	8c820014 	lw	v0,20(a0)
9d012174:	8c830018 	lw	v1,24(a0)
9d012178:	0062102b 	sltu	v0,v1,v0
9d01217c:	54400014 	bnezl	v0,9d0121d0 <__stdio_close_rw+0x94>
9d012180:	8c82002c 	lw	v0,44(a0)
9d012184:	ae000028 	sw	zero,40(s0)
9d012188:	ae000018 	sw	zero,24(s0)
9d01218c:	ae000014 	sw	zero,20(s0)
9d012190:	8e05003c 	lw	a1,60(s0)
9d012194:	8e020040 	lw	v0,64(s0)
9d012198:	00a2182b 	sltu	v1,a1,v0
9d01219c:	10600004 	beqz	v1,9d0121b0 <__stdio_close_rw+0x74>
9d0121a0:	24060001 	li	a2,1
9d0121a4:	8e040000 	lw	a0,0(s0)
9d0121a8:	0f405284 	jal	9d014a10 <lseek>
9d0121ac:	00a22823 	subu	a1,a1,v0
9d0121b0:	ae000040 	sw	zero,64(s0)
9d0121b4:	ae00003c 	sw	zero,60(s0)
9d0121b8:	1220000b 	beqz	s1,9d0121e8 <__stdio_close_rw+0xac>
9d0121bc:	00001025 	move	v0,zero
9d0121c0:	0f405286 	jal	9d014a18 <close>
9d0121c4:	8e040000 	lw	a0,0(s0)
9d0121c8:	10000008 	b	9d0121ec <__stdio_close_rw+0xb0>
9d0121cc:	8fbf001c 	lw	ra,28(sp)
9d0121d0:	00003025 	move	a2,zero
9d0121d4:	0040f809 	jalr	v0
9d0121d8:	00002825 	move	a1,zero
9d0121dc:	8e030014 	lw	v1,20(s0)
9d0121e0:	1460ffe8 	bnez	v1,9d012184 <__stdio_close_rw+0x48>
9d0121e4:	2402ffff 	li	v0,-1
9d0121e8:	8fbf001c 	lw	ra,28(sp)
9d0121ec:	8fb10018 	lw	s1,24(sp)
9d0121f0:	8fb00014 	lw	s0,20(sp)
9d0121f4:	03e00008 	jr	ra
9d0121f8:	27bd0020 	addiu	sp,sp,32

Disassembly of section .text.__fmt_u:

9d0121fc <__fmt_u>:
9d0121fc:	8ca20000 	lw	v0,0(a1)
9d012200:	8ca30004 	lw	v1,4(a1)
9d012204:	27bdffc0 	addiu	sp,sp,-64
9d012208:	afb30038 	sw	s3,56(sp)
9d01220c:	afb20034 	sw	s2,52(sp)
9d012210:	afb10030 	sw	s1,48(sp)
9d012214:	afb0002c 	sw	s0,44(sp)
9d012218:	afbf003c 	sw	ra,60(sp)
9d01221c:	00808825 	move	s1,a0
9d012220:	00a08025 	move	s0,a1
9d012224:	8cb20008 	lw	s2,8(a1)
9d012228:	afa20020 	sw	v0,32(sp)
9d01222c:	04600003 	bltz	v1,9d01223c <__fmt_u+0x40>
9d012230:	8cb3000c 	lw	s3,12(a1)
9d012234:	7c020844 	ins	v0,zero,0x1,0x1
9d012238:	afa20020 	sw	v0,32(sp)
9d01223c:	27a20020 	addiu	v0,sp,32
9d012240:	afa20018 	sw	v0,24(sp)
9d012244:	2402000a 	li	v0,10
9d012248:	afa20014 	sw	v0,20(sp)
9d01224c:	afb20010 	sw	s2,16(sp)
9d012250:	8cc70004 	lw	a3,4(a2)
9d012254:	8cc60000 	lw	a2,0(a2)
9d012258:	0f4043f2 	jal	9d010fc8 <__cvt_u>
9d01225c:	02002025 	move	a0,s0
9d012260:	8e060010 	lw	a2,16(s0)
9d012264:	8fa30020 	lw	v1,32(sp)
9d012268:	02403825 	move	a3,s2
9d01226c:	24c6ffff 	addiu	a2,a2,-1
9d012270:	afa30010 	sw	v1,16(sp)
9d012274:	00c23023 	subu	a2,a2,v0
9d012278:	02622821 	addu	a1,s3,v0
9d01227c:	0f404682 	jal	9d011a08 <__pad>
9d012280:	02202025 	move	a0,s1
9d012284:	8e230004 	lw	v1,4(s1)
9d012288:	30630100 	andi	v1,v1,0x100
9d01228c:	10600004 	beqz	v1,9d0122a0 <__fmt_u+0xa4>
9d012290:	8fbf003c 	lw	ra,60(sp)
9d012294:	8e030004 	lw	v1,4(s0)
9d012298:	0043202a 	slt	a0,v0,v1
9d01229c:	0064100b 	movn	v0,v1,a0
9d0122a0:	8fb30038 	lw	s3,56(sp)
9d0122a4:	8fb20034 	lw	s2,52(sp)
9d0122a8:	8fb10030 	lw	s1,48(sp)
9d0122ac:	8fb0002c 	lw	s0,44(sp)
9d0122b0:	03e00008 	jr	ra
9d0122b4:	27bd0040 	addiu	sp,sp,64

Disassembly of section .text.strtox:

9d0122b8 <strtox>:
9d0122b8:	27bdff78 	addiu	sp,sp,-136
9d0122bc:	afb20080 	sw	s2,128(sp)
9d0122c0:	afb1007c 	sw	s1,124(sp)
9d0122c4:	afb00078 	sw	s0,120(sp)
9d0122c8:	afbf0084 	sw	ra,132(sp)
9d0122cc:	00808025 	move	s0,a0
9d0122d0:	00a08825 	move	s1,a1
9d0122d4:	00c09025 	move	s2,a2
9d0122d8:	afa0001c 	sw	zero,28(sp)
9d0122dc:	afa40054 	sw	a0,84(sp)
9d0122e0:	afa40020 	sw	a0,32(sp)
9d0122e4:	04800004 	bltz	a0,9d0122f8 <strtox+0x40>
9d0122e8:	2402ffff 	li	v0,-1
9d0122ec:	3c027fff 	lui	v0,0x7fff
9d0122f0:	3442ffff 	ori	v0,v0,0xffff
9d0122f4:	00821021 	addu	v0,a0,v0
9d0122f8:	00002825 	move	a1,zero
9d0122fc:	27a40018 	addiu	a0,sp,24
9d012300:	0f405116 	jal	9d014458 <__shlim>
9d012304:	afa20058 	sw	v0,88(sp)
9d012308:	8fa20098 	lw	v0,152(sp)
9d01230c:	8fa3009c 	lw	v1,156(sp)
9d012310:	02402825 	move	a1,s2
9d012314:	27a40018 	addiu	a0,sp,24
9d012318:	afa20010 	sw	v0,16(sp)
9d01231c:	afa30014 	sw	v1,20(sp)
9d012320:	0f402a14 	jal	9d00a850 <__intscan>
9d012324:	24060001 	li	a2,1
9d012328:	00402025 	move	a0,v0
9d01232c:	12200008 	beqz	s1,9d012350 <strtox+0x98>
9d012330:	00602825 	move	a1,v1
9d012334:	8fa20058 	lw	v0,88(sp)
9d012338:	8fa30054 	lw	v1,84(sp)
9d01233c:	00621823 	subu	v1,v1,v0
9d012340:	8fa2006c 	lw	v0,108(sp)
9d012344:	00621821 	addu	v1,v1,v0
9d012348:	02038021 	addu	s0,s0,v1
9d01234c:	ae300000 	sw	s0,0(s1)
9d012350:	8fbf0084 	lw	ra,132(sp)
9d012354:	00801025 	move	v0,a0
9d012358:	00a01825 	move	v1,a1
9d01235c:	8fb20080 	lw	s2,128(sp)
9d012360:	8fb1007c 	lw	s1,124(sp)
9d012364:	8fb00078 	lw	s0,120(sp)
9d012368:	03e00008 	jr	ra
9d01236c:	27bd0088 	addiu	sp,sp,136

Disassembly of section .text.__shgetc:

9d012370 <__shgetc>:
9d012370:	8c820050 	lw	v0,80(a0)
9d012374:	27bdffe8 	addiu	sp,sp,-24
9d012378:	afb00010 	sw	s0,16(sp)
9d01237c:	afbf0014 	sw	ra,20(sp)
9d012380:	1040000b 	beqz	v0,9d0123b0 <__shgetc+0x40>
9d012384:	00808025 	move	s0,a0
9d012388:	8c830054 	lw	v1,84(a0)
9d01238c:	0062102a 	slt	v0,v1,v0
9d012390:	14400007 	bnez	v0,9d0123b0 <__shgetc+0x40>
9d012394:	00000000 	nop
9d012398:	ae00004c 	sw	zero,76(s0)
9d01239c:	2402ffff 	li	v0,-1
9d0123a0:	8fbf0014 	lw	ra,20(sp)
9d0123a4:	8fb00010 	lw	s0,16(sp)
9d0123a8:	03e00008 	jr	ra
9d0123ac:	27bd0018 	addiu	sp,sp,24
9d0123b0:	0f404f0f 	jal	9d013c3c <__uflow>
9d0123b4:	02002025 	move	a0,s0
9d0123b8:	0442fff8 	bltzl	v0,9d01239c <__shgetc+0x2c>
9d0123bc:	ae00004c 	sw	zero,76(s0)
9d0123c0:	8e030040 	lw	v1,64(s0)
9d0123c4:	8e040050 	lw	a0,80(s0)
9d0123c8:	8e05003c 	lw	a1,60(s0)
9d0123cc:	10800009 	beqz	a0,9d0123f4 <__shgetc+0x84>
9d0123d0:	00603025 	move	a2,v1
9d0123d4:	8e060054 	lw	a2,84(s0)
9d0123d8:	00653823 	subu	a3,v1,a1
9d0123dc:	00862023 	subu	a0,a0,a2
9d0123e0:	00e4382a 	slt	a3,a3,a0
9d0123e4:	14e00003 	bnez	a3,9d0123f4 <__shgetc+0x84>
9d0123e8:	00603025 	move	a2,v1
9d0123ec:	2484ffff 	addiu	a0,a0,-1
9d0123f0:	00a43021 	addu	a2,a1,a0
9d0123f4:	10600006 	beqz	v1,9d012410 <__shgetc+0xa0>
9d0123f8:	ae06004c 	sw	a2,76(s0)
9d0123fc:	8e040054 	lw	a0,84(s0)
9d012400:	00651823 	subu	v1,v1,a1
9d012404:	24630001 	addiu	v1,v1,1
9d012408:	00831821 	addu	v1,a0,v1
9d01240c:	ae030054 	sw	v1,84(s0)
9d012410:	90a3ffff 	lbu	v1,-1(a1)
9d012414:	5462ffe2 	bnel	v1,v0,9d0123a0 <__shgetc+0x30>
9d012418:	a0a2ffff 	sb	v0,-1(a1)
9d01241c:	1000ffe1 	b	9d0123a4 <__shgetc+0x34>
9d012420:	8fbf0014 	lw	ra,20(sp)

Disassembly of section .text.__skipws:

9d012424 <__skipws>:
9d012424:	27bdffd8 	addiu	sp,sp,-40
9d012428:	afb30020 	sw	s3,32(sp)
9d01242c:	afb2001c 	sw	s2,28(sp)
9d012430:	afb10018 	sw	s1,24(sp)
9d012434:	afb00014 	sw	s0,20(sp)
9d012438:	afbf0024 	sw	ra,36(sp)
9d01243c:	00808025 	move	s0,a0
9d012440:	00008825 	move	s1,zero
9d012444:	2412ffff 	li	s2,-1
9d012448:	24130020 	li	s3,32
9d01244c:	8e02003c 	lw	v0,60(s0)
9d012450:	8e03004c 	lw	v1,76(s0)
9d012454:	0043182b 	sltu	v1,v0,v1
9d012458:	10600018 	beqz	v1,9d0124bc <__skipws+0x98>
9d01245c:	24430001 	addiu	v1,v0,1
9d012460:	ae03003c 	sw	v1,60(s0)
9d012464:	90420000 	lbu	v0,0(v0)
9d012468:	10530012 	beq	v0,s3,9d0124b4 <__skipws+0x90>
9d01246c:	2442fff7 	addiu	v0,v0,-9
9d012470:	2c420005 	sltiu	v0,v0,5
9d012474:	5440fff5 	bnezl	v0,9d01244c <__skipws+0x28>
9d012478:	26310001 	addiu	s1,s1,1
9d01247c:	8e02004c 	lw	v0,76(s0)
9d012480:	10400005 	beqz	v0,9d012498 <__skipws+0x74>
9d012484:	8fbf0024 	lw	ra,36(sp)
9d012488:	8e02003c 	lw	v0,60(s0)
9d01248c:	2442ffff 	addiu	v0,v0,-1
9d012490:	ae02003c 	sw	v0,60(s0)
9d012494:	8fbf0024 	lw	ra,36(sp)
9d012498:	02201025 	move	v0,s1
9d01249c:	8fb30020 	lw	s3,32(sp)
9d0124a0:	8fb2001c 	lw	s2,28(sp)
9d0124a4:	8fb10018 	lw	s1,24(sp)
9d0124a8:	8fb00014 	lw	s0,20(sp)
9d0124ac:	03e00008 	jr	ra
9d0124b0:	27bd0028 	addiu	sp,sp,40
9d0124b4:	1000ffe5 	b	9d01244c <__skipws+0x28>
9d0124b8:	26310001 	addiu	s1,s1,1
9d0124bc:	0f4048dc 	jal	9d012370 <__shgetc>
9d0124c0:	02002025 	move	a0,s0
9d0124c4:	1452ffe8 	bne	v0,s2,9d012468 <__skipws+0x44>
9d0124c8:	8fbf0024 	lw	ra,36(sp)
9d0124cc:	1000fff3 	b	9d01249c <__skipws+0x78>
9d0124d0:	02201025 	move	v0,s1

Disassembly of section .text._sbrk:

9d0124d4 <_sbrk>:
9d0124d4:	27bdffe0 	addiu	sp,sp,-32
9d0124d8:	afb00014 	sw	s0,20(sp)
9d0124dc:	3c10a000 	lui	s0,0xa000
9d0124e0:	8e021070 	lw	v0,4208(s0)
9d0124e4:	afb10018 	sw	s1,24(sp)
9d0124e8:	afbf001c 	sw	ra,28(sp)
9d0124ec:	1440000f 	bnez	v0,9d01252c <_sbrk+0x58>
9d0124f0:	00808825 	move	s1,a0
9d0124f4:	0f4042f5 	jal	9d010bd4 <_sbrk_init>
9d0124f8:	00000000 	nop
9d0124fc:	8e021070 	lw	v0,4208(s0)
9d012500:	1440000b 	bnez	v0,9d012530 <_sbrk+0x5c>
9d012504:	00000000 	nop
9d012508:	3c02a000 	lui	v0,0xa000
9d01250c:	2403000c 	li	v1,12
9d012510:	ac43107c 	sw	v1,4220(v0)
9d012514:	2402ffff 	li	v0,-1
9d012518:	8fbf001c 	lw	ra,28(sp)
9d01251c:	8fb10018 	lw	s1,24(sp)
9d012520:	8fb00014 	lw	s0,20(sp)
9d012524:	03e00008 	jr	ra
9d012528:	27bd0020 	addiu	sp,sp,32
9d01252c:	8e021070 	lw	v0,4208(s0)
9d012530:	1a20000a 	blez	s1,9d01255c <_sbrk+0x88>
9d012534:	00511821 	addu	v1,v0,s1
9d012538:	0062202b 	sltu	a0,v1,v0
9d01253c:	1480fff2 	bnez	a0,9d012508 <_sbrk+0x34>
9d012540:	3c04a000 	lui	a0,0xa000
9d012544:	8c841074 	lw	a0,4212(a0)
9d012548:	0083202b 	sltu	a0,a0,v1
9d01254c:	5480ffef 	bnezl	a0,9d01250c <_sbrk+0x38>
9d012550:	3c02a000 	lui	v0,0xa000
9d012554:	1000fff0 	b	9d012518 <_sbrk+0x44>
9d012558:	ae031070 	sw	v1,4208(s0)
9d01255c:	0043202b 	sltu	a0,v0,v1
9d012560:	14800005 	bnez	a0,9d012578 <_sbrk+0xa4>
9d012564:	3c04a000 	lui	a0,0xa000
9d012568:	8c841078 	lw	a0,4216(a0)
9d01256c:	0064202b 	sltu	a0,v1,a0
9d012570:	5080ffe9 	beqzl	a0,9d012518 <_sbrk+0x44>
9d012574:	ae031070 	sw	v1,4208(s0)
9d012578:	3c02a000 	lui	v0,0xa000
9d01257c:	1000ffe4 	b	9d012510 <_sbrk+0x3c>
9d012580:	24030016 	li	v1,22

Disassembly of section .text.unbin:

9d012584 <unbin>:
9d012584:	27bdffe0 	addiu	sp,sp,-32
9d012588:	afb20018 	sw	s2,24(sp)
9d01258c:	afb10014 	sw	s1,20(sp)
9d012590:	8c92000c 	lw	s2,12(a0)
9d012594:	8c910008 	lw	s1,8(a0)
9d012598:	afb00010 	sw	s0,16(sp)
9d01259c:	afbf001c 	sw	ra,28(sp)
9d0125a0:	16510013 	bne	s2,s1,9d0125f0 <unbin+0x6c>
9d0125a4:	00808025 	move	s0,a0
9d0125a8:	00a03025 	move	a2,a1
9d0125ac:	24040001 	li	a0,1
9d0125b0:	0f405078 	jal	9d0141e0 <__ashldi3>
9d0125b4:	00002825 	move	a1,zero
9d0125b8:	00031827 	nor	v1,zero,v1
9d0125bc:	10400005 	beqz	v0,9d0125d4 <unbin+0x50>
9d0125c0:	00022827 	nor	a1,zero,v0
9d0125c4:	3c04a000 	lui	a0,0xa000
9d0125c8:	8c820e00 	lw	v0,3584(a0)
9d0125cc:	00451024 	and	v0,v0,a1
9d0125d0:	ac820e00 	sw	v0,3584(a0)
9d0125d4:	2402ffff 	li	v0,-1
9d0125d8:	10620005 	beq	v1,v0,9d0125f0 <unbin+0x6c>
9d0125dc:	3c02a000 	lui	v0,0xa000
9d0125e0:	24420e00 	addiu	v0,v0,3584
9d0125e4:	8c440004 	lw	a0,4(v0)
9d0125e8:	00641824 	and	v1,v1,a0
9d0125ec:	ac430004 	sw	v1,4(v0)
9d0125f0:	8e020004 	lw	v0,4(s0)
9d0125f4:	ae510008 	sw	s1,8(s2)
9d0125f8:	ae32000c 	sw	s2,12(s1)
9d0125fc:	34430001 	ori	v1,v0,0x1
9d012600:	7c020004 	ins	v0,zero,0x0,0x1
9d012604:	ae030004 	sw	v1,4(s0)
9d012608:	02028021 	addu	s0,s0,v0
9d01260c:	8e020000 	lw	v0,0(s0)
9d012610:	8fbf001c 	lw	ra,28(sp)
9d012614:	8fb20018 	lw	s2,24(sp)
9d012618:	34420001 	ori	v0,v0,0x1
9d01261c:	ae020000 	sw	v0,0(s0)
9d012620:	8fb10014 	lw	s1,20(sp)
9d012624:	8fb00010 	lw	s0,16(sp)
9d012628:	03e00008 	jr	ra
9d01262c:	27bd0020 	addiu	sp,sp,32

Disassembly of section .text.fptodp:

9d012630 <__extendsfdf2>:
9d012630:	00043dc2 30e700ff 3c018000 00813024     .=.....0...<$0..
9d012640:	24e9ffff 2d2100fe 1020000d 00000000     ...$..!-.. .....

9d012650 <Glab1>:
9d012650:	24e70380 	addiu	a3,a3,896
9d012654:	00044a40 	sll	t1,a0,0x9
9d012658:	00094b02 	srl	t1,t1,0xc
9d01265c:	00c93025 	or	a2,a2,t1
9d012660:	00042f40 	sll	a1,a0,0x1d

9d012664 <Gret>:
9d012664:	00074d00 	sll	t1,a3,0x14
9d012668:	00c93025 	or	a2,a2,t1
9d01266c:	00051025 	or	v0,zero,a1
9d012670:	00061825 	or	v1,zero,a2

9d012674 <G999>:
9d012674:	03e00008 	jr	ra
9d012678:	00000000 	nop
9d01267c:	00000000 	nop

9d012680 <Gspec>:
9d012680:	24050000 	li	a1,0
9d012684:	00842021 	addu	a0,a0,a0
9d012688:	1080fff6 	beqz	a0,9d012664 <Gret>
9d01268c:	00000000 	nop
9d012690:	14e00009 	bnez	a3,9d0126b8 <i42>
9d012694:	00000000 	nop

9d012698 <b43>:
9d012698:	24e7ffff 	addiu	a3,a3,-1
9d01269c:	00842021 	addu	a0,a0,a0
9d0126a0:	3c010080 	lui	at,0x80
9d0126a4:	0081082b 	sltu	at,a0,at
9d0126a8:	1420fffb 	bnez	at,9d012698 <b43>
9d0126ac:	00000000 	nop
9d0126b0:	1000ffe7 	b	9d012650 <Glab1>
9d0126b4:	00000000 	nop

9d0126b8 <i42>:
9d0126b8:	240707ff 	li	a3,2047
9d0126bc:	3c01ff00 	lui	at,0xff00
9d0126c0:	34210001 	ori	at,at,0x1
9d0126c4:	0081082b 	sltu	at,a0,at
9d0126c8:	1420ffe6 	bnez	at,9d012664 <Gret>
9d0126cc:	00000000 	nop
9d0126d0:	1000ffe4 	b	9d012664 <Gret>
9d0126d4:	3c06fff8 	lui	a2,0xfff8
9d0126d8:	00000000 	nop

Disassembly of section .text.__push_float:

9d0126dc <__push_float>:
9d0126dc:	24020081 	li	v0,129
9d0126e0:	50a20012 	beql	a1,v0,9d01272c <__push_float+0x50>
9d0126e4:	8cc20000 	lw	v0,0(a2)
9d0126e8:	24020083 	li	v0,131
9d0126ec:	50a20006 	beql	a1,v0,9d012708 <__push_float+0x2c>
9d0126f0:	8cc20000 	lw	v0,0(a2)
9d0126f4:	24020080 	li	v0,128
9d0126f8:	10a20012 	beq	a1,v0,9d012744 <__push_float+0x68>
9d0126fc:	00001025 	move	v0,zero
9d012700:	03e00008 	jr	ra
9d012704:	00000000 	nop
9d012708:	24430004 	addiu	v1,v0,4
9d01270c:	acc30000 	sw	v1,0(a2)
9d012710:	8c850004 	lw	a1,4(a0)
9d012714:	8c420000 	lw	v0,0(v0)
9d012718:	8c840000 	lw	a0,0(a0)
9d01271c:	ac440000 	sw	a0,0(v0)
9d012720:	ac450004 	sw	a1,4(v0)
9d012724:	03e00008 	jr	ra
9d012728:	24020001 	li	v0,1
9d01272c:	24430004 	addiu	v1,v0,4
9d012730:	acc30000 	sw	v1,0(a2)
9d012734:	8c850004 	lw	a1,4(a0)
9d012738:	8c420000 	lw	v0,0(v0)
9d01273c:	1000fff7 	b	9d01271c <__push_float+0x40>
9d012740:	8c840000 	lw	a0,0(a0)
9d012744:	8cc20000 	lw	v0,0(a2)
9d012748:	8c850004 	lw	a1,4(a0)
9d01274c:	8c840000 	lw	a0,0(a0)
9d012750:	24430004 	addiu	v1,v0,4
9d012754:	27bdffe8 	addiu	sp,sp,-24
9d012758:	acc30000 	sw	v1,0(a2)
9d01275c:	afb00010 	sw	s0,16(sp)
9d012760:	afbf0014 	sw	ra,20(sp)
9d012764:	0f4046c2 	jal	9d011b08 <__truncdfsf2>
9d012768:	8c500000 	lw	s0,0(v0)
9d01276c:	8fbf0014 	lw	ra,20(sp)
9d012770:	ae020000 	sw	v0,0(s0)
9d012774:	24020001 	li	v0,1
9d012778:	8fb00010 	lw	s0,16(sp)
9d01277c:	03e00008 	jr	ra
9d012780:	27bd0018 	addiu	sp,sp,24

Disassembly of section .text.normalize:

9d012784 <normalize>:
9d012784:	27bdffe0 	addiu	sp,sp,-32
9d012788:	afb10018 	sw	s1,24(sp)
9d01278c:	00078d02 	srl	s1,a3,0x14
9d012790:	322507ff 	andi	a1,s1,0x7ff
9d012794:	afb00014 	sw	s0,20(sp)
9d012798:	afbf001c 	sw	ra,28(sp)
9d01279c:	00808025 	move	s0,a0
9d0127a0:	00c01025 	move	v0,a2
9d0127a4:	14a0000e 	bnez	a1,9d0127e0 <normalize+0x5c>
9d0127a8:	00e02025 	move	a0,a3
9d0127ac:	3c029d00 	lui	v0,0x9d00
9d0127b0:	00c04025 	move	t0,a2
9d0127b4:	00e01825 	move	v1,a3
9d0127b8:	8c467710 	lw	a2,30480(v0)
9d0127bc:	8c477714 	lw	a3,30484(v0)
9d0127c0:	01002025 	move	a0,t0
9d0127c4:	0f4038ac 	jal	9d00e2b0 <__muldf3>
9d0127c8:	00602825 	move	a1,v1
9d0127cc:	00602025 	move	a0,v1
9d0127d0:	7c635500 	ext	v1,v1,0x14,0xb
9d0127d4:	10600002 	beqz	v1,9d0127e0 <normalize+0x5c>
9d0127d8:	24050800 	li	a1,2048
9d0127dc:	2465ffc1 	addiu	a1,v1,-63
9d0127e0:	000237c2 	srl	a2,v0,0x1f
9d0127e4:	00041840 	sll	v1,a0,0x1
9d0127e8:	00021040 	sll	v0,v0,0x1
9d0127ec:	00c31825 	or	v1,a2,v1
9d0127f0:	8fbf001c 	lw	ra,28(sp)
9d0127f4:	ae020000 	sw	v0,0(s0)
9d0127f8:	7c63a000 	ext	v1,v1,0x0,0x15
9d0127fc:	3c020020 	lui	v0,0x20
9d012800:	00431825 	or	v1,v0,v1
9d012804:	32310800 	andi	s1,s1,0x800
9d012808:	24a5fbcc 	addiu	a1,a1,-1076
9d01280c:	ae11000c 	sw	s1,12(s0)
9d012810:	02001025 	move	v0,s0
9d012814:	ae030004 	sw	v1,4(s0)
9d012818:	ae050008 	sw	a1,8(s0)
9d01281c:	8fb10018 	lw	s1,24(sp)
9d012820:	8fb00014 	lw	s0,20(sp)
9d012824:	03e00008 	jr	ra
9d012828:	27bd0020 	addiu	sp,sp,32

Disassembly of section .text.__fmt_s:

9d01282c <__fmt_s>:
9d01282c:	3c036c75 	lui	v1,0x6c75
9d012830:	27bdffc8 	addiu	sp,sp,-56
9d012834:	24636e28 	addiu	v1,v1,28200
9d012838:	afa30018 	sw	v1,24(sp)
9d01283c:	2403296c 	li	v1,10604
9d012840:	afb20028 	sw	s2,40(sp)
9d012844:	afb00020 	sw	s0,32(sp)
9d012848:	afbf0034 	sw	ra,52(sp)
9d01284c:	afb40030 	sw	s4,48(sp)
9d012850:	afb3002c 	sw	s3,44(sp)
9d012854:	afb10024 	sw	s1,36(sp)
9d012858:	00809025 	move	s2,a0
9d01285c:	00e01025 	move	v0,a3
9d012860:	a7a3001c 	sh	v1,28(sp)
9d012864:	a3a0001e 	sb	zero,30(sp)
9d012868:	10c00002 	beqz	a2,9d012874 <__fmt_s+0x48>
9d01286c:	27b00018 	addiu	s0,sp,24
9d012870:	00c08025 	move	s0,a2
9d012874:	8cb10004 	lw	s1,4(a1)
9d012878:	8cb30008 	lw	s3,8(a1)
9d01287c:	14400003 	bnez	v0,9d01288c <__fmt_s+0x60>
9d012880:	8cb40000 	lw	s4,0(a1)
9d012884:	0f40524c 	jal	9d014930 <strlen>
9d012888:	02002025 	move	a0,s0
9d01288c:	06200002 	bltz	s1,9d012898 <__fmt_s+0x6c>
9d012890:	0222182b 	sltu	v1,s1,v0
9d012894:	0223100b 	movn	v0,s1,v1
9d012898:	afb40010 	sw	s4,16(sp)
9d01289c:	02603825 	move	a3,s3
9d0128a0:	02002825 	move	a1,s0
9d0128a4:	02402025 	move	a0,s2
9d0128a8:	0f404682 	jal	9d011a08 <__pad>
9d0128ac:	00403025 	move	a2,v0
9d0128b0:	8fbf0034 	lw	ra,52(sp)
9d0128b4:	8fb40030 	lw	s4,48(sp)
9d0128b8:	8fb3002c 	lw	s3,44(sp)
9d0128bc:	8fb20028 	lw	s2,40(sp)
9d0128c0:	8fb10024 	lw	s1,36(sp)
9d0128c4:	8fb00020 	lw	s0,32(sp)
9d0128c8:	03e00008 	jr	ra
9d0128cc:	27bd0038 	addiu	sp,sp,56

Disassembly of section .text.strtox:

9d0128d0 <strtox>:
9d0128d0:	27bdff80 	addiu	sp,sp,-128
9d0128d4:	afb20078 	sw	s2,120(sp)
9d0128d8:	afb10074 	sw	s1,116(sp)
9d0128dc:	afb00070 	sw	s0,112(sp)
9d0128e0:	00c09025 	move	s2,a2
9d0128e4:	00808025 	move	s0,a0
9d0128e8:	24060060 	li	a2,96
9d0128ec:	27a40010 	addiu	a0,sp,16
9d0128f0:	00a08825 	move	s1,a1
9d0128f4:	afbf007c 	sw	ra,124(sp)
9d0128f8:	0f405189 	jal	9d014624 <memset>
9d0128fc:	00002825 	move	a1,zero
9d012900:	2402ffff 	li	v0,-1
9d012904:	00002825 	move	a1,zero
9d012908:	27a40010 	addiu	a0,sp,16
9d01290c:	afa20050 	sw	v0,80(sp)
9d012910:	afb00018 	sw	s0,24(sp)
9d012914:	0f405116 	jal	9d014458 <__shlim>
9d012918:	afb0004c 	sw	s0,76(sp)
9d01291c:	02402825 	move	a1,s2
9d012920:	27a40010 	addiu	a0,sp,16
9d012924:	0f402132 	jal	9d0084c8 <__floatscan>
9d012928:	24060001 	li	a2,1
9d01292c:	00402025 	move	a0,v0
9d012930:	12200008 	beqz	s1,9d012954 <strtox+0x84>
9d012934:	00602825 	move	a1,v1
9d012938:	8fa20050 	lw	v0,80(sp)
9d01293c:	8fa3004c 	lw	v1,76(sp)
9d012940:	00621823 	subu	v1,v1,v0
9d012944:	8fa20064 	lw	v0,100(sp)
9d012948:	00621821 	addu	v1,v1,v0
9d01294c:	02038021 	addu	s0,s0,v1
9d012950:	ae300000 	sw	s0,0(s1)
9d012954:	8fbf007c 	lw	ra,124(sp)
9d012958:	00801025 	move	v0,a0
9d01295c:	00a01825 	move	v1,a1
9d012960:	8fb20078 	lw	s2,120(sp)
9d012964:	8fb10074 	lw	s1,116(sp)
9d012968:	8fb00070 	lw	s0,112(sp)
9d01296c:	03e00008 	jr	ra
9d012970:	27bd0080 	addiu	sp,sp,128

Disassembly of section .text.__string_read:

9d012974 <__string_read>:
9d012974:	27bdffd0 	addiu	sp,sp,-48
9d012978:	afb00014 	sw	s0,20(sp)
9d01297c:	8c900038 	lw	s0,56(a0)
9d012980:	afb2001c 	sw	s2,28(sp)
9d012984:	24d20100 	addiu	s2,a2,256
9d012988:	afb50028 	sw	s5,40(sp)
9d01298c:	afb40024 	sw	s4,36(sp)
9d012990:	afb30020 	sw	s3,32(sp)
9d012994:	00a0a825 	move	s5,a1
9d012998:	00809825 	move	s3,a0
9d01299c:	00c0a025 	move	s4,a2
9d0129a0:	00002825 	move	a1,zero
9d0129a4:	02403025 	move	a2,s2
9d0129a8:	02002025 	move	a0,s0
9d0129ac:	afbf002c 	sw	ra,44(sp)
9d0129b0:	0f4050bc 	jal	9d0142f0 <memchr>
9d0129b4:	afb10018 	sw	s1,24(sp)
9d0129b8:	54400001 	bnezl	v0,9d0129c0 <__string_read+0x4c>
9d0129bc:	00509023 	subu	s2,v0,s0
9d0129c0:	0292882b 	sltu	s1,s4,s2
9d0129c4:	0251a00a 	movz	s4,s2,s1
9d0129c8:	02803025 	move	a2,s4
9d0129cc:	02002825 	move	a1,s0
9d0129d0:	0f405100 	jal	9d014400 <memcpy>
9d0129d4:	02a02025 	move	a0,s5
9d0129d8:	8fbf002c 	lw	ra,44(sp)
9d0129dc:	02141021 	addu	v0,s0,s4
9d0129e0:	02128021 	addu	s0,s0,s2
9d0129e4:	ae62003c 	sw	v0,60(s3)
9d0129e8:	ae700040 	sw	s0,64(s3)
9d0129ec:	ae700038 	sw	s0,56(s3)
9d0129f0:	02801025 	move	v0,s4
9d0129f4:	8fb50028 	lw	s5,40(sp)
9d0129f8:	8fb40024 	lw	s4,36(sp)
9d0129fc:	8fb30020 	lw	s3,32(sp)
9d012a00:	8fb2001c 	lw	s2,28(sp)
9d012a04:	8fb10018 	lw	s1,24(sp)
9d012a08:	8fb00014 	lw	s0,20(sp)
9d012a0c:	03e00008 	jr	ra
9d012a10:	27bd0030 	addiu	sp,sp,48

Disassembly of section .text.__stdio_close:

9d012a14 <__stdio_close>:
9d012a14:	14800003 	bnez	a0,9d012a24 <__stdio_close+0x10>
9d012a18:	00001025 	move	v0,zero
9d012a1c:	03e00008 	jr	ra
9d012a20:	00000000 	nop
9d012a24:	8c820004 	lw	v0,4(a0)
9d012a28:	27bdffe0 	addiu	sp,sp,-32
9d012a2c:	afb10018 	sw	s1,24(sp)
9d012a30:	30420020 	andi	v0,v0,0x20
9d012a34:	afb00014 	sw	s0,20(sp)
9d012a38:	afbf001c 	sw	ra,28(sp)
9d012a3c:	00808025 	move	s0,a0
9d012a40:	1440000b 	bnez	v0,9d012a70 <__stdio_close+0x5c>
9d012a44:	00a08825 	move	s1,a1
9d012a48:	ae000028 	sw	zero,40(s0)
9d012a4c:	ae000018 	sw	zero,24(s0)
9d012a50:	16200014 	bnez	s1,9d012aa4 <__stdio_close+0x90>
9d012a54:	ae000014 	sw	zero,20(s0)
9d012a58:	00001025 	move	v0,zero
9d012a5c:	8fbf001c 	lw	ra,28(sp)
9d012a60:	8fb10018 	lw	s1,24(sp)
9d012a64:	8fb00014 	lw	s0,20(sp)
9d012a68:	03e00008 	jr	ra
9d012a6c:	27bd0020 	addiu	sp,sp,32
9d012a70:	8c820014 	lw	v0,20(a0)
9d012a74:	8c830018 	lw	v1,24(a0)
9d012a78:	0062102b 	sltu	v0,v1,v0
9d012a7c:	1040fff2 	beqz	v0,9d012a48 <__stdio_close+0x34>
9d012a80:	00003025 	move	a2,zero
9d012a84:	8c82002c 	lw	v0,44(a0)
9d012a88:	0040f809 	jalr	v0
9d012a8c:	00002825 	move	a1,zero
9d012a90:	8e030014 	lw	v1,20(s0)
9d012a94:	1060fff1 	beqz	v1,9d012a5c <__stdio_close+0x48>
9d012a98:	2402ffff 	li	v0,-1
9d012a9c:	1000ffeb 	b	9d012a4c <__stdio_close+0x38>
9d012aa0:	ae000028 	sw	zero,40(s0)
9d012aa4:	0f405286 	jal	9d014a18 <close>
9d012aa8:	8e040000 	lw	a0,0(s0)
9d012aac:	1000ffec 	b	9d012a60 <__stdio_close+0x4c>
9d012ab0:	8fbf001c 	lw	ra,28(sp)

Disassembly of section .text.fpcmp:

9d012ab4 <__eqsf2>:
9d012ab4:	2408fffe 00043040 00053840 00c74825     ...$@0..@8..%H..
9d012ac4:	1120001b 00000000 3c01ff00 34210001     .. ........<..!4
9d012ad4:	00c1082b 1020001a 00000000 3c01ff00     +..... ........<
9d012ae4:	34210001 00e1082b 10200015 00000000     ..!4+..... .....
9d012af4:	04810002 00063042 00063023              ....B0..#0..

9d012b00 <i48>:
9d012b00:	04a10002 	bgez	a1,9d012b0c <i49>
9d012b04:	00073842 	srl	a3,a3,0x1
9d012b08:	00073823 	negu	a3,a3

9d012b0c <i49>:
9d012b0c:	00c7082a 	slt	at,a2,a3
9d012b10:	10200003 	beqz	at,9d012b20 <i50>
9d012b14:	00000000 	nop
9d012b18:	10000007 	b	9d012b38 <J999>
9d012b1c:	2402ffff 	li	v0,-1

9d012b20 <i50>:
9d012b20:	00e6082a 	slt	at,a3,a2
9d012b24:	10200003 	beqz	at,9d012b34 <Jequ>
9d012b28:	00000000 	nop
9d012b2c:	10000002 	b	9d012b38 <J999>
9d012b30:	24020001 	li	v0,1

9d012b34 <Jequ>:
9d012b34:	24020000 	li	v0,0

9d012b38 <J999>:
9d012b38:	03e00008 	jr	ra
9d012b3c:	00000000 	nop
9d012b40:	00000000 	nop

9d012b44 <Jnan>:
9d012b44:	1000fffc 	b	9d012b38 <J999>
9d012b48:	00081025 	or	v0,zero,t0
9d012b4c:	00000000 	nop

Disassembly of section .text.fpcmplt:

9d012b50 <fpcmplt>:
9d012b50:	2408fffe 	li	t0,-2
9d012b54:	00043040 	sll	a2,a0,0x1
9d012b58:	00053840 	sll	a3,a1,0x1
9d012b5c:	00c74825 	or	t1,a2,a3
9d012b60:	1120001b 	beqz	t1,9d012bd0 <fpcmplt+0x80>
9d012b64:	00000000 	nop
9d012b68:	3c01ff00 	lui	at,0xff00
9d012b6c:	34210001 	ori	at,at,0x1
9d012b70:	00c1082b 	sltu	at,a2,at
9d012b74:	1020001a 	beqz	at,9d012be0 <fpcmplt+0x90>
9d012b78:	00000000 	nop
9d012b7c:	3c01ff00 	lui	at,0xff00
9d012b80:	34210001 	ori	at,at,0x1
9d012b84:	00e1082b 	sltu	at,a3,at
9d012b88:	10200015 	beqz	at,9d012be0 <fpcmplt+0x90>
9d012b8c:	00000000 	nop
9d012b90:	04810002 	bgez	a0,9d012b9c <fpcmplt+0x4c>
9d012b94:	00063042 	srl	a2,a2,0x1
9d012b98:	00063023 	negu	a2,a2
9d012b9c:	04a10002 	bgez	a1,9d012ba8 <fpcmplt+0x58>
9d012ba0:	00073842 	srl	a3,a3,0x1
9d012ba4:	00073823 	negu	a3,a3
9d012ba8:	00c7082a 	slt	at,a2,a3
9d012bac:	10200003 	beqz	at,9d012bbc <fpcmplt+0x6c>
9d012bb0:	00000000 	nop
9d012bb4:	10000007 	b	9d012bd4 <fpcmplt+0x84>
9d012bb8:	2402ffff 	li	v0,-1
9d012bbc:	00e6082a 	slt	at,a3,a2
9d012bc0:	10200003 	beqz	at,9d012bd0 <fpcmplt+0x80>
9d012bc4:	00000000 	nop
9d012bc8:	10000002 	b	9d012bd4 <fpcmplt+0x84>
9d012bcc:	24020001 	li	v0,1
9d012bd0:	24020000 	li	v0,0
9d012bd4:	03e00008 	jr	ra
9d012bd8:	00000000 	nop
9d012bdc:	00000000 	nop
9d012be0:	1000fffc 	b	9d012bd4 <fpcmplt+0x84>
9d012be4:	34020001 	li	v0,0x1
9d012be8:	00000000 	nop

Disassembly of section .text.__toread:

9d012bec <__toread>:
9d012bec:	27bdffe8 	addiu	sp,sp,-24
9d012bf0:	afb00010 	sw	s0,16(sp)
9d012bf4:	afbf0014 	sw	ra,20(sp)
9d012bf8:	80820048 	lb	v0,72(a0)
9d012bfc:	2443ffff 	addiu	v1,v0,-1
9d012c00:	00431025 	or	v0,v0,v1
9d012c04:	a0820048 	sb	v0,72(a0)
9d012c08:	8c830018 	lw	v1,24(a0)
9d012c0c:	8c820014 	lw	v0,20(a0)
9d012c10:	0062102b 	sltu	v0,v1,v0
9d012c14:	10400005 	beqz	v0,9d012c2c <__toread+0x40>
9d012c18:	00808025 	move	s0,a0
9d012c1c:	8c82002c 	lw	v0,44(a0)
9d012c20:	00003025 	move	a2,zero
9d012c24:	0040f809 	jalr	v0
9d012c28:	00002825 	move	a1,zero
9d012c2c:	8e020004 	lw	v0,4(s0)
9d012c30:	ae000028 	sw	zero,40(s0)
9d012c34:	ae000018 	sw	zero,24(s0)
9d012c38:	30430002 	andi	v1,v0,0x2
9d012c3c:	10600008 	beqz	v1,9d012c60 <__toread+0x74>
9d012c40:	ae000014 	sw	zero,20(s0)
9d012c44:	34420010 	ori	v0,v0,0x10
9d012c48:	ae020004 	sw	v0,4(s0)
9d012c4c:	2402ffff 	li	v0,-1
9d012c50:	8fbf0014 	lw	ra,20(sp)
9d012c54:	8fb00010 	lw	s0,16(sp)
9d012c58:	03e00008 	jr	ra
9d012c5c:	27bd0018 	addiu	sp,sp,24
9d012c60:	8e030008 	lw	v1,8(s0)
9d012c64:	8e04000c 	lw	a0,12(s0)
9d012c68:	7c4200c0 	ext	v0,v0,0x3,0x1
9d012c6c:	00021023 	negu	v0,v0
9d012c70:	00641821 	addu	v1,v1,a0
9d012c74:	ae030040 	sw	v1,64(s0)
9d012c78:	1000fff5 	b	9d012c50 <__toread+0x64>
9d012c7c:	ae03003c 	sw	v1,60(s0)

Disassembly of section .text.__stdio_seek:

9d012c80 <__stdio_seek>:
9d012c80:	8c820004 	lw	v0,4(a0)
9d012c84:	27bdffe0 	addiu	sp,sp,-32
9d012c88:	afb20018 	sw	s2,24(sp)
9d012c8c:	30420020 	andi	v0,v0,0x20
9d012c90:	afb10014 	sw	s1,20(sp)
9d012c94:	afb00010 	sw	s0,16(sp)
9d012c98:	afbf001c 	sw	ra,28(sp)
9d012c9c:	00808025 	move	s0,a0
9d012ca0:	00a08825 	move	s1,a1
9d012ca4:	10400009 	beqz	v0,9d012ccc <__stdio_seek+0x4c>
9d012ca8:	00c09025 	move	s2,a2
9d012cac:	8c820014 	lw	v0,20(a0)
9d012cb0:	8c830018 	lw	v1,24(a0)
9d012cb4:	0062102b 	sltu	v0,v1,v0
9d012cb8:	5440000a 	bnezl	v0,9d012ce4 <__stdio_seek+0x64>
9d012cbc:	8c82002c 	lw	v0,44(a0)
9d012cc0:	ae000028 	sw	zero,40(s0)
9d012cc4:	ae000018 	sw	zero,24(s0)
9d012cc8:	ae000014 	sw	zero,20(s0)
9d012ccc:	02403025 	move	a2,s2
9d012cd0:	02202825 	move	a1,s1
9d012cd4:	0f404fba 	jal	9d013ee8 <__stdio_seek_unbuffered>
9d012cd8:	02002025 	move	a0,s0
9d012cdc:	10000008 	b	9d012d00 <__stdio_seek+0x80>
9d012ce0:	8fbf001c 	lw	ra,28(sp)
9d012ce4:	00003025 	move	a2,zero
9d012ce8:	0040f809 	jalr	v0
9d012cec:	00002825 	move	a1,zero
9d012cf0:	8e030014 	lw	v1,20(s0)
9d012cf4:	1460fff2 	bnez	v1,9d012cc0 <__stdio_seek+0x40>
9d012cf8:	2402ffff 	li	v0,-1
9d012cfc:	8fbf001c 	lw	ra,28(sp)
9d012d00:	8fb20018 	lw	s2,24(sp)
9d012d04:	8fb10014 	lw	s1,20(sp)
9d012d08:	8fb00010 	lw	s0,16(sp)
9d012d0c:	03e00008 	jr	ra
9d012d10:	27bd0020 	addiu	sp,sp,32

Disassembly of section .text.__overflow:

9d012d14 <__overflow>:
9d012d14:	8c820028 	lw	v0,40(a0)
9d012d18:	27bdffe0 	addiu	sp,sp,-32
9d012d1c:	afb00018 	sw	s0,24(sp)
9d012d20:	afbf001c 	sw	ra,28(sp)
9d012d24:	00808025 	move	s0,a0
9d012d28:	10400010 	beqz	v0,9d012d6c <__overflow+0x58>
9d012d2c:	a3a50010 	sb	a1,16(sp)
9d012d30:	8e030014 	lw	v1,20(s0)
9d012d34:	8e020028 	lw	v0,40(s0)
9d012d38:	0062102b 	sltu	v0,v1,v0
9d012d3c:	14400014 	bnez	v0,9d012d90 <__overflow+0x7c>
9d012d40:	93a20010 	lbu	v0,16(sp)
9d012d44:	8e02002c 	lw	v0,44(s0)
9d012d48:	24060001 	li	a2,1
9d012d4c:	27a50010 	addiu	a1,sp,16
9d012d50:	0040f809 	jalr	v0
9d012d54:	02002025 	move	a0,s0
9d012d58:	24030001 	li	v1,1
9d012d5c:	14430007 	bne	v0,v1,9d012d7c <__overflow+0x68>
9d012d60:	93a20010 	lbu	v0,16(sp)
9d012d64:	10000007 	b	9d012d84 <__overflow+0x70>
9d012d68:	8fbf001c 	lw	ra,28(sp)
9d012d6c:	0f404fee 	jal	9d013fb8 <__towrite>
9d012d70:	00000000 	nop
9d012d74:	5040ffef 	beqzl	v0,9d012d34 <__overflow+0x20>
9d012d78:	8e030014 	lw	v1,20(s0)
9d012d7c:	2402ffff 	li	v0,-1
9d012d80:	8fbf001c 	lw	ra,28(sp)
9d012d84:	8fb00018 	lw	s0,24(sp)
9d012d88:	03e00008 	jr	ra
9d012d8c:	27bd0020 	addiu	sp,sp,32
9d012d90:	82040034 	lb	a0,52(s0)
9d012d94:	1044ffeb 	beq	v0,a0,9d012d44 <__overflow+0x30>
9d012d98:	24640001 	addiu	a0,v1,1
9d012d9c:	ae040014 	sw	a0,20(s0)
9d012da0:	1000fff7 	b	9d012d80 <__overflow+0x6c>
9d012da4:	a0620000 	sb	v0,0(v1)

Disassembly of section .text.dptoli:

9d012da8 <__fixdfsi>:
9d012da8:	00053ac0 00045542 00ea3825 3c018000     .:..BU..%8.....<
9d012db8:	00e13825 00055040 000a5542 2406041e     %8..@P..BU.....$
9d012dc8:	00ca3023 18c0000c 00000000 2cc10020     #0.......... ..,
9d012dd8:	14200002 00000000 34070000              .. ........4

9d012de4 <L42>:
9d012de4:	04a10002 	bgez	a1,9d012df0 <i50>
9d012de8:	00c73806 	srlv	a3,a3,a2
9d012dec:	00073823 	negu	a3,a3

9d012df0 <i50>:
9d012df0:	00071025 	or	v0,zero,a3

9d012df4 <I999>:
9d012df4:	03e00008 	jr	ra
9d012df8:	00000000 	nop
9d012dfc:	00000000 	nop

9d012e00 <Inaninf>:
9d012e00:	10800002 	beqz	a0,9d012e0c <i51>
9d012e04:	00000000 	nop
9d012e08:	34a50001 	ori	a1,a1,0x1

9d012e0c <i51>:
9d012e0c:	3c017ff0 	lui	at,0x7ff0
9d012e10:	34210001 	ori	at,at,0x1
9d012e14:	00a1082b 	sltu	at,a1,at
9d012e18:	14200003 	bnez	at,9d012e28 <i52>
9d012e1c:	00000000 	nop
9d012e20:	1000fff4 	b	9d012df4 <I999>
9d012e24:	3c028000 	lui	v0,0x8000

9d012e28 <i52>:
9d012e28:	3c027fff 	lui	v0,0x7fff
9d012e2c:	1000fff1 	b	9d012df4 <I999>
9d012e30:	3442ffff 	ori	v0,v0,0xffff
9d012e34:	00000000 	nop

Disassembly of section .text.__out:

9d012e38 <__out>:
9d012e38:	8c820004 	lw	v0,4(a0)
9d012e3c:	27bdffe0 	addiu	sp,sp,-32
9d012e40:	afbf001c 	sw	ra,28(sp)
9d012e44:	30470100 	andi	a3,v0,0x100
9d012e48:	afb10018 	sw	s1,24(sp)
9d012e4c:	10e00016 	beqz	a3,9d012ea8 <__out+0x70>
9d012e50:	afb00014 	sw	s0,20(sp)
9d012e54:	8c820010 	lw	v0,16(a0)
9d012e58:	00808025 	move	s0,a0
9d012e5c:	00c01825 	move	v1,a2
9d012e60:	00c2882b 	sltu	s1,a2,v0
9d012e64:	8c840014 	lw	a0,20(a0)
9d012e68:	0051180a 	movz	v1,v0,s1
9d012e6c:	00603025 	move	a2,v1
9d012e70:	0f405100 	jal	9d014400 <memcpy>
9d012e74:	00608825 	move	s1,v1
9d012e78:	8e020014 	lw	v0,20(s0)
9d012e7c:	8e030010 	lw	v1,16(s0)
9d012e80:	00511021 	addu	v0,v0,s1
9d012e84:	00718823 	subu	s1,v1,s1
9d012e88:	ae020014 	sw	v0,20(s0)
9d012e8c:	ae110010 	sw	s1,16(s0)
9d012e90:	a0400000 	sb	zero,0(v0)
9d012e94:	8fbf001c 	lw	ra,28(sp)
9d012e98:	8fb10018 	lw	s1,24(sp)
9d012e9c:	8fb00014 	lw	s0,20(sp)
9d012ea0:	03e00008 	jr	ra
9d012ea4:	27bd0020 	addiu	sp,sp,32
9d012ea8:	30420010 	andi	v0,v0,0x10
9d012eac:	5440fffa 	bnezl	v0,9d012e98 <__out+0x60>
9d012eb0:	8fbf001c 	lw	ra,28(sp)
9d012eb4:	0f4050a2 	jal	9d014288 <__fwrite>
9d012eb8:	00000000 	nop
9d012ebc:	1000fff6 	b	9d012e98 <__out+0x60>
9d012ec0:	8fbf001c 	lw	ra,28(sp)

Disassembly of section .text.dptoul:

9d012ec4 <__fixunsdfsi>:
9d012ec4:	00053ac0 00045542 00ea3825 3c018000     .:..BU..%8.....<
9d012ed4:	00e13825 00055040 000a5542 2406041e     %8..@P..BU.....$
9d012ee4:	00ca3023 04c0000c 00000000 2cc10020     #0.......... ..,
9d012ef4:	14200002 00000000 34070000              .. ........4

9d012f00 <L43>:
9d012f00:	04a10002 	bgez	a1,9d012f0c <i53>
9d012f04:	00c73806 	srlv	a3,a3,a2
9d012f08:	00073823 	negu	a3,a3

9d012f0c <i53>:
9d012f0c:	00071025 	or	v0,zero,a3

9d012f10 <K999>:
9d012f10:	03e00008 	jr	ra
9d012f14:	00000000 	nop
9d012f18:	00000000 	nop

9d012f1c <Knaninf>:
9d012f1c:	10800002 	beqz	a0,9d012f28 <i54>
9d012f20:	00000000 	nop
9d012f24:	34a50001 	ori	a1,a1,0x1

9d012f28 <i54>:
9d012f28:	3c017ff0 	lui	at,0x7ff0
9d012f2c:	34210001 	ori	at,at,0x1
9d012f30:	00a1082b 	sltu	at,a1,at
9d012f34:	14200003 	bnez	at,9d012f44 <i55>
9d012f38:	00000000 	nop
9d012f3c:	1000fff4 	b	9d012f10 <K999>
9d012f40:	3c028000 	lui	v0,0x8000

9d012f44 <i55>:
9d012f44:	1000fff2 	b	9d012f10 <K999>
9d012f48:	2402ffff 	li	v0,-1
9d012f4c:	00000000 	nop

Disassembly of section .text.copysignf:

9d012f50 <copysignf>:
9d012f50:	27bdffd0 	addiu	sp,sp,-48
9d012f54:	afb30028 	sw	s3,40(sp)
9d012f58:	afb20024 	sw	s2,36(sp)
9d012f5c:	00e09825 	move	s3,a3
9d012f60:	00c09025 	move	s2,a2
9d012f64:	afbf002c 	sw	ra,44(sp)
9d012f68:	afb10020 	sw	s1,32(sp)
9d012f6c:	0f4046c2 	jal	9d011b08 <__truncdfsf2>
9d012f70:	afb0001c 	sw	s0,28(sp)
9d012f74:	02602825 	move	a1,s3
9d012f78:	02402025 	move	a0,s2
9d012f7c:	0f4046c2 	jal	9d011b08 <__truncdfsf2>
9d012f80:	00408825 	move	s1,v0
9d012f84:	00408025 	move	s0,v0
9d012f88:	0f40498c 	jal	9d012630 <__extendsfdf2>
9d012f8c:	02202025 	move	a0,s1
9d012f90:	02002025 	move	a0,s0
9d012f94:	afa20010 	sw	v0,16(sp)
9d012f98:	7c707400 	ext	s0,v1,0x10,0xf
9d012f9c:	0f40498c 	jal	9d012630 <__extendsfdf2>
9d012fa0:	afa30014 	sw	v1,20(sp)
9d012fa4:	00031c02 	srl	v1,v1,0x10
9d012fa8:	7c037004 	ins	v1,zero,0x0,0xf
9d012fac:	02031825 	or	v1,s0,v1
9d012fb0:	a7a30016 	sh	v1,22(sp)
9d012fb4:	8fa40010 	lw	a0,16(sp)
9d012fb8:	0f4046c2 	jal	9d011b08 <__truncdfsf2>
9d012fbc:	8fa50014 	lw	a1,20(sp)
9d012fc0:	8fbf002c 	lw	ra,44(sp)
9d012fc4:	8fb30028 	lw	s3,40(sp)
9d012fc8:	8fb20024 	lw	s2,36(sp)
9d012fcc:	8fb10020 	lw	s1,32(sp)
9d012fd0:	8fb0001c 	lw	s0,28(sp)
9d012fd4:	03e00008 	jr	ra
9d012fd8:	27bd0030 	addiu	sp,sp,48

Disassembly of section .text.__fopen_rw:

9d012fdc <__fopen_rw>:
9d012fdc:	27bdffe8 	addiu	sp,sp,-24
9d012fe0:	afb00010 	sw	s0,16(sp)
9d012fe4:	afbf0014 	sw	ra,20(sp)
9d012fe8:	0f403c39 	jal	9d00f0e4 <malloc>
9d012fec:	24040468 	li	a0,1128
9d012ff0:	10400017 	beqz	v0,9d013050 <__fopen_rw+0x74>
9d012ff4:	00408025 	move	s0,v0
9d012ff8:	24060060 	li	a2,96
9d012ffc:	00002825 	move	a1,zero
9d013000:	0f405189 	jal	9d014624 <memset>
9d013004:	00402025 	move	a0,v0
9d013008:	3c029d01 	lui	v0,0x9d01
9d01300c:	244246ac 	addiu	v0,v0,18092
9d013010:	ae02002c 	sw	v0,44(s0)
9d013014:	3c029d01 	lui	v0,0x9d01
9d013018:	24422078 	addiu	v0,v0,8312
9d01301c:	ae020030 	sw	v0,48(s0)
9d013020:	3c029d01 	lui	v0,0x9d01
9d013024:	2442213c 	addiu	v0,v0,8508
9d013028:	ae02001c 	sw	v0,28(s0)
9d01302c:	3c029d01 	lui	v0,0x9d01
9d013030:	24421fac 	addiu	v0,v0,8108
9d013034:	ae020044 	sw	v0,68(s0)
9d013038:	2402ffff 	li	v0,-1
9d01303c:	a2020034 	sb	v0,52(s0)
9d013040:	26020068 	addiu	v0,s0,104
9d013044:	ae020008 	sw	v0,8(s0)
9d013048:	24020400 	li	v0,1024
9d01304c:	ae02000c 	sw	v0,12(s0)
9d013050:	8fbf0014 	lw	ra,20(sp)
9d013054:	02001025 	move	v0,s0
9d013058:	8fb00010 	lw	s0,16(sp)
9d01305c:	03e00008 	jr	ra
9d013060:	27bd0018 	addiu	sp,sp,24

Disassembly of section .text.write:

9d013064 <write>:
9d013064:	27bdffe0 	addiu	sp,sp,-32
9d013068:	afb10014 	sw	s1,20(sp)
9d01306c:	afbf001c 	sw	ra,28(sp)
9d013070:	afb20018 	sw	s2,24(sp)
9d013074:	afb00010 	sw	s0,16(sp)
9d013078:	10a0000d 	beqz	a1,9d0130b0 <write+0x4c>
9d01307c:	00008825 	move	s1,zero
9d013080:	50c0000c 	beqzl	a2,9d0130b4 <write+0x50>
9d013084:	8fbf001c 	lw	ra,28(sp)
9d013088:	2c840003 	sltiu	a0,a0,3
9d01308c:	10800008 	beqz	a0,9d0130b0 <write+0x4c>
9d013090:	00c08825 	move	s1,a2
9d013094:	3c020000 	lui	v0,0x0
9d013098:	24420000 	addiu	v0,v0,0
9d01309c:	1040000b 	beqz	v0,9d0130cc <write+0x68>
9d0130a0:	00a08025 	move	s0,a1
9d0130a4:	00c02825 	move	a1,a2
9d0130a8:	0c000000 	jal	90000000 <_bmxdudba_address+0x8fff0000>
9d0130ac:	02002025 	move	a0,s0
9d0130b0:	8fbf001c 	lw	ra,28(sp)
9d0130b4:	02201025 	move	v0,s1
9d0130b8:	8fb20018 	lw	s2,24(sp)
9d0130bc:	8fb10014 	lw	s1,20(sp)
9d0130c0:	8fb00010 	lw	s0,16(sp)
9d0130c4:	03e00008 	jr	ra
9d0130c8:	27bd0020 	addiu	sp,sp,32
9d0130cc:	00a69021 	addu	s2,a1,a2
9d0130d0:	82040000 	lb	a0,0(s0)
9d0130d4:	0f404524 	jal	9d011490 <_mon_putc>
9d0130d8:	26100001 	addiu	s0,s0,1
9d0130dc:	1650fffc 	bne	s2,s0,9d0130d0 <write+0x6c>
9d0130e0:	8fbf001c 	lw	ra,28(sp)
9d0130e4:	1000fff4 	b	9d0130b8 <write+0x54>
9d0130e8:	02201025 	move	v0,s1

Disassembly of section .text.dinit.startup:

9d0130ec <__pic32_data_init_impl>:
9d0130ec:	3c089d01 	lui	t0,0x9d01
9d0130f0:	2508fef8 	addiu	t0,t0,-264
9d0130f4:	1100001b 	beqz	t0,9d013164 <_dinit_end+0x18>
9d0130f8:	00000000 	nop
9d0130fc:	8d090000 	lw	t1,0(t0)
9d013100:	11200018 	beqz	t1,9d013164 <_dinit_end+0x18>
9d013104:	25080004 	addiu	t0,t0,4
9d013108:	8d0a0000 	lw	t2,0(t0)
9d01310c:	25080004 	addiu	t0,t0,4
9d013110:	8d0b0000 	lw	t3,0(t0)
9d013114:	11600009 	beqz	t3,9d01313c <_dinit_clear>
9d013118:	25080004 	addiu	t0,t0,4

9d01311c <_dinit_copy>:
9d01311c:	910c0000 	lbu	t4,0(t0)
9d013120:	254affff 	addiu	t2,t2,-1
9d013124:	25080001 	addiu	t0,t0,1
9d013128:	a12c0000 	sb	t4,0(t1)
9d01312c:	1540fffb 	bnez	t2,9d01311c <_dinit_copy>
9d013130:	25290001 	addiu	t1,t1,1
9d013134:	10000005 	b	9d01314c <_dinit_end>
9d013138:	00000000 	nop

9d01313c <_dinit_clear>:
9d01313c:	a1200000 	sb	zero,0(t1)
9d013140:	254affff 	addiu	t2,t2,-1
9d013144:	1540fffd 	bnez	t2,9d01313c <_dinit_clear>
9d013148:	25290001 	addiu	t1,t1,1

9d01314c <_dinit_end>:
9d01314c:	25080003 	addiu	t0,t0,3
9d013150:	240afffc 	li	t2,-4
9d013154:	01484024 	and	t0,t2,t0
9d013158:	8d090000 	lw	t1,0(t0)
9d01315c:	1520ffe7 	bnez	t1,9d0130fc <__pic32_data_init_impl+0x10>
9d013160:	00000000 	nop
9d013164:	03e00008 	jr	ra
9d013168:	00000000 	nop

Disassembly of section .text.__vsnprintf:

9d01316c <__vsnprintf>:
9d01316c:	27bdffc8 	addiu	sp,sp,-56
9d013170:	2403ffff 	li	v1,-1
9d013174:	afa30010 	sw	v1,16(sp)
9d013178:	24030102 	li	v1,258
9d01317c:	00a01025 	move	v0,a1
9d013180:	afbf0034 	sw	ra,52(sp)
9d013184:	00c02825 	move	a1,a2
9d013188:	afa30014 	sw	v1,20(sp)
9d01318c:	14800002 	bnez	a0,9d013198 <__vsnprintf+0x2c>
9d013190:	00e03025 	move	a2,a3
9d013194:	27a4002c 	addiu	a0,sp,44
9d013198:	afa40018 	sw	a0,24(sp)
9d01319c:	afa2001c 	sw	v0,28(sp)
9d0131a0:	10400002 	beqz	v0,9d0131ac <__vsnprintf+0x40>
9d0131a4:	00001825 	move	v1,zero
9d0131a8:	2443ffff 	addiu	v1,v0,-1
9d0131ac:	04410008 	bgez	v0,9d0131d0 <__vsnprintf+0x64>
9d0131b0:	afa30020 	sw	v1,32(sp)
9d0131b4:	3c02a000 	lui	v0,0xa000
9d0131b8:	2403004f 	li	v1,79
9d0131bc:	ac43107c 	sw	v1,4220(v0)
9d0131c0:	2402ffff 	li	v0,-1
9d0131c4:	8fbf0034 	lw	ra,52(sp)
9d0131c8:	03e00008 	jr	ra
9d0131cc:	27bd0038 	addiu	sp,sp,56
9d0131d0:	afa40028 	sw	a0,40(sp)
9d0131d4:	afa40024 	sw	a0,36(sp)
9d0131d8:	a0800000 	sb	zero,0(a0)
9d0131dc:	0f40504b 	jal	9d01412c <__vfprintf>
9d0131e0:	27a40010 	addiu	a0,sp,16
9d0131e4:	1000fff8 	b	9d0131c8 <__vsnprintf+0x5c>
9d0131e8:	8fbf0034 	lw	ra,52(sp)

Disassembly of section .text.fptoli:

9d0131ec <__fixsfsi>:
9d0131ec:	00042a00 3c018000 00a12825 00043dc2     .*.....<%(...=..
9d0131fc:	30e700ff 2406009e 00c73023 18c0000d     ...0...$#0......
9d01320c:	00000000 28c10020 14200003 00000000     .... ..(.. .....
9d01321c:	10000005 24020000                       .......$

9d013224 <i42>:
9d013224:	04810002 	bgez	a0,9d013230 <i43>
9d013228:	00c52806 	srlv	a1,a1,a2
9d01322c:	00052823 	negu	a1,a1

9d013230 <i43>:
9d013230:	00051025 	or	v0,zero,a1

9d013234 <G999>:
9d013234:	03e00008 	jr	ra
9d013238:	00000000 	nop
9d01323c:	00000000 	nop

9d013240 <Gspec>:
9d013240:	3c017f80 	lui	at,0x7f80
9d013244:	34210001 	ori	at,at,0x1
9d013248:	0081082b 	sltu	at,a0,at
9d01324c:	14200003 	bnez	at,9d01325c <i44>
9d013250:	00000000 	nop
9d013254:	1000fff7 	b	9d013234 <G999>
9d013258:	3c028000 	lui	v0,0x8000

9d01325c <i44>:
9d01325c:	3c027fff 	lui	v0,0x7fff
9d013260:	1000fff4 	b	9d013234 <G999>
9d013264:	3442ffff 	ori	v0,v0,0xffff
9d013268:	00000000 	nop

Disassembly of section .text.dremf:

9d01326c <dremf>:
9d01326c:	27bdffe0 	addiu	sp,sp,-32
9d013270:	afb10014 	sw	s1,20(sp)
9d013274:	afb00010 	sw	s0,16(sp)
9d013278:	00e08825 	move	s1,a3
9d01327c:	00c08025 	move	s0,a2
9d013280:	afbf001c 	sw	ra,28(sp)
9d013284:	0f4046c2 	jal	9d011b08 <__truncdfsf2>
9d013288:	afb20018 	sw	s2,24(sp)
9d01328c:	02202825 	move	a1,s1
9d013290:	02002025 	move	a0,s0
9d013294:	0f4046c2 	jal	9d011b08 <__truncdfsf2>
9d013298:	00409025 	move	s2,v0
9d01329c:	0f40498c 	jal	9d012630 <__extendsfdf2>
9d0132a0:	00402025 	move	a0,v0
9d0132a4:	02402025 	move	a0,s2
9d0132a8:	00408025 	move	s0,v0
9d0132ac:	0f40498c 	jal	9d012630 <__extendsfdf2>
9d0132b0:	00608825 	move	s1,v1
9d0132b4:	00402025 	move	a0,v0
9d0132b8:	02003025 	move	a2,s0
9d0132bc:	02203825 	move	a3,s1
9d0132c0:	0f403192 	jal	9d00c648 <dreml>
9d0132c4:	00602825 	move	a1,v1
9d0132c8:	00402025 	move	a0,v0
9d0132cc:	0f4046c2 	jal	9d011b08 <__truncdfsf2>
9d0132d0:	00602825 	move	a1,v1
9d0132d4:	8fbf001c 	lw	ra,28(sp)
9d0132d8:	8fb20018 	lw	s2,24(sp)
9d0132dc:	8fb10014 	lw	s1,20(sp)
9d0132e0:	8fb00010 	lw	s0,16(sp)
9d0132e4:	03e00008 	jr	ra
9d0132e8:	27bd0020 	addiu	sp,sp,32

Disassembly of section .text.atoi:

9d0132ec <atoi>:
9d0132ec:	24050020 	li	a1,32
9d0132f0:	80820000 	lb	v0,0(a0)
9d0132f4:	1045000d 	beq	v0,a1,9d01332c <atoi+0x40>
9d0132f8:	2443fff7 	addiu	v1,v0,-9
9d0132fc:	2c630005 	sltiu	v1,v1,5
9d013300:	1460000a 	bnez	v1,9d01332c <atoi+0x40>
9d013304:	2403002b 	li	v1,43
9d013308:	1043000a 	beq	v0,v1,9d013334 <atoi+0x48>
9d01330c:	2403002d 	li	v1,45
9d013310:	14430003 	bne	v0,v1,9d013320 <atoi+0x34>
9d013314:	00002825 	move	a1,zero
9d013318:	24050001 	li	a1,1
9d01331c:	24840001 	addiu	a0,a0,1
9d013320:	00001025 	move	v0,zero
9d013324:	10000007 	b	9d013344 <atoi+0x58>
9d013328:	2407000a 	li	a3,10
9d01332c:	1000fff0 	b	9d0132f0 <atoi+0x4>
9d013330:	24840001 	addiu	a0,a0,1
9d013334:	1000fff9 	b	9d01331c <atoi+0x30>
9d013338:	00002825 	move	a1,zero
9d01333c:	24840001 	addiu	a0,a0,1
9d013340:	00431023 	subu	v0,v0,v1
9d013344:	80830000 	lb	v1,0(a0)
9d013348:	2463ffd0 	addiu	v1,v1,-48
9d01334c:	2c66000a 	sltiu	a2,v1,10
9d013350:	54c0fffa 	bnezl	a2,9d01333c <atoi+0x50>
9d013354:	70471002 	mul	v0,v0,a3
9d013358:	50a00001 	beqzl	a1,9d013360 <atoi+0x74>
9d01335c:	00021023 	negu	v0,v0
9d013360:	03e00008 	jr	ra
9d013364:	00000000 	nop

Disassembly of section .text.__readv:

9d013368 <readv>:
9d013368:	27bdffd8 	addiu	sp,sp,-40
9d01336c:	afb40020 	sw	s4,32(sp)
9d013370:	afb3001c 	sw	s3,28(sp)
9d013374:	afb20018 	sw	s2,24(sp)
9d013378:	afb10014 	sw	s1,20(sp)
9d01337c:	afb00010 	sw	s0,16(sp)
9d013380:	afbf0024 	sw	ra,36(sp)
9d013384:	0080a025 	move	s4,a0
9d013388:	00c09825 	move	s3,a2
9d01338c:	00a08025 	move	s0,a1
9d013390:	00008825 	move	s1,zero
9d013394:	00009025 	move	s2,zero
9d013398:	0253102a 	slt	v0,s2,s3
9d01339c:	14400009 	bnez	v0,9d0133c4 <readv+0x5c>
9d0133a0:	8fbf0024 	lw	ra,36(sp)
9d0133a4:	02201025 	move	v0,s1
9d0133a8:	8fb40020 	lw	s4,32(sp)
9d0133ac:	8fb3001c 	lw	s3,28(sp)
9d0133b0:	8fb20018 	lw	s2,24(sp)
9d0133b4:	8fb10014 	lw	s1,20(sp)
9d0133b8:	8fb00010 	lw	s0,16(sp)
9d0133bc:	03e00008 	jr	ra
9d0133c0:	27bd0028 	addiu	sp,sp,40
9d0133c4:	8e060004 	lw	a2,4(s0)
9d0133c8:	8e050000 	lw	a1,0(s0)
9d0133cc:	02802025 	move	a0,s4
9d0133d0:	0f404441 	jal	9d011104 <read>
9d0133d4:	26520001 	addiu	s2,s2,1
9d0133d8:	02228821 	addu	s1,s1,v0
9d0133dc:	1000ffee 	b	9d013398 <readv+0x30>
9d0133e0:	26100008 	addiu	s0,s0,8

Disassembly of section .text.litodp:

9d0133e4 <__floatsidf>:
9d0133e4:	24050000 00054825 00053825 00043025     ...$%H..%8..%0..
9d0133f4:	10c0000c 00000000 04c10006 00000000     ................
9d013404:	3c098000 0005502b 00052823 00063023     ...<+P..#(..#0..
9d013414:	00ca3023                                #0..

9d013418 <i40>:
9d013418:	2407041e 	li	a3,1054
9d01341c:	70c84020 	clz	t0,a2
9d013420:	00e83823 	subu	a3,a3,t0
9d013424:	01063004 	sllv	a2,a2,t0

9d013428 <i39>:
9d013428:	000542c2 	srl	t0,a1,0xb
9d01342c:	00065540 	sll	t2,a2,0x15
9d013430:	010a4025 	or	t0,t0,t2
9d013434:	00065040 	sll	t2,a2,0x1
9d013438:	000a5302 	srl	t2,t2,0xc
9d01343c:	012a4825 	or	t1,t1,t2
9d013440:	00075500 	sll	t2,a3,0x14
9d013444:	012a4825 	or	t1,t1,t2
9d013448:	00081025 	or	v0,zero,t0
9d01344c:	00091825 	or	v1,zero,t1

9d013450 <E999>:
9d013450:	03e00008 	jr	ra
9d013454:	00000000 	nop
9d013458:	00000000 	nop

Disassembly of section .text.alloc_rev:

9d01345c <alloc_rev>:
9d01345c:	8c860000 	lw	a2,0(a0)
9d013460:	30c20001 	andi	v0,a2,0x1
9d013464:	10400009 	beqz	v0,9d01348c <alloc_rev+0x30>
9d013468:	00803825 	move	a3,a0
9d01346c:	03e00008 	jr	ra
9d013470:	00001025 	move	v0,zero
9d013474:	8ce60000 	lw	a2,0(a3)
9d013478:	30c20001 	andi	v0,a2,0x1
9d01347c:	10400005 	beqz	v0,9d013494 <alloc_rev+0x38>
9d013480:	00001025 	move	v0,zero
9d013484:	10000010 	b	9d0134c8 <alloc_rev+0x6c>
9d013488:	8fbf0014 	lw	ra,20(sp)
9d01348c:	27bdffe8 	addiu	sp,sp,-24
9d013490:	afbf0014 	sw	ra,20(sp)
9d013494:	0f404e2b 	jal	9d0138ac <bin_index>
9d013498:	00c02025 	move	a0,a2
9d01349c:	00402025 	move	a0,v0
9d0134a0:	0f405095 	jal	9d014254 <lock_bin>
9d0134a4:	00404025 	move	t0,v0
9d0134a8:	8ce40000 	lw	a0,0(a3)
9d0134ac:	1486fff1 	bne	a0,a2,9d013474 <alloc_rev+0x18>
9d0134b0:	7c040004 	ins	a0,zero,0x0,0x1
9d0134b4:	01002825 	move	a1,t0
9d0134b8:	0f404961 	jal	9d012584 <unbin>
9d0134bc:	00e42023 	subu	a0,a3,a0
9d0134c0:	24020001 	li	v0,1
9d0134c4:	8fbf0014 	lw	ra,20(sp)
9d0134c8:	03e00008 	jr	ra
9d0134cc:	27bd0018 	addiu	sp,sp,24

Disassembly of section .text:

9d0134d0 <__floatdidf>:
9d0134d0:	27bdffe0 	addiu	sp,sp,-32
9d0134d4:	afb20018 	sw	s2,24(sp)
9d0134d8:	00809025 	move	s2,a0
9d0134dc:	00a02025 	move	a0,a1
9d0134e0:	afbf001c 	sw	ra,28(sp)
9d0134e4:	afb10014 	sw	s1,20(sp)
9d0134e8:	0f404cf9 	jal	9d0133e4 <__floatsidf>
9d0134ec:	afb00010 	sw	s0,16(sp)
9d0134f0:	3c049d00 	lui	a0,0x9d00
9d0134f4:	8c867740 	lw	a2,30528(a0)
9d0134f8:	8c877744 	lw	a3,30532(a0)
9d0134fc:	00602825 	move	a1,v1
9d013500:	0f4038ac 	jal	9d00e2b0 <__muldf3>
9d013504:	00402025 	move	a0,v0
9d013508:	02402025 	move	a0,s2
9d01350c:	00408025 	move	s0,v0
9d013510:	0f404fff 	jal	9d013ffc <__floatunsidf>
9d013514:	00608825 	move	s1,v1
9d013518:	00402025 	move	a0,v0
9d01351c:	02003025 	move	a2,s0
9d013520:	02203825 	move	a3,s1
9d013524:	0f4034c7 	jal	9d00d31c <__adddf3>
9d013528:	00602825 	move	a1,v1
9d01352c:	8fbf001c 	lw	ra,28(sp)
9d013530:	8fb20018 	lw	s2,24(sp)
9d013534:	8fb10014 	lw	s1,20(sp)
9d013538:	8fb00010 	lw	s0,16(sp)
9d01353c:	03e00008 	jr	ra
9d013540:	27bd0020 	addiu	sp,sp,32

Disassembly of section .text.__scan_d:

9d013544 <__scan_d>:
9d013544:	27bdffd8 	addiu	sp,sp,-40
9d013548:	afb10020 	sw	s1,32(sp)
9d01354c:	afb0001c 	sw	s0,28(sp)
9d013550:	00a08825 	move	s1,a1
9d013554:	8cd0000c 	lw	s0,12(a2)
9d013558:	00c02825 	move	a1,a2
9d01355c:	afbf0024 	sw	ra,36(sp)
9d013560:	0f40439e 	jal	9d010e78 <__read_int>
9d013564:	00e03025 	move	a2,a3
9d013568:	2403ffff 	li	v1,-1
9d01356c:	1043000c 	beq	v0,v1,9d0135a0 <__scan_d+0x5c>
9d013570:	02002025 	move	a0,s0
9d013574:	2406000a 	li	a2,10
9d013578:	0f4050df 	jal	9d01437c <strtoll>
9d01357c:	27a50010 	addiu	a1,sp,16
9d013580:	ae220000 	sw	v0,0(s1)
9d013584:	8fa20010 	lw	v0,16(sp)
9d013588:	ae230004 	sw	v1,4(s1)
9d01358c:	2404fffe 	li	a0,-2
9d013590:	00501026 	xor	v0,v0,s0
9d013594:	24030001 	li	v1,1
9d013598:	0082180a 	movz	v1,a0,v0
9d01359c:	00601025 	move	v0,v1
9d0135a0:	8fbf0024 	lw	ra,36(sp)
9d0135a4:	8fb10020 	lw	s1,32(sp)
9d0135a8:	8fb0001c 	lw	s0,28(sp)
9d0135ac:	03e00008 	jr	ra
9d0135b0:	27bd0028 	addiu	sp,sp,40

Disassembly of section .text.__scan_u:

9d0135b4 <__scan_u>:
9d0135b4:	27bdffd8 	addiu	sp,sp,-40
9d0135b8:	afb10020 	sw	s1,32(sp)
9d0135bc:	afb0001c 	sw	s0,28(sp)
9d0135c0:	00a08825 	move	s1,a1
9d0135c4:	8cd0000c 	lw	s0,12(a2)
9d0135c8:	00c02825 	move	a1,a2
9d0135cc:	afbf0024 	sw	ra,36(sp)
9d0135d0:	0f40439e 	jal	9d010e78 <__read_int>
9d0135d4:	00e03025 	move	a2,a3
9d0135d8:	2403ffff 	li	v1,-1
9d0135dc:	1043000c 	beq	v0,v1,9d013610 <__scan_u+0x5c>
9d0135e0:	02002025 	move	a0,s0
9d0135e4:	2406000a 	li	a2,10
9d0135e8:	0f4050d4 	jal	9d014350 <strtoull>
9d0135ec:	27a50010 	addiu	a1,sp,16
9d0135f0:	ae220000 	sw	v0,0(s1)
9d0135f4:	8fa20010 	lw	v0,16(sp)
9d0135f8:	ae230004 	sw	v1,4(s1)
9d0135fc:	2404fffe 	li	a0,-2
9d013600:	00501026 	xor	v0,v0,s0
9d013604:	24030001 	li	v1,1
9d013608:	0082180a 	movz	v1,a0,v0
9d01360c:	00601025 	move	v0,v1
9d013610:	8fbf0024 	lw	ra,36(sp)
9d013614:	8fb10020 	lw	s1,32(sp)
9d013618:	8fb0001c 	lw	s0,28(sp)
9d01361c:	03e00008 	jr	ra
9d013620:	27bd0028 	addiu	sp,sp,40

Disassembly of section .text.__consumews:

9d013624 <__consumews>:
9d013624:	8ca20000 	lw	v0,0(a1)
9d013628:	24030020 	li	v1,32
9d01362c:	80420000 	lb	v0,0(v0)
9d013630:	10430004 	beq	v0,v1,9d013644 <__consumews+0x20>
9d013634:	2442fff7 	addiu	v0,v0,-9
9d013638:	2c430005 	sltiu	v1,v0,5
9d01363c:	10600013 	beqz	v1,9d01368c <__consumews+0x68>
9d013640:	00001025 	move	v0,zero
9d013644:	27bdffe8 	addiu	sp,sp,-24
9d013648:	afb00010 	sw	s0,16(sp)
9d01364c:	afbf0014 	sw	ra,20(sp)
9d013650:	0f404909 	jal	9d012424 <__skipws>
9d013654:	00a08025 	move	s0,a1
9d013658:	24040020 	li	a0,32
9d01365c:	8e030000 	lw	v1,0(s0)
9d013660:	24650001 	addiu	a1,v1,1
9d013664:	ae050000 	sw	a1,0(s0)
9d013668:	80630001 	lb	v1,1(v1)
9d01366c:	1064fffb 	beq	v1,a0,9d01365c <__consumews+0x38>
9d013670:	2463fff7 	addiu	v1,v1,-9
9d013674:	2c630005 	sltiu	v1,v1,5
9d013678:	1460fff8 	bnez	v1,9d01365c <__consumews+0x38>
9d01367c:	8fbf0014 	lw	ra,20(sp)
9d013680:	8fb00010 	lw	s0,16(sp)
9d013684:	03e00008 	jr	ra
9d013688:	27bd0018 	addiu	sp,sp,24
9d01368c:	03e00008 	jr	ra
9d013690:	00000000 	nop

Disassembly of section .text.__putc:

9d013694 <__putc>:
9d013694:	8ca20004 	lw	v0,4(a1)
9d013698:	27bdffe8 	addiu	sp,sp,-24
9d01369c:	30420020 	andi	v0,v0,0x20
9d0136a0:	14400006 	bnez	v0,9d0136bc <__putc+0x28>
9d0136a4:	afbf0014 	sw	ra,20(sp)
9d0136a8:	0f404e13 	jal	9d01384c <__putc_unbuffered>
9d0136ac:	00000000 	nop
9d0136b0:	8fbf0014 	lw	ra,20(sp)
9d0136b4:	03e00008 	jr	ra
9d0136b8:	27bd0018 	addiu	sp,sp,24
9d0136bc:	00803025 	move	a2,a0
9d0136c0:	308200ff 	andi	v0,a0,0xff
9d0136c4:	80a40034 	lb	a0,52(a1)
9d0136c8:	10820009 	beq	a0,v0,9d0136f0 <__putc+0x5c>
9d0136cc:	00a01825 	move	v1,a1
9d0136d0:	8ca40014 	lw	a0,20(a1)
9d0136d4:	8ca50028 	lw	a1,40(a1)
9d0136d8:	0085282b 	sltu	a1,a0,a1
9d0136dc:	10a00004 	beqz	a1,9d0136f0 <__putc+0x5c>
9d0136e0:	24850001 	addiu	a1,a0,1
9d0136e4:	ac650014 	sw	a1,20(v1)
9d0136e8:	1000fff1 	b	9d0136b0 <__putc+0x1c>
9d0136ec:	a0860000 	sb	a2,0(a0)
9d0136f0:	00c02825 	move	a1,a2
9d0136f4:	0f404b45 	jal	9d012d14 <__overflow>
9d0136f8:	00602025 	move	a0,v1
9d0136fc:	1000ffed 	b	9d0136b4 <__putc+0x20>
9d013700:	8fbf0014 	lw	ra,20(sp)

Disassembly of section .text.alloc_fwd:

9d013704 <alloc_fwd>:
9d013704:	8c860004 	lw	a2,4(a0)
9d013708:	30c20001 	andi	v0,a2,0x1
9d01370c:	10400009 	beqz	v0,9d013734 <alloc_fwd+0x30>
9d013710:	00803825 	move	a3,a0
9d013714:	03e00008 	jr	ra
9d013718:	00001025 	move	v0,zero
9d01371c:	8ce60004 	lw	a2,4(a3)
9d013720:	30c20001 	andi	v0,a2,0x1
9d013724:	10400005 	beqz	v0,9d01373c <alloc_fwd+0x38>
9d013728:	00001025 	move	v0,zero
9d01372c:	1000000f 	b	9d01376c <alloc_fwd+0x68>
9d013730:	8fbf0014 	lw	ra,20(sp)
9d013734:	27bdffe8 	addiu	sp,sp,-24
9d013738:	afbf0014 	sw	ra,20(sp)
9d01373c:	0f404e2b 	jal	9d0138ac <bin_index>
9d013740:	00c02025 	move	a0,a2
9d013744:	00402025 	move	a0,v0
9d013748:	0f405095 	jal	9d014254 <lock_bin>
9d01374c:	00404025 	move	t0,v0
9d013750:	8ce20004 	lw	v0,4(a3)
9d013754:	1446fff1 	bne	v0,a2,9d01371c <alloc_fwd+0x18>
9d013758:	01002825 	move	a1,t0
9d01375c:	0f404961 	jal	9d012584 <unbin>
9d013760:	00e02025 	move	a0,a3
9d013764:	24020001 	li	v0,1
9d013768:	8fbf0014 	lw	ra,20(sp)
9d01376c:	03e00008 	jr	ra
9d013770:	27bd0018 	addiu	sp,sp,24

Disassembly of section .text.__vsscanf:

9d013774 <__vsscanf>:
9d013774:	27bdff80 	addiu	sp,sp,-128
9d013778:	afb20078 	sw	s2,120(sp)
9d01377c:	afb10074 	sw	s1,116(sp)
9d013780:	afb00070 	sw	s0,112(sp)
9d013784:	00a08825 	move	s1,a1
9d013788:	00808025 	move	s0,a0
9d01378c:	00c09025 	move	s2,a2
9d013790:	27a40010 	addiu	a0,sp,16
9d013794:	24060060 	li	a2,96
9d013798:	afbf007c 	sw	ra,124(sp)
9d01379c:	0f405189 	jal	9d014624 <memset>
9d0137a0:	00002825 	move	a1,zero
9d0137a4:	3c029d01 	lui	v0,0x9d01
9d0137a8:	244247e8 	addiu	v0,v0,18408
9d0137ac:	02403025 	move	a2,s2
9d0137b0:	02202825 	move	a1,s1
9d0137b4:	27a40010 	addiu	a0,sp,16
9d0137b8:	afb00018 	sw	s0,24(sp)
9d0137bc:	afb00048 	sw	s0,72(sp)
9d0137c0:	0f40502d 	jal	9d0140b4 <__vfscanf>
9d0137c4:	afa20054 	sw	v0,84(sp)
9d0137c8:	8fbf007c 	lw	ra,124(sp)
9d0137cc:	8fb20078 	lw	s2,120(sp)
9d0137d0:	8fb10074 	lw	s1,116(sp)
9d0137d4:	8fb00070 	lw	s0,112(sp)
9d0137d8:	03e00008 	jr	ra
9d0137dc:	27bd0080 	addiu	sp,sp,128

Disassembly of section .text.a_clz_64:

9d0137e0 <a_clz_64>:
9d0137e0:	24030020 	li	v1,32
9d0137e4:	00a5200b 	movn	a0,a1,a1
9d0137e8:	0005180b 	movn	v1,zero,a1
9d0137ec:	00042c02 	srl	a1,a0,0x10
9d0137f0:	14a00004 	bnez	a1,9d013804 <a_clz_64+0x24>
9d0137f4:	00051202 	srl	v0,a1,0x8
9d0137f8:	34630010 	ori	v1,v1,0x10
9d0137fc:	00802825 	move	a1,a0
9d013800:	00051202 	srl	v0,a1,0x8
9d013804:	14400004 	bnez	v0,9d013818 <a_clz_64+0x38>
9d013808:	00022102 	srl	a0,v0,0x4
9d01380c:	34630008 	ori	v1,v1,0x8
9d013810:	00a01025 	move	v0,a1
9d013814:	00022102 	srl	a0,v0,0x4
9d013818:	54800004 	bnezl	a0,9d01382c <a_clz_64+0x4c>
9d01381c:	00041082 	srl	v0,a0,0x2
9d013820:	34630004 	ori	v1,v1,0x4
9d013824:	00402025 	move	a0,v0
9d013828:	00041082 	srl	v0,a0,0x2
9d01382c:	54400004 	bnezl	v0,9d013840 <a_clz_64+0x60>
9d013830:	00021042 	srl	v0,v0,0x1
9d013834:	34630002 	ori	v1,v1,0x2
9d013838:	00801025 	move	v0,a0
9d01383c:	00021042 	srl	v0,v0,0x1
9d013840:	38420001 	xori	v0,v0,0x1
9d013844:	03e00008 	jr	ra
9d013848:	00431025 	or	v0,v0,v1

Disassembly of section .text.__putc_unbuffered:

9d01384c <__putc_unbuffered>:
9d01384c:	8ca20004 	lw	v0,4(a1)
9d013850:	27bdffe0 	addiu	sp,sp,-32
9d013854:	308300ff 	andi	v1,a0,0xff
9d013858:	30420100 	andi	v0,v0,0x100
9d01385c:	afbf001c 	sw	ra,28(sp)
9d013860:	1040000a 	beqz	v0,9d01388c <__putc_unbuffered+0x40>
9d013864:	a3a30010 	sb	v1,16(sp)
9d013868:	8ca20014 	lw	v0,20(a1)
9d01386c:	308400ff 	andi	a0,a0,0xff
9d013870:	24460001 	addiu	a2,v0,1
9d013874:	aca60014 	sw	a2,20(a1)
9d013878:	a0430000 	sb	v1,0(v0)
9d01387c:	8fbf001c 	lw	ra,28(sp)
9d013880:	00801025 	move	v0,a0
9d013884:	03e00008 	jr	ra
9d013888:	27bd0020 	addiu	sp,sp,32
9d01388c:	00a02025 	move	a0,a1
9d013890:	24060001 	li	a2,1
9d013894:	0f4050a2 	jal	9d014288 <__fwrite>
9d013898:	27a50010 	addiu	a1,sp,16
9d01389c:	1040fff7 	beqz	v0,9d01387c <__putc_unbuffered+0x30>
9d0138a0:	2404ffff 	li	a0,-1
9d0138a4:	1000fff5 	b	9d01387c <__putc_unbuffered+0x30>
9d0138a8:	93a40010 	lbu	a0,16(sp)

Disassembly of section .text.bin_index:

9d0138ac <bin_index>:
9d0138ac:	00042102 	srl	a0,a0,0x4
9d0138b0:	2484ffff 	addiu	a0,a0,-1
9d0138b4:	2c820021 	sltiu	v0,a0,33
9d0138b8:	14400012 	bnez	v0,9d013904 <bin_index+0x58>
9d0138bc:	00801025 	move	v0,a0
9d0138c0:	2c820200 	sltiu	v0,a0,512
9d0138c4:	10400007 	beqz	v0,9d0138e4 <bin_index+0x38>
9d0138c8:	2c831c01 	sltiu	v1,a0,7169
9d0138cc:	3c029d01 	lui	v0,0x9d01
9d0138d0:	24423aa4 	addiu	v0,v0,15012
9d0138d4:	000420c2 	srl	a0,a0,0x3
9d0138d8:	00822021 	addu	a0,a0,v0
9d0138dc:	03e00008 	jr	ra
9d0138e0:	9082fffc 	lbu	v0,-4(a0)
9d0138e4:	10600007 	beqz	v1,9d013904 <bin_index+0x58>
9d0138e8:	2402003f 	li	v0,63
9d0138ec:	3c029d01 	lui	v0,0x9d01
9d0138f0:	24423aa4 	addiu	v0,v0,15012
9d0138f4:	000421c2 	srl	a0,a0,0x7
9d0138f8:	00822021 	addu	a0,a0,v0
9d0138fc:	9082fffc 	lbu	v0,-4(a0)
9d013900:	24420010 	addiu	v0,v0,16
9d013904:	03e00008 	jr	ra
9d013908:	00000000 	nop

Disassembly of section .text.__fopen_std:

9d01390c <__fopen_std>:
9d01390c:	27bdffe8 	addiu	sp,sp,-24
9d013910:	afb00010 	sw	s0,16(sp)
9d013914:	afbf0014 	sw	ra,20(sp)
9d013918:	0f403c39 	jal	9d00f0e4 <malloc>
9d01391c:	24040038 	li	a0,56
9d013920:	1040000d 	beqz	v0,9d013958 <__fopen_std+0x4c>
9d013924:	00408025 	move	s0,v0
9d013928:	24060038 	li	a2,56
9d01392c:	00002825 	move	a1,zero
9d013930:	0f405189 	jal	9d014624 <memset>
9d013934:	00402025 	move	a0,v0
9d013938:	3c029d01 	lui	v0,0x9d01
9d01393c:	244246ac 	addiu	v0,v0,18092
9d013940:	ae02002c 	sw	v0,44(s0)
9d013944:	3c029d01 	lui	v0,0x9d01
9d013948:	24422c80 	addiu	v0,v0,11392
9d01394c:	ae020030 	sw	v0,48(s0)
9d013950:	2402ffff 	li	v0,-1
9d013954:	a2020034 	sb	v0,52(s0)
9d013958:	8fbf0014 	lw	ra,20(sp)
9d01395c:	02001025 	move	v0,s0
9d013960:	8fb00010 	lw	s0,16(sp)
9d013964:	03e00008 	jr	ra
9d013968:	27bd0018 	addiu	sp,sp,24

Disassembly of section .text.sitofp:

9d01396c <__floatsisf>:
9d01396c:	3c018000 10800012 00813024 04810002     ...<....$0......
9d01397c:	00000000 00042023                       ....# ..

9d013984 <i40>:
9d013984:	2405009e 	li	a1,158
9d013988:	70873820 	clz	a3,a0
9d01398c:	00a72823 	subu	a1,a1,a3
9d013990:	00e42004 	sllv	a0,a0,a3
9d013994:	24840080 	addiu	a0,a0,128
9d013998:	2c880080 	sltiu	t0,a0,128
9d01399c:	00a82821 	addu	a1,a1,t0
9d0139a0:	00044203 	sra	t0,a0,0x8
9d0139a4:	31080001 	andi	t0,t0,0x1
9d0139a8:	00882023 	subu	a0,a0,t0
9d0139ac:	00042040 	sll	a0,a0,0x1
9d0139b0:	00042242 	srl	a0,a0,0x9
9d0139b4:	000545c0 	sll	t0,a1,0x17
9d0139b8:	00882025 	or	a0,a0,t0

9d0139bc <i39>:
9d0139bc:	00861025 	or	v0,a0,a2

9d0139c0 <E999>:
9d0139c0:	03e00008 	jr	ra
9d0139c4:	00000000 	nop
9d0139c8:	00000000 	nop

Disassembly of section .text.__sio_sprintf_dfoux:

9d0139cc <__sio_sprintf_dfoux>:
9d0139cc:	27bdffe8 	addiu	sp,sp,-24
9d0139d0:	afbf0014 	sw	ra,20(sp)
9d0139d4:	0f40434a 	jal	9d010d28 <__fmt_d>
9d0139d8:	00000000 	nop
9d0139dc:	0f402439 	jal	9d0090e4 <__fmt_fp>
9d0139e0:	00000000 	nop
9d0139e4:	0f404702 	jal	9d011c08 <__fmt_o>
9d0139e8:	00000000 	nop
9d0139ec:	0f40487f 	jal	9d0121fc <__fmt_u>
9d0139f0:	00000000 	nop
9d0139f4:	0f403d7b 	jal	9d00f5ec <__fmt_x>
9d0139f8:	00000000 	nop
9d0139fc:	0f404a0b 	jal	9d01282c <__fmt_s>
9d013a00:	00000000 	nop
9d013a04:	0f404f24 	jal	9d013c90 <__pop_float>
9d013a08:	00000000 	nop
9d013a0c:	0f40477b 	jal	9d011dec <__pop_ptr>
9d013a10:	00000000 	nop
9d013a14:	0f404022 	jal	9d010088 <__pop_int>
9d013a18:	00000000 	nop
9d013a1c:	8fbf0014 	lw	ra,20(sp)
9d013a20:	03e00008 	jr	ra
9d013a24:	27bd0018 	addiu	sp,sp,24

Disassembly of section .text.__string_out:

9d013a28 <__string_out>:
9d013a28:	8c820010 	lw	v0,16(a0)
9d013a2c:	27bdffe0 	addiu	sp,sp,-32
9d013a30:	afb00014 	sw	s0,20(sp)
9d013a34:	00808025 	move	s0,a0
9d013a38:	8c840014 	lw	a0,20(a0)
9d013a3c:	afb10018 	sw	s1,24(sp)
9d013a40:	00c2882b 	sltu	s1,a2,v0
9d013a44:	0051300a 	movz	a2,v0,s1
9d013a48:	afbf001c 	sw	ra,28(sp)
9d013a4c:	0f405100 	jal	9d014400 <memcpy>
9d013a50:	00c08825 	move	s1,a2
9d013a54:	8e020014 	lw	v0,20(s0)
9d013a58:	8e060010 	lw	a2,16(s0)
9d013a5c:	00511021 	addu	v0,v0,s1
9d013a60:	00d18823 	subu	s1,a2,s1
9d013a64:	ae110010 	sw	s1,16(s0)
9d013a68:	ae020014 	sw	v0,20(s0)
9d013a6c:	a0400000 	sb	zero,0(v0)
9d013a70:	8fbf001c 	lw	ra,28(sp)
9d013a74:	8fb10018 	lw	s1,24(sp)
9d013a78:	8fb00014 	lw	s0,20(sp)
9d013a7c:	03e00008 	jr	ra
9d013a80:	27bd0020 	addiu	sp,sp,32

Disassembly of section .rodata:

9d013a84 <debruijn32.1767>:
9d013a84:	02170100 0313181d 0b191b1e 0d040814     ................
9d013a94:	121c161f 0c070a1a 06091115 0e0f0510     ................

9d013aa4 <bin_tab>:
9d013aa4:	23222120 25252424 27272626 28282828      !"#$$%%&&''((((
9d013ab4:	29292929 2a2a2a2a 2b2b2b2b 2c2c2c2c     ))))****++++,,,,
9d013ac4:	2c2c2c2c 2d2d2d2d 2d2d2d2d 2e2e2e2e     ,,,,--------....
9d013ad4:	2e2e2e2e 2f2f2f2f 2f2f2f2f              ....////////

Disassembly of section .text.__fmt_state:

9d013ae0 <__fmt_state>:
9d013ae0:	3c069d01 	lui	a2,0x9d01
9d013ae4:	00001025 	move	v0,zero
9d013ae8:	24c64918 	addiu	a2,a2,18712
9d013aec:	00021840 	sll	v1,v0,0x1
9d013af0:	00661821 	addu	v1,v1,a2
9d013af4:	80670000 	lb	a3,0(v1)
9d013af8:	54e00003 	bnezl	a3,9d013b08 <__fmt_state+0x28>
9d013afc:	8c850000 	lw	a1,0(a0)
9d013b00:	03e00008 	jr	ra
9d013b04:	90620001 	lbu	v0,1(v1)
9d013b08:	24420001 	addiu	v0,v0,1
9d013b0c:	80a80000 	lb	t0,0(a1)
9d013b10:	15070004 	bne	t0,a3,9d013b24 <__fmt_state+0x44>
9d013b14:	304200ff 	andi	v0,v0,0xff
9d013b18:	90620001 	lbu	v0,1(v1)
9d013b1c:	24a50001 	addiu	a1,a1,1
9d013b20:	ac850000 	sw	a1,0(a0)
9d013b24:	2c43000b 	sltiu	v1,v0,11
9d013b28:	1460fff1 	bnez	v1,9d013af0 <__fmt_state+0x10>
9d013b2c:	00021840 	sll	v1,v0,0x1
9d013b30:	03e00008 	jr	ra
9d013b34:	00000000 	nop

Disassembly of section .text.adjust_size:

9d013b38 <adjust_size>:
9d013b38:	3c03a000 	lui	v1,0xa000
9d013b3c:	8c66103c 	lw	a2,4156(v1)
9d013b40:	8c820000 	lw	v0,0(a0)
9d013b44:	3c037fff 	lui	v1,0x7fff
9d013b48:	3463ffef 	ori	v1,v1,0xffef
9d013b4c:	2445ffff 	addiu	a1,v0,-1
9d013b50:	00661823 	subu	v1,v1,a2
9d013b54:	0065182b 	sltu	v1,v1,a1
9d013b58:	5060000b 	beqzl	v1,9d013b88 <adjust_size+0x50>
9d013b5c:	24420017 	addiu	v0,v0,23
9d013b60:	10400005 	beqz	v0,9d013b78 <adjust_size+0x40>
9d013b64:	2403000c 	li	v1,12
9d013b68:	3c02a000 	lui	v0,0xa000
9d013b6c:	ac43107c 	sw	v1,4220(v0)
9d013b70:	03e00008 	jr	ra
9d013b74:	2402ffff 	li	v0,-1
9d013b78:	24020010 	li	v0,16
9d013b7c:	ac820000 	sw	v0,0(a0)
9d013b80:	03e00008 	jr	ra
9d013b84:	00001025 	move	v0,zero
9d013b88:	1000fffc 	b	9d013b7c <adjust_size+0x44>
9d013b8c:	7c021804 	ins	v0,zero,0x0,0x4

Disassembly of section .text.trim:

9d013b90 <trim>:
9d013b90:	8c820004 	lw	v0,4(a0)
9d013b94:	7c020004 	ins	v0,zero,0x0,0x1
9d013b98:	00451823 	subu	v1,v0,a1
9d013b9c:	2c660011 	sltiu	a2,v1,17
9d013ba0:	14c0000f 	bnez	a2,9d013be0 <trim+0x50>
9d013ba4:	00853021 	addu	a2,a0,a1
9d013ba8:	27bdffe8 	addiu	sp,sp,-24
9d013bac:	34a50001 	ori	a1,a1,0x1
9d013bb0:	34630001 	ori	v1,v1,0x1
9d013bb4:	00821021 	addu	v0,a0,v0
9d013bb8:	afbf0014 	sw	ra,20(sp)
9d013bbc:	acc50000 	sw	a1,0(a2)
9d013bc0:	acc30004 	sw	v1,4(a2)
9d013bc4:	ac430000 	sw	v1,0(v0)
9d013bc8:	ac850004 	sw	a1,4(a0)
9d013bcc:	0f403f58 	jal	9d00fd60 <free>
9d013bd0:	24c40008 	addiu	a0,a2,8
9d013bd4:	8fbf0014 	lw	ra,20(sp)
9d013bd8:	03e00008 	jr	ra
9d013bdc:	27bd0018 	addiu	sp,sp,24
9d013be0:	03e00008 	jr	ra
9d013be4:	00000000 	nop

Disassembly of section .text.main_entry:

9d013be8 <_main_entry>:
9d013be8:	3c040000 	lui	a0,0x0
9d013bec:	27bdffe8 	addiu	sp,sp,-24
9d013bf0:	24840000 	addiu	a0,a0,0
9d013bf4:	10800003 	beqz	a0,9d013c04 <_main_entry+0x1c>
9d013bf8:	afbf0014 	sw	ra,20(sp)
9d013bfc:	0080f809 	jalr	a0
9d013c00:	00000000 	nop
9d013c04:	30840000 	andi	a0,a0,0x0
9d013c08:	30a50000 	andi	a1,a1,0x0
9d013c0c:	3c089d01 	lui	t0,0x9d01
9d013c10:	2508af64 	addiu	t0,t0,-20636
9d013c14:	0100f809 	jalr	t0
9d013c18:	00000000 	nop

9d013c1c <__crt0_exit>:
9d013c1c:	3c020000 24420000 10400003 00000000     ...<..B$..@.....
9d013c2c:	0040f809 00000000 1000fff9 00000000     ..@.............

Disassembly of section .text.__uflow:

9d013c3c <__uflow>:
9d013c3c:	27bdffe0 	addiu	sp,sp,-32
9d013c40:	afb00018 	sw	s0,24(sp)
9d013c44:	afbf001c 	sw	ra,28(sp)
9d013c48:	0f404afb 	jal	9d012bec <__toread>
9d013c4c:	00808025 	move	s0,a0
9d013c50:	50400006 	beqzl	v0,9d013c6c <__uflow+0x30>
9d013c54:	8e020044 	lw	v0,68(s0)
9d013c58:	2402ffff 	li	v0,-1
9d013c5c:	8fbf001c 	lw	ra,28(sp)
9d013c60:	8fb00018 	lw	s0,24(sp)
9d013c64:	03e00008 	jr	ra
9d013c68:	27bd0020 	addiu	sp,sp,32
9d013c6c:	24060001 	li	a2,1
9d013c70:	27a50010 	addiu	a1,sp,16
9d013c74:	0040f809 	jalr	v0
9d013c78:	02002025 	move	a0,s0
9d013c7c:	24030001 	li	v1,1
9d013c80:	1443fff5 	bne	v0,v1,9d013c58 <__uflow+0x1c>
9d013c84:	93a20010 	lbu	v0,16(sp)
9d013c88:	1000fff5 	b	9d013c60 <__uflow+0x24>
9d013c8c:	8fbf001c 	lw	ra,28(sp)

Disassembly of section .text.__pop_float:

9d013c90 <__pop_float>:
9d013c90:	28a30080 	slti	v1,a1,128
9d013c94:	14600010 	bnez	v1,9d013cd8 <__pop_float+0x48>
9d013c98:	00001025 	move	v0,zero
9d013c9c:	28a30082 	slti	v1,a1,130
9d013ca0:	14600003 	bnez	v1,9d013cb0 <__pop_float+0x20>
9d013ca4:	24030083 	li	v1,131
9d013ca8:	14a3000b 	bne	a1,v1,9d013cd8 <__pop_float+0x48>
9d013cac:	00000000 	nop
9d013cb0:	8cc20000 	lw	v0,0(a2)
9d013cb4:	24420007 	addiu	v0,v0,7
9d013cb8:	7c021004 	ins	v0,zero,0x0,0x3
9d013cbc:	24430008 	addiu	v1,v0,8
9d013cc0:	acc30000 	sw	v1,0(a2)
9d013cc4:	8c430004 	lw	v1,4(v0)
9d013cc8:	8c420000 	lw	v0,0(v0)
9d013ccc:	ac830004 	sw	v1,4(a0)
9d013cd0:	ac820000 	sw	v0,0(a0)
9d013cd4:	24020001 	li	v0,1
9d013cd8:	03e00008 	jr	ra
9d013cdc:	00000000 	nop

Disassembly of section .text.__malloc0:

9d013ce0 <__malloc0>:
9d013ce0:	27bdffe8 	addiu	sp,sp,-24
9d013ce4:	afb00010 	sw	s0,16(sp)
9d013ce8:	afbf0014 	sw	ra,20(sp)
9d013cec:	0f403c39 	jal	9d00f0e4 <malloc>
9d013cf0:	00808025 	move	s0,a0
9d013cf4:	10400006 	beqz	v0,9d013d10 <__malloc0+0x30>
9d013cf8:	26100003 	addiu	s0,s0,3
9d013cfc:	7c100804 	ins	s0,zero,0x0,0x2
9d013d00:	00508021 	addu	s0,v0,s0
9d013d04:	00401825 	move	v1,v0
9d013d08:	54700005 	bnel	v1,s0,9d013d20 <__malloc0+0x40>
9d013d0c:	8c640000 	lw	a0,0(v1)
9d013d10:	8fbf0014 	lw	ra,20(sp)
9d013d14:	8fb00010 	lw	s0,16(sp)
9d013d18:	03e00008 	jr	ra
9d013d1c:	27bd0018 	addiu	sp,sp,24
9d013d20:	54800001 	bnezl	a0,9d013d28 <__malloc0+0x48>
9d013d24:	ac600000 	sw	zero,0(v1)
9d013d28:	1000fff7 	b	9d013d08 <__malloc0+0x28>
9d013d2c:	24630004 	addiu	v1,v1,4

Disassembly of section .text.__stdio_exit:

9d013d30 <__stdio_exit>:
9d013d30:	27bdffe8 	addiu	sp,sp,-24
9d013d34:	afbf0014 	sw	ra,20(sp)
9d013d38:	0f405276 	jal	9d0149d8 <__stdio_exit_ofl>
9d013d3c:	00000000 	nop
9d013d40:	3c02a000 	lui	v0,0xa000
9d013d44:	8c440df4 	lw	a0,3572(v0)
9d013d48:	0f405087 	jal	9d01421c <__fclose>
9d013d4c:	00002825 	move	a1,zero
9d013d50:	3c02a000 	lui	v0,0xa000
9d013d54:	8c440df4 	lw	a0,3572(v0)
9d013d58:	0f405087 	jal	9d01421c <__fclose>
9d013d5c:	00002825 	move	a1,zero
9d013d60:	3c02a000 	lui	v0,0xa000
9d013d64:	8c440df4 	lw	a0,3572(v0)
9d013d68:	0f405087 	jal	9d01421c <__fclose>
9d013d6c:	00002825 	move	a1,zero
9d013d70:	8fbf0014 	lw	ra,20(sp)
9d013d74:	03e00008 	jr	ra
9d013d78:	27bd0018 	addiu	sp,sp,24

Disassembly of section .text.sbrk:

9d013d7c <sbrk>:
9d013d7c:	27bdffe8 	addiu	sp,sp,-24
9d013d80:	afb00010 	sw	s0,16(sp)
9d013d84:	afbf0014 	sw	ra,20(sp)
9d013d88:	0f404935 	jal	9d0124d4 <_sbrk>
9d013d8c:	00808025 	move	s0,a0
9d013d90:	1a000008 	blez	s0,9d013db4 <sbrk+0x38>
9d013d94:	00401825 	move	v1,v0
9d013d98:	2402ffff 	li	v0,-1
9d013d9c:	10620005 	beq	v1,v0,9d013db4 <sbrk+0x38>
9d013da0:	00602025 	move	a0,v1
9d013da4:	02003025 	move	a2,s0
9d013da8:	0f405189 	jal	9d014624 <memset>
9d013dac:	00002825 	move	a1,zero
9d013db0:	00401825 	move	v1,v0
9d013db4:	8fbf0014 	lw	ra,20(sp)
9d013db8:	00601025 	move	v0,v1
9d013dbc:	8fb00010 	lw	s0,16(sp)
9d013dc0:	03e00008 	jr	ra
9d013dc4:	27bd0018 	addiu	sp,sp,24

Disassembly of section .text._bootstrap_exception_handler:

9d013dc8 <_bootstrap_exception_handler>:
9d013dc8:	3c020000 	lui	v0,0x0
9d013dcc:	24420000 	addiu	v0,v0,0
9d013dd0:	10400005 	beqz	v0,9d013de8 <_bootstrap_exception_handler+0x20>
9d013dd4:	3c020000 	lui	v0,0x0
9d013dd8:	24420000 	addiu	v0,v0,0
9d013ddc:	10400003 	beqz	v0,9d013dec <_bootstrap_exception_handler+0x24>
9d013de0:	3c029d01 	lui	v0,0x9d01
9d013de4:	7000003f 	sdbbp
9d013de8:	3c029d01 	lui	v0,0x9d01
9d013dec:	24423f30 	addiu	v0,v0,16176
9d013df0:	10400005 	beqz	v0,9d013e08 <_bootstrap_exception_handler+0x40>
9d013df4:	00000000 	nop
9d013df8:	27bdffe8 	addiu	sp,sp,-24
9d013dfc:	afbf0014 	sw	ra,20(sp)
9d013e00:	0040f809 	jalr	v0
9d013e04:	00000000 	nop
9d013e08:	1000ffff 	b	9d013e08 <_bootstrap_exception_handler+0x40>
9d013e0c:	00000000 	nop

Disassembly of section .text._general_exception_handler:

9d013e10 <_general_exception_handler>:
9d013e10:	3c020000 	lui	v0,0x0
9d013e14:	24420000 	addiu	v0,v0,0
9d013e18:	10400005 	beqz	v0,9d013e30 <_general_exception_handler+0x20>
9d013e1c:	3c020000 	lui	v0,0x0
9d013e20:	24420000 	addiu	v0,v0,0
9d013e24:	10400003 	beqz	v0,9d013e34 <_general_exception_handler+0x24>
9d013e28:	3c029d01 	lui	v0,0x9d01
9d013e2c:	7000003f 	sdbbp
9d013e30:	3c029d01 	lui	v0,0x9d01
9d013e34:	24423f30 	addiu	v0,v0,16176
9d013e38:	10400005 	beqz	v0,9d013e50 <_general_exception_handler+0x40>
9d013e3c:	00000000 	nop
9d013e40:	27bdffe8 	addiu	sp,sp,-24
9d013e44:	afbf0014 	sw	ra,20(sp)
9d013e48:	0040f809 	jalr	v0
9d013e4c:	00000000 	nop
9d013e50:	1000ffff 	b	9d013e50 <_general_exception_handler+0x40>
9d013e54:	00000000 	nop

Disassembly of section .vector_default:

9d013e58 <_DefaultInterrupt>:
9d013e58:	3c020000 	lui	v0,0x0
9d013e5c:	24420000 	addiu	v0,v0,0
9d013e60:	10400007 	beqz	v0,9d013e80 <_DefaultInterrupt+0x28>
9d013e64:	3c020000 	lui	v0,0x0
9d013e68:	24420000 	addiu	v0,v0,0
9d013e6c:	50400005 	beqzl	v0,9d013e84 <_DefaultInterrupt+0x2c>
9d013e70:	3c029d01 	lui	v0,0x9d01
9d013e74:	7000003f 	sdbbp
9d013e78:	03e00008 	jr	ra
9d013e7c:	00000000 	nop
9d013e80:	3c029d01 	lui	v0,0x9d01
9d013e84:	24423f30 	addiu	v0,v0,16176
9d013e88:	10400003 	beqz	v0,9d013e98 <_DefaultInterrupt+0x40>
9d013e8c:	00000000 	nop
9d013e90:	0040f809 	jalr	v0
9d013e94:	00000000 	nop
9d013e98:	03e00008 	jr	ra
9d013e9c:	00000000 	nop

Disassembly of section .text.__ftello_adj_rw:

9d013ea0 <__ftello_adj_rw>:
9d013ea0:	8c820004 	lw	v0,4(a0)
9d013ea4:	30460002 	andi	a2,v0,0x2
9d013ea8:	14c00004 	bnez	a2,9d013ebc <__ftello_adj_rw+0x1c>
9d013eac:	00001825 	move	v1,zero
9d013eb0:	8c830040 	lw	v1,64(a0)
9d013eb4:	8c86003c 	lw	a2,60(a0)
9d013eb8:	00661823 	subu	v1,v1,a2
9d013ebc:	8c870014 	lw	a3,20(a0)
9d013ec0:	8c860018 	lw	a2,24(a0)
9d013ec4:	00e62023 	subu	a0,a3,a2
9d013ec8:	00831821 	addu	v1,a0,v1
9d013ecc:	aca30000 	sw	v1,0(a1)
9d013ed0:	30430040 	andi	v1,v0,0x40
9d013ed4:	10600002 	beqz	v1,9d013ee0 <__ftello_adj_rw+0x40>
9d013ed8:	00001025 	move	v0,zero
9d013edc:	00c7102b 	sltu	v0,a2,a3
9d013ee0:	03e00008 	jr	ra
9d013ee4:	00000000 	nop

Disassembly of section .text.__stdio_seek_unbuffered:

9d013ee8 <__stdio_seek_unbuffered>:
9d013ee8:	27bdffe8 	addiu	sp,sp,-24
9d013eec:	afb00010 	sw	s0,16(sp)
9d013ef0:	00808025 	move	s0,a0
9d013ef4:	8c840000 	lw	a0,0(a0)
9d013ef8:	afbf0014 	sw	ra,20(sp)
9d013efc:	0f405284 	jal	9d014a10 <lseek>
9d013f00:	00000000 	nop
9d013f04:	04400005 	bltz	v0,9d013f1c <__stdio_seek_unbuffered+0x34>
9d013f08:	2403ffff 	li	v1,-1
9d013f0c:	8e020004 	lw	v0,4(s0)
9d013f10:	00001825 	move	v1,zero
9d013f14:	7c0218c4 	ins	v0,zero,0x3,0x1
9d013f18:	ae020004 	sw	v0,4(s0)
9d013f1c:	8fbf0014 	lw	ra,20(sp)
9d013f20:	00601025 	move	v0,v1
9d013f24:	8fb00010 	lw	s0,16(sp)
9d013f28:	03e00008 	jr	ra
9d013f2c:	27bd0018 	addiu	sp,sp,24

Disassembly of section .text:

9d013f30 <__pic32_software_reset>:
9d013f30:	41606000 	di
9d013f34:	000000c0 	ehb
9d013f38:	3c03aa99 	lui	v1,0xaa99
9d013f3c:	3c02bf81 	lui	v0,0xbf81
9d013f40:	24636655 	addiu	v1,v1,26197
9d013f44:	ac40f230 	sw	zero,-3536(v0)
9d013f48:	ac43f230 	sw	v1,-3536(v0)
9d013f4c:	3c035566 	lui	v1,0x5566
9d013f50:	346399aa 	ori	v1,v1,0x99aa
9d013f54:	ac43f230 	sw	v1,-3536(v0)
9d013f58:	3c02bf81 	lui	v0,0xbf81
9d013f5c:	24030001 	li	v1,1
9d013f60:	ac43f618 	sw	v1,-2536(v0)
9d013f64:	3c02bf81 	lui	v0,0xbf81
9d013f68:	8c42f610 	lw	v0,-2544(v0)
9d013f6c:	0b404fce 	j	9d013f38 <__pic32_software_reset+0x8>
9d013f70:	00000000 	nop

Disassembly of section .text.__sio_sscanf_dfoux:

9d013f74 <__sio_sscanf_dfoux>:
9d013f74:	27bdffe8 	addiu	sp,sp,-24
9d013f78:	afbf0014 	sw	ra,20(sp)
9d013f7c:	0f404d51 	jal	9d013544 <__scan_d>
9d013f80:	00000000 	nop
9d013f84:	0f4035d1 	jal	9d00d744 <__scan_fp>
9d013f88:	00000000 	nop
9d013f8c:	0f4042a0 	jal	9d010a80 <__scan_o>
9d013f90:	00000000 	nop
9d013f94:	0f404d6d 	jal	9d0135b4 <__scan_u>
9d013f98:	00000000 	nop
9d013f9c:	0f403dfd 	jal	9d00f7f4 <__scan_x>
9d013fa0:	00000000 	nop
9d013fa4:	0f40424a 	jal	9d010928 <__scan_s>
9d013fa8:	00000000 	nop
9d013fac:	8fbf0014 	lw	ra,20(sp)
9d013fb0:	03e00008 	jr	ra
9d013fb4:	27bd0018 	addiu	sp,sp,24

Disassembly of section .text.__towrite:

9d013fb8 <__towrite>:
9d013fb8:	27bdffe8 	addiu	sp,sp,-24
9d013fbc:	afb00010 	sw	s0,16(sp)
9d013fc0:	afbf0014 	sw	ra,20(sp)
9d013fc4:	0f40501e 	jal	9d014078 <__towrite_rw>
9d013fc8:	00808025 	move	s0,a0
9d013fcc:	14400008 	bnez	v0,9d013ff0 <__towrite+0x38>
9d013fd0:	8fbf0014 	lw	ra,20(sp)
9d013fd4:	8e030008 	lw	v1,8(s0)
9d013fd8:	8e04000c 	lw	a0,12(s0)
9d013fdc:	ae030018 	sw	v1,24(s0)
9d013fe0:	ae030014 	sw	v1,20(s0)
9d013fe4:	00641821 	addu	v1,v1,a0
9d013fe8:	ae030028 	sw	v1,40(s0)
9d013fec:	8fbf0014 	lw	ra,20(sp)
9d013ff0:	8fb00010 	lw	s0,16(sp)
9d013ff4:	03e00008 	jr	ra
9d013ff8:	27bd0018 	addiu	sp,sp,24

Disassembly of section .text:

9d013ffc <__floatunsidf>:
9d013ffc:	27bdffe8 	addiu	sp,sp,-24
9d014000:	afb00010 	sw	s0,16(sp)
9d014004:	afbf0014 	sw	ra,20(sp)
9d014008:	0f404cf9 	jal	9d0133e4 <__floatsidf>
9d01400c:	00808025 	move	s0,a0
9d014010:	06010006 	bgez	s0,9d01402c <__floatunsidf+0x30>
9d014014:	00602825 	move	a1,v1
9d014018:	3c049d00 	lui	a0,0x9d00
9d01401c:	8c867638 	lw	a2,30264(a0)
9d014020:	8c87763c 	lw	a3,30268(a0)
9d014024:	0f4034c7 	jal	9d00d31c <__adddf3>
9d014028:	00402025 	move	a0,v0
9d01402c:	8fbf0014 	lw	ra,20(sp)
9d014030:	8fb00010 	lw	s0,16(sp)
9d014034:	03e00008 	jr	ra
9d014038:	27bd0018 	addiu	sp,sp,24

Disassembly of section .text.__sio_sscanf_doux:

9d01403c <__sio_sscanf_doux>:
9d01403c:	27bdffe8 	addiu	sp,sp,-24
9d014040:	afbf0014 	sw	ra,20(sp)
9d014044:	0f404d51 	jal	9d013544 <__scan_d>
9d014048:	00000000 	nop
9d01404c:	0f4042a0 	jal	9d010a80 <__scan_o>
9d014050:	00000000 	nop
9d014054:	0f404d6d 	jal	9d0135b4 <__scan_u>
9d014058:	00000000 	nop
9d01405c:	0f403dfd 	jal	9d00f7f4 <__scan_x>
9d014060:	00000000 	nop
9d014064:	0f40424a 	jal	9d010928 <__scan_s>
9d014068:	00000000 	nop
9d01406c:	8fbf0014 	lw	ra,20(sp)
9d014070:	03e00008 	jr	ra
9d014074:	27bd0018 	addiu	sp,sp,24

Disassembly of section .text.__towrite_rw:

9d014078 <__towrite_rw>:
9d014078:	80820048 	lb	v0,72(a0)
9d01407c:	2443ffff 	addiu	v1,v0,-1
9d014080:	00431025 	or	v0,v0,v1
9d014084:	a0820048 	sb	v0,72(a0)
9d014088:	8c820004 	lw	v0,4(a0)
9d01408c:	30430004 	andi	v1,v0,0x4
9d014090:	50600005 	beqzl	v1,9d0140a8 <__towrite_rw+0x30>
9d014094:	ac800040 	sw	zero,64(a0)
9d014098:	34420010 	ori	v0,v0,0x10
9d01409c:	ac820004 	sw	v0,4(a0)
9d0140a0:	03e00008 	jr	ra
9d0140a4:	2402ffff 	li	v0,-1
9d0140a8:	ac80003c 	sw	zero,60(a0)
9d0140ac:	03e00008 	jr	ra
9d0140b0:	00001025 	move	v0,zero

Disassembly of section .text.__vfscanf:

9d0140b4 <__vfscanf>:
9d0140b4:	27bdffe0 	addiu	sp,sp,-32
9d0140b8:	afb00018 	sw	s0,24(sp)
9d0140bc:	afa60010 	sw	a2,16(sp)
9d0140c0:	00808025 	move	s0,a0
9d0140c4:	afbf001c 	sw	ra,28(sp)
9d0140c8:	0f40266b 	jal	9d0099ac <__scanf_core>
9d0140cc:	27a60010 	addiu	a2,sp,16
9d0140d0:	8e030004 	lw	v1,4(s0)
9d0140d4:	8fbf001c 	lw	ra,28(sp)
9d0140d8:	2404ffff 	li	a0,-1
9d0140dc:	30630010 	andi	v1,v1,0x10
9d0140e0:	0083100b 	movn	v0,a0,v1
9d0140e4:	8fb00018 	lw	s0,24(sp)
9d0140e8:	03e00008 	jr	ra
9d0140ec:	27bd0020 	addiu	sp,sp,32

Disassembly of section .text.__expand_heap:

9d0140f0 <__expand_heap>:
9d0140f0:	8c840000 	lw	a0,0(a0)
9d0140f4:	04810003 	bgez	a0,9d014104 <__expand_heap+0x14>
9d0140f8:	00001025 	move	v0,zero
9d0140fc:	03e00008 	jr	ra
9d014100:	00000000 	nop
9d014104:	27bdffe8 	addiu	sp,sp,-24
9d014108:	afbf0014 	sw	ra,20(sp)
9d01410c:	0f404935 	jal	9d0124d4 <_sbrk>
9d014110:	00000000 	nop
9d014114:	2403ffff 	li	v1,-1
9d014118:	50430001 	beql	v0,v1,9d014120 <__expand_heap+0x30>
9d01411c:	00001025 	move	v0,zero
9d014120:	8fbf0014 	lw	ra,20(sp)
9d014124:	03e00008 	jr	ra
9d014128:	27bd0018 	addiu	sp,sp,24

Disassembly of section .text.__vfprintf:

9d01412c <__vfprintf>:
9d01412c:	27bdffe0 	addiu	sp,sp,-32
9d014130:	afb00018 	sw	s0,24(sp)
9d014134:	afa60010 	sw	a2,16(sp)
9d014138:	00808025 	move	s0,a0
9d01413c:	afbf001c 	sw	ra,28(sp)
9d014140:	0f402f04 	jal	9d00bc10 <__printf_core>
9d014144:	27a60010 	addiu	a2,sp,16
9d014148:	8e030004 	lw	v1,4(s0)
9d01414c:	8fbf001c 	lw	ra,28(sp)
9d014150:	2404ffff 	li	a0,-1
9d014154:	30630010 	andi	v1,v1,0x10
9d014158:	0083100b 	movn	v0,a0,v1
9d01415c:	8fb00018 	lw	s0,24(sp)
9d014160:	03e00008 	jr	ra
9d014164:	27bd0020 	addiu	sp,sp,32

Disassembly of section .text.logbf:

9d014168 <logbf>:
9d014168:	27bdffe8 	addiu	sp,sp,-24
9d01416c:	afbf0014 	sw	ra,20(sp)
9d014170:	0f4046c2 	jal	9d011b08 <__truncdfsf2>
9d014174:	00000000 	nop
9d014178:	0f40498c 	jal	9d012630 <__extendsfdf2>
9d01417c:	00402025 	move	a0,v0
9d014180:	00402025 	move	a0,v0
9d014184:	0f40456e 	jal	9d0115b8 <logbl>
9d014188:	00602825 	move	a1,v1
9d01418c:	00402025 	move	a0,v0
9d014190:	0f4046c2 	jal	9d011b08 <__truncdfsf2>
9d014194:	00602825 	move	a1,v1
9d014198:	8fbf0014 	lw	ra,20(sp)
9d01419c:	03e00008 	jr	ra
9d0141a0:	27bd0018 	addiu	sp,sp,24

Disassembly of section .text:

9d0141a4 <__lshrdi3>:
9d0141a4:	10c00008 	beqz	a2,9d0141c8 <__lshrdi3+0x24>
9d0141a8:	00801025 	move	v0,a0
9d0141ac:	24030020 	li	v1,32
9d0141b0:	00661823 	subu	v1,v1,a2
9d0141b4:	1c600006 	bgtz	v1,9d0141d0 <__lshrdi3+0x2c>
9d0141b8:	00c52006 	srlv	a0,a1,a2
9d0141bc:	00002025 	move	a0,zero
9d0141c0:	00c51006 	srlv	v0,a1,a2
9d0141c4:	00802825 	move	a1,a0
9d0141c8:	03e00008 	jr	ra
9d0141cc:	00a01825 	move	v1,a1
9d0141d0:	00c21006 	srlv	v0,v0,a2
9d0141d4:	00652804 	sllv	a1,a1,v1
9d0141d8:	1000fffa 	b	9d0141c4 <__lshrdi3+0x20>
9d0141dc:	00451025 	or	v0,v0,a1

9d0141e0 <__ashldi3>:
9d0141e0:	10c00008 	beqz	a2,9d014204 <__ashldi3+0x24>
9d0141e4:	00801025 	move	v0,a0
9d0141e8:	24040020 	li	a0,32
9d0141ec:	00862023 	subu	a0,a0,a2
9d0141f0:	5c800006 	bgtzl	a0,9d01420c <__ashldi3+0x2c>
9d0141f4:	00c21804 	sllv	v1,v0,a2
9d0141f8:	00001825 	move	v1,zero
9d0141fc:	00c22804 	sllv	a1,v0,a2
9d014200:	00601025 	move	v0,v1
9d014204:	03e00008 	jr	ra
9d014208:	00a01825 	move	v1,a1
9d01420c:	00c52804 	sllv	a1,a1,a2
9d014210:	00821006 	srlv	v0,v0,a0
9d014214:	1000fffa 	b	9d014200 <__ashldi3+0x20>
9d014218:	00a22825 	or	a1,a1,v0

Disassembly of section .text.__fclose:

9d01421c <__fclose>:
9d01421c:	1080000b 	beqz	a0,9d01424c <__fclose+0x30>
9d014220:	00001025 	move	v0,zero
9d014224:	8c83001c 	lw	v1,28(a0)
9d014228:	10600008 	beqz	v1,9d01424c <__fclose+0x30>
9d01422c:	00000000 	nop
9d014230:	27bdffe8 	addiu	sp,sp,-24
9d014234:	afbf0014 	sw	ra,20(sp)
9d014238:	0060f809 	jalr	v1
9d01423c:	00000000 	nop
9d014240:	8fbf0014 	lw	ra,20(sp)
9d014244:	03e00008 	jr	ra
9d014248:	27bd0018 	addiu	sp,sp,24
9d01424c:	03e00008 	jr	ra
9d014250:	00000000 	nop

Disassembly of section .text.lock_bin:

9d014254 <lock_bin>:
9d014254:	24840001 	addiu	a0,a0,1
9d014258:	000410c0 	sll	v0,a0,0x3
9d01425c:	3c04a000 	lui	a0,0xa000
9d014260:	24840e00 	addiu	a0,a0,3584
9d014264:	00441821 	addu	v1,v0,a0
9d014268:	8c650000 	lw	a1,0(v1)
9d01426c:	14a00004 	bnez	a1,9d014280 <lock_bin+0x2c>
9d014270:	2442fff8 	addiu	v0,v0,-8
9d014274:	00822021 	addu	a0,a0,v0
9d014278:	ac640004 	sw	a0,4(v1)
9d01427c:	ac640000 	sw	a0,0(v1)
9d014280:	03e00008 	jr	ra
9d014284:	00000000 	nop

Disassembly of section .text.__fwrite:

9d014288 <__fwrite>:
9d014288:	8c83002c 	lw	v1,44(a0)
9d01428c:	27bdffe8 	addiu	sp,sp,-24
9d014290:	10600006 	beqz	v1,9d0142ac <__fwrite+0x24>
9d014294:	afbf0014 	sw	ra,20(sp)
9d014298:	0060f809 	jalr	v1
9d01429c:	00000000 	nop
9d0142a0:	8fbf0014 	lw	ra,20(sp)
9d0142a4:	03e00008 	jr	ra
9d0142a8:	27bd0018 	addiu	sp,sp,24
9d0142ac:	0f404c19 	jal	9d013064 <write>
9d0142b0:	8c840000 	lw	a0,0(a0)
9d0142b4:	1000fffb 	b	9d0142a4 <__fwrite+0x1c>
9d0142b8:	8fbf0014 	lw	ra,20(sp)

Disassembly of section .text.finitef:

9d0142bc <finitef>:
9d0142bc:	27bdffe8 	addiu	sp,sp,-24
9d0142c0:	afbf0014 	sw	ra,20(sp)
9d0142c4:	0f4046c2 	jal	9d011b08 <__truncdfsf2>
9d0142c8:	00000000 	nop
9d0142cc:	0f40498c 	jal	9d012630 <__extendsfdf2>
9d0142d0:	00402025 	move	a0,v0
9d0142d4:	00031403 	sra	v0,v1,0x10
9d0142d8:	8fbf0014 	lw	ra,20(sp)
9d0142dc:	30427ff0 	andi	v0,v0,0x7ff0
9d0142e0:	38427ff0 	xori	v0,v0,0x7ff0
9d0142e4:	0002102b 	sltu	v0,zero,v0
9d0142e8:	03e00008 	jr	ra
9d0142ec:	27bd0018 	addiu	sp,sp,24

Disassembly of section .text.memchr:

9d0142f0 <memchr>:
9d0142f0:	00801025 	move	v0,a0
9d0142f4:	30a500ff 	andi	a1,a1,0xff
9d0142f8:	00863021 	addu	a2,a0,a2
9d0142fc:	54460004 	bnel	v0,a2,9d014310 <memchr+0x20>
9d014300:	90430000 	lbu	v1,0(v0)
9d014304:	00001025 	move	v0,zero
9d014308:	03e00008 	jr	ra
9d01430c:	00000000 	nop
9d014310:	1065fffd 	beq	v1,a1,9d014308 <memchr+0x18>
9d014314:	00000000 	nop
9d014318:	1000fff8 	b	9d0142fc <memchr+0xc>
9d01431c:	24420001 	addiu	v0,v0,1

Disassembly of section .text.copysign:

9d014320 <copysign>:
9d014320:	00071c02 	srl	v1,a3,0x10
9d014324:	7c037004 	ins	v1,zero,0x0,0xf
9d014328:	7ca27400 	ext	v0,a1,0x10,0xf
9d01432c:	27bdfff8 	addiu	sp,sp,-8
9d014330:	00431025 	or	v0,v0,v1
9d014334:	afa50004 	sw	a1,4(sp)
9d014338:	afa40000 	sw	a0,0(sp)
9d01433c:	a7a20006 	sh	v0,6(sp)
9d014340:	8fa30004 	lw	v1,4(sp)
9d014344:	8fa20000 	lw	v0,0(sp)
9d014348:	03e00008 	jr	ra
9d01434c:	27bd0008 	addiu	sp,sp,8

Disassembly of section .text.strtoull:

9d014350 <strtoull>:
9d014350:	27bdffe0 	addiu	sp,sp,-32
9d014354:	2402ffff 	li	v0,-1
9d014358:	2403ffff 	li	v1,-1
9d01435c:	afa20010 	sw	v0,16(sp)
9d014360:	afa30014 	sw	v1,20(sp)
9d014364:	afbf001c 	sw	ra,28(sp)
9d014368:	0f4048ae 	jal	9d0122b8 <strtox>
9d01436c:	00000000 	nop
9d014370:	8fbf001c 	lw	ra,28(sp)
9d014374:	03e00008 	jr	ra
9d014378:	27bd0020 	addiu	sp,sp,32

Disassembly of section .text.strtoll:

9d01437c <strtoll>:
9d01437c:	27bdffe0 	addiu	sp,sp,-32
9d014380:	00001025 	move	v0,zero
9d014384:	3c038000 	lui	v1,0x8000
9d014388:	afa20010 	sw	v0,16(sp)
9d01438c:	afa30014 	sw	v1,20(sp)
9d014390:	afbf001c 	sw	ra,28(sp)
9d014394:	0f4048ae 	jal	9d0122b8 <strtox>
9d014398:	00000000 	nop
9d01439c:	8fbf001c 	lw	ra,28(sp)
9d0143a0:	03e00008 	jr	ra
9d0143a4:	27bd0020 	addiu	sp,sp,32

Disassembly of section .text.strtoul:

9d0143a8 <strtoul>:
9d0143a8:	27bdffe0 	addiu	sp,sp,-32
9d0143ac:	2402ffff 	li	v0,-1
9d0143b0:	00001825 	move	v1,zero
9d0143b4:	afa20010 	sw	v0,16(sp)
9d0143b8:	afa30014 	sw	v1,20(sp)
9d0143bc:	afbf001c 	sw	ra,28(sp)
9d0143c0:	0f4048ae 	jal	9d0122b8 <strtox>
9d0143c4:	00000000 	nop
9d0143c8:	8fbf001c 	lw	ra,28(sp)
9d0143cc:	03e00008 	jr	ra
9d0143d0:	27bd0020 	addiu	sp,sp,32

Disassembly of section .text.strtol:

9d0143d4 <strtol>:
9d0143d4:	27bdffe0 	addiu	sp,sp,-32
9d0143d8:	3c028000 	lui	v0,0x8000
9d0143dc:	00001825 	move	v1,zero
9d0143e0:	afa20010 	sw	v0,16(sp)
9d0143e4:	afa30014 	sw	v1,20(sp)
9d0143e8:	afbf001c 	sw	ra,28(sp)
9d0143ec:	0f4048ae 	jal	9d0122b8 <strtox>
9d0143f0:	00000000 	nop
9d0143f4:	8fbf001c 	lw	ra,28(sp)
9d0143f8:	03e00008 	jr	ra
9d0143fc:	27bd0020 	addiu	sp,sp,32

Disassembly of section .text.memcpy:

9d014400 <memcpy>:
9d014400:	00801025 	move	v0,a0
9d014404:	00001825 	move	v1,zero
9d014408:	14c30003 	bne	a2,v1,9d014418 <memcpy+0x18>
9d01440c:	00a33821 	addu	a3,a1,v1
9d014410:	03e00008 	jr	ra
9d014414:	00000000 	nop
9d014418:	90e70000 	lbu	a3,0(a3)
9d01441c:	00432021 	addu	a0,v0,v1
9d014420:	24630001 	addiu	v1,v1,1
9d014424:	1000fff8 	b	9d014408 <memcpy+0x8>
9d014428:	a0870000 	sb	a3,0(a0)

Disassembly of section .rodata:

9d01442c <CSWTCH.35>:
9d01442c:	fbceff6b 0000fbce                       k.......

9d014434 <CSWTCH.34>:
9d014434:	00353518                                .55.

9d014438 <p10s.2639>:
9d014438:	0000000a 00000064 000003e8 00002710     ....d........'..
9d014448:	000186a0 000f4240 00989680 05f5e100     ....@B..........

Disassembly of section .text.__shlim:

9d014458 <__shlim>:
9d014458:	8c830040 	lw	v1,64(a0)
9d01445c:	8c86003c 	lw	a2,60(a0)
9d014460:	ac850050 	sw	a1,80(a0)
9d014464:	00661023 	subu	v0,v1,a2
9d014468:	10a00004 	beqz	a1,9d01447c <__shlim+0x24>
9d01446c:	ac820054 	sw	v0,84(a0)
9d014470:	00a2102a 	slt	v0,a1,v0
9d014474:	54400001 	bnezl	v0,9d01447c <__shlim+0x24>
9d014478:	00c51821 	addu	v1,a2,a1
9d01447c:	03e00008 	jr	ra
9d014480:	ac83004c 	sw	v1,76(a0)

Disassembly of section .text.__dummy:

9d014484 <__dummy>:
9d014484:	8c870014 	lw	a3,20(a0)
9d014488:	8c860018 	lw	a2,24(a0)
9d01448c:	8c830004 	lw	v1,4(a0)
9d014490:	00e61023 	subu	v0,a3,a2
9d014494:	30630040 	andi	v1,v1,0x40
9d014498:	aca20000 	sw	v0,0(a1)
9d01449c:	10600002 	beqz	v1,9d0144a8 <__dummy+0x24>
9d0144a0:	00001025 	move	v0,zero
9d0144a4:	00c7102b 	sltu	v0,a2,a3
9d0144a8:	03e00008 	jr	ra
9d0144ac:	00000000 	nop

Disassembly of section .text.__init_stdio:

9d0144b0 <__init_stdio>:
9d0144b0:	27bdffe8 	addiu	sp,sp,-24
9d0144b4:	afbf0014 	sw	ra,20(sp)
9d0144b8:	0f405280 	jal	9d014a00 <__init_stderr>
9d0144bc:	00000000 	nop
9d0144c0:	0f405280 	jal	9d014a00 <__init_stderr>
9d0144c4:	00000000 	nop
9d0144c8:	0f405280 	jal	9d014a00 <__init_stderr>
9d0144cc:	00000000 	nop
9d0144d0:	8fbf0014 	lw	ra,20(sp)
9d0144d4:	03e00008 	jr	ra
9d0144d8:	27bd0018 	addiu	sp,sp,24

Disassembly of section .text.copysignl:

9d0144dc <copysignl>:
9d0144dc:	afa50004 	sw	a1,4(sp)
9d0144e0:	97a20006 	lhu	v0,6(sp)
9d0144e4:	00073c02 	srl	a3,a3,0x10
9d0144e8:	7c077004 	ins	a3,zero,0x0,0xf
9d0144ec:	30427fff 	andi	v0,v0,0x7fff
9d0144f0:	00471025 	or	v0,v0,a3
9d0144f4:	a7a20006 	sh	v0,6(sp)
9d0144f8:	afa40000 	sw	a0,0(sp)
9d0144fc:	8fa20000 	lw	v0,0(sp)
9d014500:	03e00008 	jr	ra
9d014504:	8fa30004 	lw	v1,4(sp)

Disassembly of section .text._stub_sbd_memlayout:

9d014508 <_stub_sbd_memlayout>:
9d014508:	3c04a000 	lui	a0,0xa000
9d01450c:	24821058 	addiu	v0,a0,4184
9d014510:	24030001 	li	v1,1
9d014514:	ac430008 	sw	v1,8(v0)
9d014518:	3c03a000 	lui	v1,0xa000
9d01451c:	24631088 	addiu	v1,v1,4232
9d014520:	ac831058 	sw	v1,4184(a0)
9d014524:	3c030000 	lui	v1,0x0
9d014528:	24630000 	addiu	v1,v1,0
9d01452c:	03e00008 	jr	ra
9d014530:	ac430004 	sw	v1,4(v0)

Disassembly of section .text.__wrap_sprintf:

9d014534 <_dsprintf_cdeEfFgGnopuxX>:
9d014534:	27bdffe0 	addiu	sp,sp,-32
9d014538:	afa60028 	sw	a2,40(sp)
9d01453c:	27a60028 	addiu	a2,sp,40
9d014540:	afbf001c 	sw	ra,28(sp)
9d014544:	afa7002c 	sw	a3,44(sp)
9d014548:	0f40517f 	jal	9d0145fc <__vsprintf>
9d01454c:	afa60010 	sw	a2,16(sp)
9d014550:	8fbf001c 	lw	ra,28(sp)
9d014554:	03e00008 	jr	ra
9d014558:	27bd0020 	addiu	sp,sp,32

Disassembly of section .text.__wrap_sscanf:

9d01455c <_dsscanf_cdeEfFgGnopuxX>:
9d01455c:	27bdffe0 	addiu	sp,sp,-32
9d014560:	afa60028 	sw	a2,40(sp)
9d014564:	27a60028 	addiu	a2,sp,40
9d014568:	afbf001c 	sw	ra,28(sp)
9d01456c:	afa7002c 	sw	a3,44(sp)
9d014570:	0f404ddd 	jal	9d013774 <__vsscanf>
9d014574:	afa60010 	sw	a2,16(sp)
9d014578:	8fbf001c 	lw	ra,28(sp)
9d01457c:	03e00008 	jr	ra
9d014580:	27bd0020 	addiu	sp,sp,32

9d014584 <_dsscanf_cdnopuxX>:
9d014584:	27bdffe0 	addiu	sp,sp,-32
9d014588:	afa60028 	sw	a2,40(sp)
9d01458c:	27a60028 	addiu	a2,sp,40
9d014590:	afbf001c 	sw	ra,28(sp)
9d014594:	afa7002c 	sw	a3,44(sp)
9d014598:	0f404ddd 	jal	9d013774 <__vsscanf>
9d01459c:	afa60010 	sw	a2,16(sp)
9d0145a0:	8fbf001c 	lw	ra,28(sp)
9d0145a4:	03e00008 	jr	ra
9d0145a8:	27bd0020 	addiu	sp,sp,32

Disassembly of section .text.strtof:

9d0145ac <strtof>:
9d0145ac:	27bdffe8 	addiu	sp,sp,-24
9d0145b0:	afbf0014 	sw	ra,20(sp)
9d0145b4:	0f404a34 	jal	9d0128d0 <strtox>
9d0145b8:	00003025 	move	a2,zero
9d0145bc:	00402025 	move	a0,v0
9d0145c0:	0f4046c2 	jal	9d011b08 <__truncdfsf2>
9d0145c4:	00602825 	move	a1,v1
9d0145c8:	8fbf0014 	lw	ra,20(sp)
9d0145cc:	03e00008 	jr	ra
9d0145d0:	27bd0018 	addiu	sp,sp,24

Disassembly of section .text.strcpy:

9d0145d4 <strcpy>:
9d0145d4:	27bdffe8 	addiu	sp,sp,-24
9d0145d8:	afb00010 	sw	s0,16(sp)
9d0145dc:	afbf0014 	sw	ra,20(sp)
9d0145e0:	0f4051a3 	jal	9d01468c <stpcpy>
9d0145e4:	00808025 	move	s0,a0
9d0145e8:	8fbf0014 	lw	ra,20(sp)
9d0145ec:	02001025 	move	v0,s0
9d0145f0:	8fb00010 	lw	s0,16(sp)
9d0145f4:	03e00008 	jr	ra
9d0145f8:	27bd0018 	addiu	sp,sp,24

Disassembly of section .text.__vsprintf:

9d0145fc <__vsprintf>:
9d0145fc:	00c03825 	move	a3,a2
9d014600:	00a03025 	move	a2,a1
9d014604:	3c057fff 	lui	a1,0x7fff
9d014608:	27bdffe8 	addiu	sp,sp,-24
9d01460c:	afbf0014 	sw	ra,20(sp)
9d014610:	0f404c5b 	jal	9d01316c <__vsnprintf>
9d014614:	34a5ffff 	ori	a1,a1,0xffff
9d014618:	8fbf0014 	lw	ra,20(sp)
9d01461c:	03e00008 	jr	ra
9d014620:	27bd0018 	addiu	sp,sp,24

Disassembly of section .text.memset:

9d014624 <memset>:
9d014624:	00801025 	move	v0,a0
9d014628:	00863021 	addu	a2,a0,a2
9d01462c:	00801825 	move	v1,a0
9d014630:	14660003 	bne	v1,a2,9d014640 <memset+0x1c>
9d014634:	24630001 	addiu	v1,v1,1
9d014638:	03e00008 	jr	ra
9d01463c:	00000000 	nop
9d014640:	1000fffb 	b	9d014630 <memset+0xc>
9d014644:	a065ffff 	sb	a1,-1(v1)

Disassembly of section .text.isxdigit:

9d014648 <isxdigit>:
9d014648:	2483ffd0 	addiu	v1,a0,-48
9d01464c:	2c63000a 	sltiu	v1,v1,10
9d014650:	14600004 	bnez	v1,9d014664 <isxdigit+0x1c>
9d014654:	24020001 	li	v0,1
9d014658:	34840020 	ori	a0,a0,0x20
9d01465c:	2482ff9f 	addiu	v0,a0,-97
9d014660:	2c420006 	sltiu	v0,v0,6
9d014664:	03e00008 	jr	ra
9d014668:	00000000 	nop

Disassembly of section .text.dinit.startup:

9d01466c <__pic32_data_init>:
9d01466c:	03e01825 	move	v1,ra
9d014670:	3c089d01 	lui	t0,0x9d01
9d014674:	250830ec 	addiu	t0,t0,12524
9d014678:	0100f809 	jalr	t0
9d01467c:	00000000 	nop
9d014680:	0060f825 	move	ra,v1
9d014684:	03e00008 	jr	ra
9d014688:	00000000 	nop

Disassembly of section .text.stpcpy:

9d01468c <stpcpy>:
9d01468c:	24a50001 	addiu	a1,a1,1
9d014690:	80a3ffff 	lb	v1,-1(a1)
9d014694:	00801025 	move	v0,a0
9d014698:	24840001 	addiu	a0,a0,1
9d01469c:	1460fffb 	bnez	v1,9d01468c <stpcpy>
9d0146a0:	a083ffff 	sb	v1,-1(a0)
9d0146a4:	03e00008 	jr	ra
9d0146a8:	00000000 	nop

Disassembly of section .text.__fwrite_min:

9d0146ac <__stdio_write>:
9d0146ac:	8c840000 	lw	a0,0(a0)
9d0146b0:	27bdffe8 	addiu	sp,sp,-24
9d0146b4:	afbf0014 	sw	ra,20(sp)
9d0146b8:	0f404c19 	jal	9d013064 <write>
9d0146bc:	00000000 	nop
9d0146c0:	8fbf0014 	lw	ra,20(sp)
9d0146c4:	03e00008 	jr	ra
9d0146c8:	27bd0018 	addiu	sp,sp,24

Disassembly of section .text.__fseeko:

9d0146cc <__fseeko>:
9d0146cc:	8c820030 	lw	v0,48(a0)
9d0146d0:	27bdffe8 	addiu	sp,sp,-24
9d0146d4:	afbf0014 	sw	ra,20(sp)
9d0146d8:	0040f809 	jalr	v0
9d0146dc:	00000000 	nop
9d0146e0:	8fbf0014 	lw	ra,20(sp)
9d0146e4:	03e00008 	jr	ra
9d0146e8:	27bd0018 	addiu	sp,sp,24

Disassembly of section .text.strtod:

9d0146ec <strtod>:
9d0146ec:	27bdffe8 	addiu	sp,sp,-24
9d0146f0:	afbf0014 	sw	ra,20(sp)
9d0146f4:	0f404a34 	jal	9d0128d0 <strtox>
9d0146f8:	24060001 	li	a2,1
9d0146fc:	8fbf0014 	lw	ra,20(sp)
9d014700:	03e00008 	jr	ra
9d014704:	27bd0018 	addiu	sp,sp,24

Disassembly of section .text.strtold:

9d014708 <strtold>:
9d014708:	27bdffe8 	addiu	sp,sp,-24
9d01470c:	afbf0014 	sw	ra,20(sp)
9d014710:	0f404a34 	jal	9d0128d0 <strtox>
9d014714:	24060002 	li	a2,2
9d014718:	8fbf0014 	lw	ra,20(sp)
9d01471c:	03e00008 	jr	ra
9d014720:	27bd0018 	addiu	sp,sp,24

Disassembly of section .text.strtoimax:

9d014724 <strtoimax>:
9d014724:	27bdffe8 	addiu	sp,sp,-24
9d014728:	afbf0014 	sw	ra,20(sp)
9d01472c:	0f4050df 	jal	9d01437c <strtoll>
9d014730:	00000000 	nop
9d014734:	8fbf0014 	lw	ra,20(sp)
9d014738:	03e00008 	jr	ra
9d01473c:	27bd0018 	addiu	sp,sp,24

Disassembly of section .text.strtoumax:

9d014740 <strtoumax>:
9d014740:	27bdffe8 	addiu	sp,sp,-24
9d014744:	afbf0014 	sw	ra,20(sp)
9d014748:	0f4050d4 	jal	9d014350 <strtoull>
9d01474c:	00000000 	nop
9d014750:	8fbf0014 	lw	ra,20(sp)
9d014754:	03e00008 	jr	ra
9d014758:	27bd0018 	addiu	sp,sp,24

Disassembly of section .text.__isxdigit_l:

9d01475c <__isxdigit_l>:
9d01475c:	27bdffe8 	addiu	sp,sp,-24
9d014760:	afbf0014 	sw	ra,20(sp)
9d014764:	0f405192 	jal	9d014648 <isxdigit>
9d014768:	00000000 	nop
9d01476c:	8fbf0014 	lw	ra,20(sp)
9d014770:	03e00008 	jr	ra
9d014774:	27bd0018 	addiu	sp,sp,24

Disassembly of section .text.tolower:

9d014778 <tolower>:
9d014778:	2483ffbf 	addiu	v1,a0,-65
9d01477c:	2c63001a 	sltiu	v1,v1,26
9d014780:	10600002 	beqz	v1,9d01478c <tolower+0x14>
9d014784:	00801025 	move	v0,a0
9d014788:	34820020 	ori	v0,a0,0x20
9d01478c:	03e00008 	jr	ra
9d014790:	00000000 	nop

Disassembly of section .text.__tolower_l:

9d014794 <__tolower_l>:
9d014794:	27bdffe8 	addiu	sp,sp,-24
9d014798:	afbf0014 	sw	ra,20(sp)
9d01479c:	0f4051de 	jal	9d014778 <tolower>
9d0147a0:	00000000 	nop
9d0147a4:	8fbf0014 	lw	ra,20(sp)
9d0147a8:	03e00008 	jr	ra
9d0147ac:	27bd0018 	addiu	sp,sp,24

Disassembly of section .text.toupper:

9d0147b0 <toupper>:
9d0147b0:	2483ff9f 	addiu	v1,a0,-97
9d0147b4:	2c63001a 	sltiu	v1,v1,26
9d0147b8:	10600002 	beqz	v1,9d0147c4 <toupper+0x14>
9d0147bc:	00801025 	move	v0,a0
9d0147c0:	3082005f 	andi	v0,a0,0x5f
9d0147c4:	03e00008 	jr	ra
9d0147c8:	00000000 	nop

Disassembly of section .text.__toupper_l:

9d0147cc <__toupper_l>:
9d0147cc:	27bdffe8 	addiu	sp,sp,-24
9d0147d0:	afbf0014 	sw	ra,20(sp)
9d0147d4:	0f4051ec 	jal	9d0147b0 <toupper>
9d0147d8:	00000000 	nop
9d0147dc:	8fbf0014 	lw	ra,20(sp)
9d0147e0:	03e00008 	jr	ra
9d0147e4:	27bd0018 	addiu	sp,sp,24

Disassembly of section .text.do_read:

9d0147e8 <do_read>:
9d0147e8:	27bdffe8 	addiu	sp,sp,-24
9d0147ec:	afbf0014 	sw	ra,20(sp)
9d0147f0:	0f404a5d 	jal	9d012974 <__string_read>
9d0147f4:	00000000 	nop
9d0147f8:	8fbf0014 	lw	ra,20(sp)
9d0147fc:	03e00008 	jr	ra
9d014800:	27bd0018 	addiu	sp,sp,24

Disassembly of section .text.__toread_needs_stdio_exit:

9d014804 <__toread_needs_stdio_exit>:
9d014804:	27bdffe8 	addiu	sp,sp,-24
9d014808:	afbf0014 	sw	ra,20(sp)
9d01480c:	0f404f4c 	jal	9d013d30 <__stdio_exit>
9d014810:	00000000 	nop
9d014814:	8fbf0014 	lw	ra,20(sp)
9d014818:	03e00008 	jr	ra
9d01481c:	27bd0018 	addiu	sp,sp,24

Disassembly of section .text.putc:

9d014820 <putc>:
9d014820:	27bdffe8 	addiu	sp,sp,-24
9d014824:	afbf0014 	sw	ra,20(sp)
9d014828:	0f404da5 	jal	9d013694 <__putc>
9d01482c:	00000000 	nop
9d014830:	8fbf0014 	lw	ra,20(sp)
9d014834:	03e00008 	jr	ra
9d014838:	27bd0018 	addiu	sp,sp,24

Disassembly of section .text.__fopen:

9d01483c <__fopen>:
9d01483c:	27bdffe8 	addiu	sp,sp,-24
9d014840:	afbf0014 	sw	ra,20(sp)
9d014844:	0f404bf7 	jal	9d012fdc <__fopen_rw>
9d014848:	00000000 	nop
9d01484c:	8fbf0014 	lw	ra,20(sp)
9d014850:	03e00008 	jr	ra
9d014854:	27bd0018 	addiu	sp,sp,24

Disassembly of section .text.__ftello_adj:

9d014858 <__ftello_adj>:
9d014858:	27bdffe8 	addiu	sp,sp,-24
9d01485c:	afbf0014 	sw	ra,20(sp)
9d014860:	0f404fa8 	jal	9d013ea0 <__ftello_adj_rw>
9d014864:	00000000 	nop
9d014868:	8fbf0014 	lw	ra,20(sp)
9d01486c:	03e00008 	jr	ra
9d014870:	27bd0018 	addiu	sp,sp,24

Disassembly of section .text.logb:

9d014874 <logb>:
9d014874:	27bdffe8 	addiu	sp,sp,-24
9d014878:	afbf0014 	sw	ra,20(sp)
9d01487c:	0f40456e 	jal	9d0115b8 <logbl>
9d014880:	00000000 	nop
9d014884:	8fbf0014 	lw	ra,20(sp)
9d014888:	03e00008 	jr	ra
9d01488c:	27bd0018 	addiu	sp,sp,24

Disassembly of section .text.drem:

9d014890 <drem>:
9d014890:	27bdffe8 	addiu	sp,sp,-24
9d014894:	afbf0014 	sw	ra,20(sp)
9d014898:	0f403192 	jal	9d00c648 <dreml>
9d01489c:	00000000 	nop
9d0148a0:	8fbf0014 	lw	ra,20(sp)
9d0148a4:	03e00008 	jr	ra
9d0148a8:	27bd0018 	addiu	sp,sp,24

Disassembly of section .text.fabsl:

9d0148ac <fabsl>:
9d0148ac:	27bdffe8 	addiu	sp,sp,-24
9d0148b0:	afbf0014 	sw	ra,20(sp)
9d0148b4:	0f40525c 	jal	9d014970 <fabs>
9d0148b8:	00000000 	nop
9d0148bc:	8fbf0014 	lw	ra,20(sp)
9d0148c0:	03e00008 	jr	ra
9d0148c4:	27bd0018 	addiu	sp,sp,24

Disassembly of section .text.scalbnl:

9d0148c8 <scalbnl>:
9d0148c8:	27bdffe8 	addiu	sp,sp,-24
9d0148cc:	afbf0014 	sw	ra,20(sp)
9d0148d0:	0f40473f 	jal	9d011cfc <scalbn>
9d0148d4:	00000000 	nop
9d0148d8:	8fbf0014 	lw	ra,20(sp)
9d0148dc:	03e00008 	jr	ra
9d0148e0:	27bd0018 	addiu	sp,sp,24

Disassembly of section .text:

9d014900 <_nmi_handler>:
9d014900:	401a6000 	mfc0	k0,c0_status
9d014904:	3c1bffbf 	lui	k1,0xffbf
9d014908:	377bffff 	ori	k1,k1,0xffff
9d01490c:	035bd024 	and	k0,k0,k1
9d014910:	409a6000 	mtc0	k0,c0_status
9d014914:	42000018 	eret

Disassembly of section .rodata:

9d014918 <state_table>:
9d014918:	096c0768 906a834c c07aa074 88688000     h.l.L.j.t.z...h.
9d014928:	826c8400 00008100                       ..l.....

Disassembly of section .text.strlen:

9d014930 <strlen>:
9d014930:	00801025 	move	v0,a0
9d014934:	80430000 	lb	v1,0(v0)
9d014938:	5460fffe 	bnezl	v1,9d014934 <strlen+0x4>
9d01493c:	24420001 	addiu	v0,v0,1
9d014940:	03e00008 	jr	ra
9d014944:	00441023 	subu	v0,v0,a0

Disassembly of section .text.finitel:

9d014948 <finitel>:
9d014948:	00051403 	sra	v0,a1,0x10
9d01494c:	30427ff0 	andi	v0,v0,0x7ff0
9d014950:	38427ff0 	xori	v0,v0,0x7ff0
9d014954:	03e00008 	jr	ra
9d014958:	0002102b 	sltu	v0,zero,v0

Disassembly of section .text.finite:

9d01495c <finite>:
9d01495c:	00051403 	sra	v0,a1,0x10
9d014960:	30427ff0 	andi	v0,v0,0x7ff0
9d014964:	38427ff0 	xori	v0,v0,0x7ff0
9d014968:	03e00008 	jr	ra
9d01496c:	0002102b 	sltu	v0,zero,v0

Disassembly of section .text.fabs:

9d014970 <fabs>:
9d014970:	7ca6f000 	ext	a2,a1,0x0,0x1f
9d014974:	00801025 	move	v0,a0
9d014978:	03e00008 	jr	ra
9d01497c:	00c01825 	move	v1,a2

Disassembly of section .text.__get_stderr:

9d014980 <__get_stderr>:
9d014980:	3c02a000 	lui	v0,0xa000
9d014984:	03e00008 	jr	ra
9d014988:	24420d34 	addiu	v0,v0,3380

Disassembly of section .text.__get_stdout:

9d01498c <__get_stdout>:
9d01498c:	3c02a000 	lui	v0,0xa000
9d014990:	03e00008 	jr	ra
9d014994:	24420d94 	addiu	v0,v0,3476

Disassembly of section .text._on_reset:

9d014998 <_on_reset>:
9d014998:	03e00008 	jr	ra
9d01499c:	00000000 	nop

Disassembly of section .text._on_bootstrap:

9d0149a0 <_on_bootstrap>:
9d0149a0:	03e00008 	jr	ra
9d0149a4:	00000000 	nop

Disassembly of section .text.__dummy_fmt3:

9d0149a8 <__dummy_fmt3>:
9d0149a8:	03e00008 	jr	ra
9d0149ac:	00001025 	move	v0,zero

Disassembly of section .text.__dummy_fmt4:

9d0149b0 <__fmt_a>:
9d0149b0:	03e00008 	jr	ra
9d0149b4:	00001025 	move	v0,zero

Disassembly of section .text.__dummy_fmts:

9d0149b8 <__dummy_fmts>:
9d0149b8:	03e00008 	jr	ra
9d0149bc:	00001025 	move	v0,zero

Disassembly of section .text.__dummy_scan:

9d0149c0 <__scan_a>:
9d0149c0:	03e00008 	jr	ra
9d0149c4:	00001025 	move	v0,zero

Disassembly of section .text.__dummy_scan_s:

9d0149c8 <__dummy_scan_s>:
9d0149c8:	03e00008 	jr	ra
9d0149cc:	00001025 	move	v0,zero

Disassembly of section .text.__dummy:

9d0149d0 <__dummy>:
9d0149d0:	03e00008 	jr	ra
9d0149d4:	00000000 	nop

9d0149d8 <__stdio_exit_ofl>:
9d0149d8:	03e00008 	jr	ra
9d0149dc:	00000000 	nop

Disassembly of section .text.__dummy1:

9d0149e0 <__dummy1>:
9d0149e0:	03e00008 	jr	ra
9d0149e4:	00001025 	move	v0,zero

Disassembly of section .text.__dummy:

9d0149e8 <__dummy>:
9d0149e8:	03e00008 	jr	ra
9d0149ec:	00000000 	nop

9d0149f0 <__dummy>:
9d0149f0:	03e00008 	jr	ra
9d0149f4:	00001025 	move	v0,zero

Disassembly of section .text.__dummy:

9d0149f8 <__dummy>:
9d0149f8:	03e00008 	jr	ra
9d0149fc:	00001025 	move	v0,zero

9d014a00 <__init_stderr>:
9d014a00:	03e00008 	jr	ra
9d014a04:	00000000 	nop

Disassembly of section .text.getpagesize:

9d014a08 <getpagesize>:
9d014a08:	03e00008 	jr	ra
9d014a0c:	24020080 	li	v0,128

Disassembly of section .text.lseek:

9d014a10 <lseek>:
9d014a10:	03e00008 	jr	ra
9d014a14:	00001025 	move	v0,zero

Disassembly of section .text.close:

9d014a18 <close>:
9d014a18:	03e00008 	jr	ra
9d014a1c:	00001025 	move	v0,zero
