
out.elf:     file format elf32-tradlittlemips


Disassembly of section .reset:

bd007000 <_reset>:
bd007000:	0f401c02 	jal	bd007008 <_startup>
bd007004:	00000000 	nop

bd007008 <_startup>:
bd007008:	401a6000 	mfc0	k0,c0_status
bd00700c:	7f5a04c0 	ext	k0,k0,0x13,0x1
bd007010:	13400005 	beqz	k0,bd007028 <_no_nmi>
bd007014:	00000000 	nop
bd007018:	3c1a9d01 	lui	k0,0x9d01
bd00701c:	275a0438 	addiu	k0,k0,1080
bd007020:	03400008 	jr	k0
bd007024:	00000000 	nop

bd007028 <_no_nmi>:
bd007028:	3c1da001 	lui	sp,0xa001
bd00702c:	27bdfff0 	addiu	sp,sp,-16
bd007030:	3c1ca000 	lui	gp,0xa000
bd007034:	279c7ff0 	addiu	gp,gp,32752
bd007038:	3c089d01 	lui	t0,0x9d01
bd00703c:	25080498 	addiu	t0,t0,1176
bd007040:	0100f809 	jalr	t0
bd007044:	00000000 	nop

bd007048 <_start_bss_init>:
bd007048:	3c08a000 	lui	t0,0xa000
bd00704c:	25080004 	addiu	t0,t0,4
bd007050:	3c09a000 	lui	t1,0xa000
bd007054:	25290080 	addiu	t1,t1,128
bd007058:	10000003 	b	bd007068 <_bss_check>
bd00705c:	00000000 	nop

bd007060 <_bss_init>:
bd007060:	ad000000 	sw	zero,0(t0)
bd007064:	25080004 	addiu	t0,t0,4

bd007068 <_bss_check>:
bd007068:	0109082b 	sltu	at,t0,t1
bd00706c:	1420fffc 	bnez	at,bd007060 <_bss_init>
bd007070:	00000000 	nop
bd007074:	3c089d01 	lui	t0,0x9d01
bd007078:	2508024c 	addiu	t0,t0,588
bd00707c:	0100f809 	jalr	t0
bd007080:	00000000 	nop
bd007084:	3c090000 	lui	t1,0x0
bd007088:	25290000 	addiu	t1,t1,0
bd00708c:	11200010 	beqz	t1,bd0070d0 <_ramfunc_done>
bd007090:	00000000 	nop
bd007094:	3c090001 	lui	t1,0x1
bd007098:	25290000 	addiu	t1,t1,0
bd00709c:	3c0abf88 	lui	t2,0xbf88
bd0070a0:	254a2010 	addiu	t2,t2,8208
bd0070a4:	ad490000 	sw	t1,0(t2)
bd0070a8:	3c090001 	lui	t1,0x1
bd0070ac:	25290000 	addiu	t1,t1,0
bd0070b0:	3c0abf88 	lui	t2,0xbf88
bd0070b4:	254a2020 	addiu	t2,t2,8224
bd0070b8:	ad490000 	sw	t1,0(t2)
bd0070bc:	3c090001 	lui	t1,0x1
bd0070c0:	25290000 	addiu	t1,t1,0
bd0070c4:	3c0abf88 	lui	t2,0xbf88
bd0070c8:	254a2030 	addiu	t2,t2,8240
bd0070cc:	ad490000 	sw	t1,0(t2)

bd0070d0 <_ramfunc_done>:
bd0070d0:	40804800 	mtc0	zero,c0_count
bd0070d4:	240affff 	li	t2,-1
bd0070d8:	408a5800 	mtc0	t2,c0_compare
bd0070dc:	3c080040 	lui	t0,0x40
bd0070e0:	400a6000 	mfc0	t2,c0_status
bd0070e4:	010a5025 	or	t2,t0,t2
bd0070e8:	408a6000 	mtc0	t2,c0_status
bd0070ec:	3c099d00 	lui	t1,0x9d00
bd0070f0:	25296000 	addiu	t1,t1,24576
bd0070f4:	000000c0 	ehb
bd0070f8:	40897801 	mtc0	t1,c0_ebase
bd0070fc:	3c090000 	lui	t1,0x0
bd007100:	25290001 	addiu	t1,t1,1
bd007104:	240a0000 	li	t2,0
bd007108:	7d2a4944 	ins	t2,t1,0x5,0x5
bd00710c:	408a6001 	mtc0	t2,c0_intctl
bd007110:	3c090080 	lui	t1,0x80
bd007114:	40896800 	mtc0	t1,c0_cause
bd007118:	40088000 	mfc0	t0,c0_config
bd00711c:	7d090580 	ext	t1,t0,0x16,0x1
bd007120:	00094c40 	sll	t1,t1,0x11
bd007124:	40086000 	mfc0	t0,c0_status
bd007128:	3c010058 	lui	at,0x58
bd00712c:	01014024 	and	t0,t0,at
bd007130:	01284025 	or	t0,t1,t0
bd007134:	40886000 	mtc0	t0,c0_status
bd007138:	000000c0 	ehb
bd00713c:	3c089d01 	lui	t0,0x9d01
bd007140:	250804a0 	addiu	t0,t0,1184
bd007144:	0100f809 	jalr	t0
bd007148:	00000000 	nop
bd00714c:	40086000 	mfc0	t0,c0_status
bd007150:	3c01ffbf 	lui	at,0xffbf
bd007154:	3421ffff 	ori	at,at,0xffff
bd007158:	01014024 	and	t0,t0,at
bd00715c:	40886000 	mtc0	t0,c0_status
bd007160:	30840000 	andi	a0,a0,0x0
bd007164:	30a50000 	andi	a1,a1,0x0
bd007168:	3c089d01 	lui	t0,0x9d01
bd00716c:	2508f90c 	addiu	t0,t0,-1780
bd007170:	01000008 	jr	t0
bd007174:	00000000 	nop

Disassembly of section .bev_excpt:

bfc07380 <_bev_exception>:
bfc07380:	3c1a9d01 	lui	k0,0x9d01
bfc07384:	275afb34 	addiu	k0,k0,-1228
bfc07388:	03400008 	jr	k0
bfc0738c:	00000000 	nop

Disassembly of section .app_excpt:

9d006180 <_gen_exception>:
9d006180:	3c1a9d01 	lui	k0,0x9d01
9d006184:	275adfbc 	addiu	k0,k0,-8260
9d006188:	03400008 	jr	k0
9d00618c:	00000000 	nop

Disassembly of section .vector_0:

9d006200 <__vector_dispatch_0>:
9d006200:	0b403ef1 	j	9d00fbc4 <_DefaultInterrupt>
9d006204:	00000000 	nop

Disassembly of section .vector_1:

9d006220 <__vector_dispatch_1>:
9d006220:	0b403ef1 	j	9d00fbc4 <_DefaultInterrupt>
9d006224:	00000000 	nop

Disassembly of section .vector_2:

9d006240 <__vector_dispatch_2>:
9d006240:	0b403ef1 	j	9d00fbc4 <_DefaultInterrupt>
9d006244:	00000000 	nop

Disassembly of section .vector_3:

9d006260 <__vector_dispatch_3>:
9d006260:	0b403ef1 	j	9d00fbc4 <_DefaultInterrupt>
9d006264:	00000000 	nop

Disassembly of section .vector_4:

9d006280 <__vector_dispatch_4>:
9d006280:	0b403ef1 	j	9d00fbc4 <_DefaultInterrupt>
9d006284:	00000000 	nop

Disassembly of section .vector_5:

9d0062a0 <__vector_dispatch_5>:
9d0062a0:	0b403ef1 	j	9d00fbc4 <_DefaultInterrupt>
9d0062a4:	00000000 	nop

Disassembly of section .vector_6:

9d0062c0 <__vector_dispatch_6>:
9d0062c0:	0b403ef1 	j	9d00fbc4 <_DefaultInterrupt>
9d0062c4:	00000000 	nop

Disassembly of section .vector_7:

9d0062e0 <__vector_dispatch_7>:
9d0062e0:	0b403ef1 	j	9d00fbc4 <_DefaultInterrupt>
9d0062e4:	00000000 	nop

Disassembly of section .vector_8:

9d006300 <__vector_dispatch_8>:
9d006300:	0b402b89 	j	9d00ae24 <icontroller>
9d006304:	00000000 	nop

Disassembly of section .vector_9:

9d006320 <__vector_dispatch_9>:
9d006320:	0b403ef1 	j	9d00fbc4 <_DefaultInterrupt>
9d006324:	00000000 	nop

Disassembly of section .vector_10:

9d006340 <__vector_dispatch_10>:
9d006340:	0b403ef1 	j	9d00fbc4 <_DefaultInterrupt>
9d006344:	00000000 	nop

Disassembly of section .vector_11:

9d006360 <__vector_dispatch_11>:
9d006360:	0b403ef1 	j	9d00fbc4 <_DefaultInterrupt>
9d006364:	00000000 	nop

Disassembly of section .vector_12:

9d006380 <__vector_dispatch_12>:
9d006380:	0b403ef1 	j	9d00fbc4 <_DefaultInterrupt>
9d006384:	00000000 	nop

Disassembly of section .vector_13:

9d0063a0 <__vector_dispatch_13>:
9d0063a0:	0b403ef1 	j	9d00fbc4 <_DefaultInterrupt>
9d0063a4:	00000000 	nop

Disassembly of section .vector_14:

9d0063c0 <__vector_dispatch_14>:
9d0063c0:	0b403ef1 	j	9d00fbc4 <_DefaultInterrupt>
9d0063c4:	00000000 	nop

Disassembly of section .vector_15:

9d0063e0 <__vector_dispatch_15>:
9d0063e0:	0b403ef1 	j	9d00fbc4 <_DefaultInterrupt>
9d0063e4:	00000000 	nop

Disassembly of section .vector_16:

9d006400 <__vector_dispatch_16>:
9d006400:	0b403ef1 	j	9d00fbc4 <_DefaultInterrupt>
9d006404:	00000000 	nop

Disassembly of section .vector_17:

9d006420 <__vector_dispatch_17>:
9d006420:	0b403ef1 	j	9d00fbc4 <_DefaultInterrupt>
9d006424:	00000000 	nop

Disassembly of section .vector_18:

9d006440 <__vector_dispatch_18>:
9d006440:	0b403ef1 	j	9d00fbc4 <_DefaultInterrupt>
9d006444:	00000000 	nop

Disassembly of section .vector_19:

9d006460 <__vector_dispatch_19>:
9d006460:	0b403ef1 	j	9d00fbc4 <_DefaultInterrupt>
9d006464:	00000000 	nop

Disassembly of section .vector_20:

9d006480 <__vector_dispatch_20>:
9d006480:	0b403ef1 	j	9d00fbc4 <_DefaultInterrupt>
9d006484:	00000000 	nop

Disassembly of section .vector_21:

9d0064a0 <__vector_dispatch_21>:
9d0064a0:	0b403ef1 	j	9d00fbc4 <_DefaultInterrupt>
9d0064a4:	00000000 	nop

Disassembly of section .vector_22:

9d0064c0 <__vector_dispatch_22>:
9d0064c0:	0b403ef1 	j	9d00fbc4 <_DefaultInterrupt>
9d0064c4:	00000000 	nop

Disassembly of section .vector_23:

9d0064e0 <__vector_dispatch_23>:
9d0064e0:	0b403ef1 	j	9d00fbc4 <_DefaultInterrupt>
9d0064e4:	00000000 	nop

Disassembly of section .vector_24:

9d006500 <__vector_dispatch_24>:
9d006500:	0b403ef1 	j	9d00fbc4 <_DefaultInterrupt>
9d006504:	00000000 	nop

Disassembly of section .vector_25:

9d006520 <__vector_dispatch_25>:
9d006520:	0b403ef1 	j	9d00fbc4 <_DefaultInterrupt>
9d006524:	00000000 	nop

Disassembly of section .vector_26:

9d006540 <__vector_dispatch_26>:
9d006540:	0b403ef1 	j	9d00fbc4 <_DefaultInterrupt>
9d006544:	00000000 	nop

Disassembly of section .vector_27:

9d006560 <__vector_dispatch_27>:
9d006560:	0b403ef1 	j	9d00fbc4 <_DefaultInterrupt>
9d006564:	00000000 	nop

Disassembly of section .vector_28:

9d006580 <__vector_dispatch_28>:
9d006580:	0b403ef1 	j	9d00fbc4 <_DefaultInterrupt>
9d006584:	00000000 	nop

Disassembly of section .vector_29:

9d0065a0 <__vector_dispatch_29>:
9d0065a0:	0b403ef1 	j	9d00fbc4 <_DefaultInterrupt>
9d0065a4:	00000000 	nop

Disassembly of section .vector_30:

9d0065c0 <__vector_dispatch_30>:
9d0065c0:	0b403ef1 	j	9d00fbc4 <_DefaultInterrupt>
9d0065c4:	00000000 	nop

Disassembly of section .vector_31:

9d0065e0 <__vector_dispatch_31>:
9d0065e0:	0b403ef1 	j	9d00fbc4 <_DefaultInterrupt>
9d0065e4:	00000000 	nop

Disassembly of section .vector_32:

9d006600 <__vector_dispatch_32>:
9d006600:	0b403ef1 	j	9d00fbc4 <_DefaultInterrupt>
9d006604:	00000000 	nop

Disassembly of section .vector_33:

9d006620 <__vector_dispatch_33>:
9d006620:	0b403ef1 	j	9d00fbc4 <_DefaultInterrupt>
9d006624:	00000000 	nop

Disassembly of section .vector_34:

9d006640 <__vector_dispatch_34>:
9d006640:	0b403ef1 	j	9d00fbc4 <_DefaultInterrupt>
9d006644:	00000000 	nop

Disassembly of section .vector_35:

9d006660 <__vector_dispatch_35>:
9d006660:	0b403ef1 	j	9d00fbc4 <_DefaultInterrupt>
9d006664:	00000000 	nop

Disassembly of section .vector_36:

9d006680 <__vector_dispatch_36>:
9d006680:	0b403ef1 	j	9d00fbc4 <_DefaultInterrupt>
9d006684:	00000000 	nop

Disassembly of section .vector_37:

9d0066a0 <__vector_dispatch_37>:
9d0066a0:	0b402d28 	j	9d00b4a0 <U2ISR>
9d0066a4:	00000000 	nop

Disassembly of section .vector_38:

9d0066c0 <__vector_dispatch_38>:
9d0066c0:	0b403ef1 	j	9d00fbc4 <_DefaultInterrupt>
9d0066c4:	00000000 	nop

Disassembly of section .vector_39:

9d0066e0 <__vector_dispatch_39>:
9d0066e0:	0b403ef1 	j	9d00fbc4 <_DefaultInterrupt>
9d0066e4:	00000000 	nop

Disassembly of section .vector_40:

9d006700 <__vector_dispatch_40>:
9d006700:	0b403ef1 	j	9d00fbc4 <_DefaultInterrupt>
9d006704:	00000000 	nop

Disassembly of section .vector_41:

9d006720 <__vector_dispatch_41>:
9d006720:	0b403ef1 	j	9d00fbc4 <_DefaultInterrupt>
9d006724:	00000000 	nop

Disassembly of section .vector_42:

9d006740 <__vector_dispatch_42>:
9d006740:	0b403ef1 	j	9d00fbc4 <_DefaultInterrupt>
9d006744:	00000000 	nop

Disassembly of section .vector_43:

9d006760 <__vector_dispatch_43>:
9d006760:	0b403ef1 	j	9d00fbc4 <_DefaultInterrupt>
9d006764:	00000000 	nop

Disassembly of section .rodata:

9d007490 <.rodata>:
9d007490:	00006425 	0x6425
9d007494:	32433249 	andi	v1,s2,0x3249
9d007498:	73614d20 	0x73614d20
9d00749c:	3a726574 	xori	s2,s3,0x6574
9d0074a0:	69616620 	0x69616620
9d0074a4:	2064656c 	addi	a0,v1,25964
9d0074a8:	72206f74 	0x72206f74
9d0074ac:	69656365 	0x69656365
9d0074b0:	41206576 	0x41206576
9d0074b4:	0a0d4b43 	j	98352d0c <_bmxdudba_address+0x98342d0c>
9d0074b8:	00000000 	nop
	...
9d0074c4:	40590000 	cfc0	t9,c0_index
9d0074c8:	00000000 	nop
9d0074cc:	40080000 	mfc0	t0,c0_index
9d0074d0:	0a0d6625 	j	98359894 <_bmxdudba_address+0x98349894>
9d0074d4:	0c000000 	jal	90000000 <_bmxdudba_address+0x8fff0000>
9d0074d8:	0c000061 	jal	90000184 <_bmxdudba_address+0x8fff0184>
9d0074dc:	0a0d6425 	j	98359094 <_bmxdudba_address+0x98349094>
9d0074e0:	0c000000 	jal	90000000 <_bmxdudba_address+0x8fff0000>
9d0074e4:	0c000062 	jal	90000188 <_bmxdudba_address+0x8fff0188>
9d0074e8:	00006425 	0x6425
9d0074ec:	454c4449 	bc1any4f	$fcc3,9d018614 <close+0x80fc>
9d0074f0:	00000a0d 	break	0x0,0x28
9d0074f4:	0d4d5750 	jal	95355d40 <_bmxdudba_address+0x95345d40>
9d0074f8:	0c00000a 	jal	90000028 <_bmxdudba_address+0x8fff0028>
9d0074fc:	53455449 	beql	k0,a1,9d01c624 <close+0xc10c>
9d007500:	000a0d54 	0xa0d54
9d007504:	444c4f48 	0x444c4f48
9d007508:	00000a0d 	break	0x0,0x28
9d00750c:	43415254 	c0	0x1415254
9d007510:	000a0d4b 	0xa0d4b
9d007514:	00000000 	nop
9d007518:	1cac0831 	0x1cac0831
9d00751c:	3fbb645a 	0x3fbb645a
9d007520:	00000000 	nop
9d007524:	41f00000 	0x41f00000
9d007528:	00464e49 	0x464e49
9d00752c:	00666e69 	0x666e69
9d007530:	004e414e 	0x4e414e
9d007534:	006e616e 	0x6e616e
9d007538:	00000000 	nop
9d00753c:	3ff00000 	0x3ff00000
9d007540:	00000000 	nop
9d007544:	40240000 	0x40240000
9d007548:	00000000 	nop
9d00754c:	43500000 	c0	0x1500000
9d007550:	00000000 	nop
9d007554:	40140000 	mfc0	s4,c0_index
9d007558:	6c696e28 	0x6c696e28
9d00755c:	00000029 	0x29
9d007560:	00000000 	nop
9d007564:	43e00000 	c0	0x1e00000
9d007568:	00000000 	nop
9d00756c:	c3e00000 	ll	zero,0(ra)
9d007570:	f0000000 	0xf0000000
9d007574:	341fffff 	li	ra,0xffff
9d007578:	00000000 	nop
9d00757c:	07f00000 	bltzal	ra,9d007580 <__vector_dispatch_43+0xe20>
9d007580:	00000000 	nop
9d007584:	7fe00000 	ext	zero,ra,0x0,0x1
9d007588:	00000000 	nop
9d00758c:	03600000 	0x3600000
9d007590:	00000000 	nop
9d007594:	41f00000 	0x41f00000

Disassembly of section ._debug_exception:

bfc00480 <__DbgExecReturn>:
bfc00480:	409bf800 	mtc0	k1,c0_desave
bfc00484:	000000c0 	ehb
bfc00488:	3c1b9d01 	lui	k1,0x9d01
bfc0048c:	277bfc9c 	addiu	k1,k1,-868
bfc00490:	13600002 	beqz	k1,bfc0049c <__DbgExecReturn+0x1c>
bfc00494:	00000000 	nop
bfc00498:	409bc000 	mtc0	k1,c0_depc
bfc0049c:	401bf800 	mfc0	k1,c0_desave
bfc004a0:	000000c0 	ehb
bfc004a4:	4200001f 	deret
bfc004a8:	00000000 	nop

Disassembly of section .text.__fmt_fp:

9d007598 <__fmt_fp>:
9d007598:	27bdff68 	addiu	sp,sp,-152
9d00759c:	afa700a4 	sw	a3,164(sp)
9d0075a0:	8ca20000 	lw	v0,0(a1)
9d0075a4:	afb60088 	sw	s6,136(sp)
9d0075a8:	afb40080 	sw	s4,128(sp)
9d0075ac:	afa2001c 	sw	v0,28(sp)
9d0075b0:	8ca20008 	lw	v0,8(a1)
9d0075b4:	8cd60000 	lw	s6,0(a2)
9d0075b8:	8cd40004 	lw	s4,4(a2)
9d0075bc:	afa20020 	sw	v0,32(sp)
9d0075c0:	8ca20010 	lw	v0,16(a1)
9d0075c4:	afb50084 	sw	s5,132(sp)
9d0075c8:	afb00070 	sw	s0,112(sp)
9d0075cc:	afa40098 	sw	a0,152(sp)
9d0075d0:	afa5009c 	sw	a1,156(sp)
9d0075d4:	8cb00004 	lw	s0,4(a1)
9d0075d8:	8cb5000c 	lw	s5,12(a1)
9d0075dc:	00003025 	move	a2,zero
9d0075e0:	00003825 	move	a3,zero
9d0075e4:	02c02025 	move	a0,s6
9d0075e8:	02802825 	move	a1,s4
9d0075ec:	afbf0094 	sw	ra,148(sp)
9d0075f0:	afbe0090 	sw	s8,144(sp)
9d0075f4:	afb7008c 	sw	s7,140(sp)
9d0075f8:	afb3007c 	sw	s3,124(sp)
9d0075fc:	afb20078 	sw	s2,120(sp)
9d007600:	afb10074 	sw	s1,116(sp)
9d007604:	0f40355c 	jal	9d00d570 <dpcmplt>
9d007608:	afa20050 	sw	v0,80(sp)
9d00760c:	0440000e 	bltz	v0,9d007648 <__fmt_fp+0xb0>
9d007610:	8fa2001c 	lw	v0,28(sp)
9d007614:	30420004 	andi	v0,v0,0x4
9d007618:	1440000e 	bnez	v0,9d007654 <__fmt_fp+0xbc>
9d00761c:	2402002b 	li	v0,43
9d007620:	8fa2001c 	lw	v0,28(sp)
9d007624:	30420008 	andi	v0,v0,0x8
9d007628:	afa20024 	sw	v0,36(sp)
9d00762c:	8fa20020 	lw	v0,32(sp)
9d007630:	afa20018 	sw	v0,24(sp)
9d007634:	8fa20024 	lw	v0,36(sp)
9d007638:	1040000c 	beqz	v0,9d00766c <__fmt_fp+0xd4>
9d00763c:	24020020 	li	v0,32
9d007640:	10000005 	b	9d007658 <__fmt_fp+0xc0>
9d007644:	a2a20000 	sb	v0,0(s5)
9d007648:	3c028000 	lui	v0,0x8000
9d00764c:	0054a026 	xor	s4,v0,s4
9d007650:	2402002d 	li	v0,45
9d007654:	a2a20000 	sb	v0,0(s5)
9d007658:	8fa20020 	lw	v0,32(sp)
9d00765c:	2442ffff 	addiu	v0,v0,-1
9d007660:	afa20018 	sw	v0,24(sp)
9d007664:	24020001 	li	v0,1
9d007668:	afa20024 	sw	v0,36(sp)
9d00766c:	8fa30024 	lw	v1,36(sp)
9d007670:	7e82f000 	ext	v0,s4,0x0,0x1f
9d007674:	02a31821 	addu	v1,s5,v1
9d007678:	16c00024 	bnez	s6,9d00770c <__fmt_fp+0x174>
9d00767c:	afa3002c 	sw	v1,44(sp)
9d007680:	3c037ff0 	lui	v1,0x7ff0
9d007684:	14430022 	bne	v0,v1,9d007710 <__fmt_fp+0x178>
9d007688:	3c047ff0 	lui	a0,0x7ff0
9d00768c:	8fa200a4 	lw	v0,164(sp)
9d007690:	2442ffbf 	addiu	v0,v0,-65
9d007694:	2c42001a 	sltiu	v0,v0,26
9d007698:	1040001a 	beqz	v0,9d007704 <__fmt_fp+0x16c>
9d00769c:	3c059d00 	lui	a1,0x9d00
9d0076a0:	3c059d00 	lui	a1,0x9d00
9d0076a4:	24a57528 	addiu	a1,a1,29992
9d0076a8:	0f40406d 	jal	9d0101b4 <strcpy>
9d0076ac:	8fa4002c 	lw	a0,44(sp)
9d0076b0:	0f40411a 	jal	9d010468 <strlen>
9d0076b4:	02a02025 	move	a0,s5
9d0076b8:	8fa3001c 	lw	v1,28(sp)
9d0076bc:	8fa70020 	lw	a3,32(sp)
9d0076c0:	8fa40098 	lw	a0,152(sp)
9d0076c4:	afa30010 	sw	v1,16(sp)
9d0076c8:	02a02825 	move	a1,s5
9d0076cc:	0f4036bd 	jal	9d00daf4 <__pad>
9d0076d0:	00403025 	move	a2,v0
9d0076d4:	8fbf0094 	lw	ra,148(sp)
9d0076d8:	8fbe0090 	lw	s8,144(sp)
9d0076dc:	8fb7008c 	lw	s7,140(sp)
9d0076e0:	8fb60088 	lw	s6,136(sp)
9d0076e4:	8fb50084 	lw	s5,132(sp)
9d0076e8:	8fb40080 	lw	s4,128(sp)
9d0076ec:	8fb3007c 	lw	s3,124(sp)
9d0076f0:	8fb20078 	lw	s2,120(sp)
9d0076f4:	8fb10074 	lw	s1,116(sp)
9d0076f8:	8fb00070 	lw	s0,112(sp)
9d0076fc:	03e00008 	jr	ra
9d007700:	27bd0098 	addiu	sp,sp,152
9d007704:	1000ffe8 	b	9d0076a8 <__fmt_fp+0x110>
9d007708:	24a5752c 	addiu	a1,a1,29996
9d00770c:	3c047ff0 	lui	a0,0x7ff0
9d007710:	24830001 	addiu	v1,a0,1
9d007714:	0043182b 	sltu	v1,v0,v1
9d007718:	50600005 	beqzl	v1,9d007730 <__fmt_fp+0x198>
9d00771c:	8fa200a4 	lw	v0,164(sp)
9d007720:	1444000c 	bne	v0,a0,9d007754 <__fmt_fp+0x1bc>
9d007724:	00003025 	move	a2,zero
9d007728:	12c0000a 	beqz	s6,9d007754 <__fmt_fp+0x1bc>
9d00772c:	8fa200a4 	lw	v0,164(sp)
9d007730:	2442ffbf 	addiu	v0,v0,-65
9d007734:	2c42001a 	sltiu	v0,v0,26
9d007738:	50400004 	beqzl	v0,9d00774c <__fmt_fp+0x1b4>
9d00773c:	3c059d00 	lui	a1,0x9d00
9d007740:	3c059d00 	lui	a1,0x9d00
9d007744:	1000ffd8 	b	9d0076a8 <__fmt_fp+0x110>
9d007748:	24a57530 	addiu	a1,a1,30000
9d00774c:	1000ffd6 	b	9d0076a8 <__fmt_fp+0x110>
9d007750:	24a57534 	addiu	a1,a1,30004
9d007754:	00003825 	move	a3,zero
9d007758:	02c02025 	move	a0,s6
9d00775c:	0f403511 	jal	9d00d444 <__eqdf2>
9d007760:	02802825 	move	a1,s4
9d007764:	3c139d00 	lui	s3,0x9d00
9d007768:	3c039d00 	lui	v1,0x9d00
9d00776c:	afa30030 	sw	v1,48(sp)
9d007770:	8e717538 	lw	s1,30008(s3)
9d007774:	8e72753c 	lw	s2,30012(s3)
9d007778:	14400013 	bnez	v0,9d0077c8 <__fmt_fp+0x230>
9d00777c:	0000b825 	move	s7,zero
9d007780:	0f4040c8 	jal	9d010320 <tolower>
9d007784:	8fa400a4 	lw	a0,164(sp)
9d007788:	7c021420 	seb	v0,v0
9d00778c:	afa20028 	sw	v0,40(sp)
9d007790:	8fa30028 	lw	v1,40(sp)
9d007794:	060001ae 	bltz	s0,9d007e50 <__fmt_fp+0x8b8>
9d007798:	24020067 	li	v0,103
9d00779c:	14620055 	bne	v1,v0,9d0078f4 <__fmt_fp+0x35c>
9d0077a0:	8fbe0028 	lw	s8,40(sp)
9d0077a4:	52000001 	beqzl	s0,9d0077ac <__fmt_fp+0x214>
9d0077a8:	24100001 	li	s0,1
9d0077ac:	2ae2fffc 	slti	v0,s7,-4
9d0077b0:	14400003 	bnez	v0,9d0077c0 <__fmt_fp+0x228>
9d0077b4:	02f0102a 	slt	v0,s7,s0
9d0077b8:	1440019f 	bnez	v0,9d007e38 <__fmt_fp+0x8a0>
9d0077bc:	00000000 	nop
9d0077c0:	10000058 	b	9d007924 <__fmt_fp+0x38c>
9d0077c4:	241e0065 	li	s8,101
9d0077c8:	3c029d00 	lui	v0,0x9d00
9d0077cc:	8c4a7540 	lw	t2,30016(v0)
9d0077d0:	8c4b7544 	lw	t3,30020(v0)
9d0077d4:	01403025 	move	a2,t2
9d0077d8:	01603825 	move	a3,t3
9d0077dc:	02202025 	move	a0,s1
9d0077e0:	02402825 	move	a1,s2
9d0077e4:	afaa0038 	sw	t2,56(sp)
9d0077e8:	0f402c54 	jal	9d00b150 <__muldf3>
9d0077ec:	afab003c 	sw	t3,60(sp)
9d0077f0:	00402025 	move	a0,v0
9d0077f4:	02c03025 	move	a2,s6
9d0077f8:	02803825 	move	a3,s4
9d0077fc:	00602825 	move	a1,v1
9d007800:	0040f025 	move	s8,v0
9d007804:	0f403511 	jal	9d00d444 <__eqdf2>
9d007808:	afa30028 	sw	v1,40(sp)
9d00780c:	1c40002a 	bgtz	v0,9d0078b8 <__fmt_fp+0x320>
9d007810:	8fa80028 	lw	t0,40(sp)
9d007814:	8faa0038 	lw	t2,56(sp)
9d007818:	8fab003c 	lw	t3,60(sp)
9d00781c:	26f70001 	addiu	s7,s7,1
9d007820:	03c08825 	move	s1,s8
9d007824:	1000ffeb 	b	9d0077d4 <__fmt_fp+0x23c>
9d007828:	01009025 	move	s2,t0
9d00782c:	10400012 	beqz	v0,9d007878 <__fmt_fp+0x2e0>
9d007830:	8fa60040 	lw	a2,64(sp)
9d007834:	17c0000f 	bnez	s8,9d007874 <__fmt_fp+0x2dc>
9d007838:	8fa60028 	lw	a2,40(sp)
9d00783c:	8fa70038 	lw	a3,56(sp)
9d007840:	02c02025 	move	a0,s6
9d007844:	0f402c54 	jal	9d00b150 <__muldf3>
9d007848:	02802825 	move	a1,s4
9d00784c:	8fa60048 	lw	a2,72(sp)
9d007850:	8fa70054 	lw	a3,84(sp)
9d007854:	02202025 	move	a0,s1
9d007858:	02402825 	move	a1,s2
9d00785c:	0040b025 	move	s6,v0
9d007860:	0f402c54 	jal	9d00b150 <__muldf3>
9d007864:	0060a025 	move	s4,v1
9d007868:	00408825 	move	s1,v0
9d00786c:	00609025 	move	s2,v1
9d007870:	241e0001 	li	s8,1
9d007874:	8fa60040 	lw	a2,64(sp)
9d007878:	8fa70044 	lw	a3,68(sp)
9d00787c:	02202025 	move	a0,s1
9d007880:	0f402666 	jal	9d009998 <__divdf3>
9d007884:	02402825 	move	a1,s2
9d007888:	00408825 	move	s1,v0
9d00788c:	00609025 	move	s2,v1
9d007890:	26f7ffff 	addiu	s7,s7,-1
9d007894:	02203025 	move	a2,s1
9d007898:	02403825 	move	a3,s2
9d00789c:	02c02025 	move	a0,s6
9d0078a0:	0f40355c 	jal	9d00d570 <dpcmplt>
9d0078a4:	02802825 	move	a1,s4
9d0078a8:	0442ffe0 	bltzl	v0,9d00782c <__fmt_fp+0x294>
9d0078ac:	2ae2fed4 	slti	v0,s7,-300
9d0078b0:	1000ffb3 	b	9d007780 <__fmt_fp+0x1e8>
9d0078b4:	00000000 	nop
9d0078b8:	3c029d00 	lui	v0,0x9d00
9d0078bc:	8c437548 	lw	v1,30024(v0)
9d0078c0:	8c42754c 	lw	v0,30028(v0)
9d0078c4:	0000f025 	move	s8,zero
9d0078c8:	afa30028 	sw	v1,40(sp)
9d0078cc:	afa20038 	sw	v0,56(sp)
9d0078d0:	8fa20038 	lw	v0,56(sp)
9d0078d4:	afa30048 	sw	v1,72(sp)
9d0078d8:	afa20054 	sw	v0,84(sp)
9d0078dc:	8fa20030 	lw	v0,48(sp)
9d0078e0:	8c437544 	lw	v1,30020(v0)
9d0078e4:	8c427540 	lw	v0,30016(v0)
9d0078e8:	afa30044 	sw	v1,68(sp)
9d0078ec:	1000ffe9 	b	9d007894 <__fmt_fp+0x2fc>
9d0078f0:	afa20040 	sw	v0,64(sp)
9d0078f4:	24020066 	li	v0,102
9d0078f8:	17c2000a 	bne	s8,v0,9d007924 <__fmt_fp+0x38c>
9d0078fc:	26100001 	addiu	s0,s0,1
9d007900:	06e10004 	bgez	s7,9d007914 <__fmt_fp+0x37c>
9d007904:	8fa30028 	lw	v1,40(sp)
9d007908:	8e717538 	lw	s1,30008(s3)
9d00790c:	8e72753c 	lw	s2,30012(s3)
9d007910:	0000b825 	move	s7,zero
9d007914:	24020067 	li	v0,103
9d007918:	10620002 	beq	v1,v0,9d007924 <__fmt_fp+0x38c>
9d00791c:	241e0066 	li	s8,102
9d007920:	02178021 	addu	s0,s0,s7
9d007924:	8fa20030 	lw	v0,48(sp)
9d007928:	02205025 	move	t2,s1
9d00792c:	02404825 	move	t1,s2
9d007930:	8c437544 	lw	v1,30020(v0)
9d007934:	8c427540 	lw	v0,30016(v0)
9d007938:	02c06025 	move	t4,s6
9d00793c:	02809825 	move	s3,s4
9d007940:	00005825 	move	t3,zero
9d007944:	afa20048 	sw	v0,72(sp)
9d007948:	afa3004c 	sw	v1,76(sp)
9d00794c:	01403025 	move	a2,t2
9d007950:	01203825 	move	a3,t1
9d007954:	01802025 	move	a0,t4
9d007958:	02602825 	move	a1,s3
9d00795c:	afab0068 	sw	t3,104(sp)
9d007960:	afaa0060 	sw	t2,96(sp)
9d007964:	afa90064 	sw	t1,100(sp)
9d007968:	afac0058 	sw	t4,88(sp)
9d00796c:	0f402666 	jal	9d009998 <__divdf3>
9d007970:	afb30054 	sw	s3,84(sp)
9d007974:	00402025 	move	a0,v0
9d007978:	0f40367b 	jal	9d00d9ec <dpfloor>
9d00797c:	00602825 	move	a1,v1
9d007980:	00602825 	move	a1,v1
9d007984:	00402025 	move	a0,v0
9d007988:	afa3003c 	sw	v1,60(sp)
9d00798c:	0f403b2e 	jal	9d00ecb8 <__fixdfsi>
9d007990:	afa20038 	sw	v0,56(sp)
9d007994:	8fa80054 	lw	t0,84(sp)
9d007998:	8fac0038 	lw	t4,56(sp)
9d00799c:	8fae0058 	lw	t6,88(sp)
9d0079a0:	8fa90064 	lw	t1,100(sp)
9d0079a4:	8faa0060 	lw	t2,96(sp)
9d0079a8:	8fad003c 	lw	t5,60(sp)
9d0079ac:	3c138000 	lui	s3,0x8000
9d0079b0:	02682026 	xor	a0,s3,t0
9d0079b4:	01403025 	move	a2,t2
9d0079b8:	01203825 	move	a3,t1
9d0079bc:	01a02825 	move	a1,t5
9d0079c0:	afae0010 	sw	t6,16(sp)
9d0079c4:	afa40014 	sw	a0,20(sp)
9d0079c8:	01802025 	move	a0,t4
9d0079cc:	afa90058 	sw	t1,88(sp)
9d0079d0:	0f40216d 	jal	9d0085b4 <fma>
9d0079d4:	afa20040 	sw	v0,64(sp)
9d0079d8:	8faa0060 	lw	t2,96(sp)
9d0079dc:	8fa90058 	lw	t1,88(sp)
9d0079e0:	8fa60048 	lw	a2,72(sp)
9d0079e4:	8fa7004c 	lw	a3,76(sp)
9d0079e8:	01402025 	move	a0,t2
9d0079ec:	01202825 	move	a1,t1
9d0079f0:	afa20038 	sw	v0,56(sp)
9d0079f4:	afa20054 	sw	v0,84(sp)
9d0079f8:	0f402666 	jal	9d009998 <__divdf3>
9d0079fc:	02639826 	xor	s3,s3,v1
9d007a00:	8fab0068 	lw	t3,104(sp)
9d007a04:	00405025 	move	t2,v0
9d007a08:	00604825 	move	t1,v1
9d007a0c:	256b0001 	addiu	t3,t3,1
9d007a10:	160bffce 	bne	s0,t3,9d00794c <__fmt_fp+0x3b4>
9d007a14:	8fac0054 	lw	t4,84(sp)
9d007a18:	3c029d00 	lui	v0,0x9d00
9d007a1c:	8c467550 	lw	a2,30032(v0)
9d007a20:	8c477554 	lw	a3,30036(v0)
9d007a24:	01402025 	move	a0,t2
9d007a28:	0f402c54 	jal	9d00b150 <__muldf3>
9d007a2c:	00602825 	move	a1,v1
9d007a30:	00603825 	move	a3,v1
9d007a34:	afa3004c 	sw	v1,76(sp)
9d007a38:	8fa30038 	lw	v1,56(sp)
9d007a3c:	00403025 	move	a2,v0
9d007a40:	02602825 	move	a1,s3
9d007a44:	00602025 	move	a0,v1
9d007a48:	0f40355c 	jal	9d00d570 <dpcmplt>
9d007a4c:	afa20048 	sw	v0,72(sp)
9d007a50:	0440000f 	bltz	v0,9d007a90 <__fmt_fp+0x4f8>
9d007a54:	8faa0048 	lw	t2,72(sp)
9d007a58:	8fab004c 	lw	t3,76(sp)
9d007a5c:	8fa30038 	lw	v1,56(sp)
9d007a60:	01403025 	move	a2,t2
9d007a64:	01603825 	move	a3,t3
9d007a68:	00602025 	move	a0,v1
9d007a6c:	0f403511 	jal	9d00d444 <__eqdf2>
9d007a70:	02602825 	move	a1,s3
9d007a74:	8faa0048 	lw	t2,72(sp)
9d007a78:	14400007 	bnez	v0,9d007a98 <__fmt_fp+0x500>
9d007a7c:	8fab004c 	lw	t3,76(sp)
9d007a80:	8fa20040 	lw	v0,64(sp)
9d007a84:	30420001 	andi	v0,v0,0x1
9d007a88:	14400004 	bnez	v0,9d007a9c <__fmt_fp+0x504>
9d007a8c:	01403025 	move	a2,t2
9d007a90:	00005025 	move	t2,zero
9d007a94:	00005825 	move	t3,zero
9d007a98:	01403025 	move	a2,t2
9d007a9c:	01603825 	move	a3,t3
9d007aa0:	02c02025 	move	a0,s6
9d007aa4:	0f4028a2 	jal	9d00a288 <__adddf3>
9d007aa8:	02802825 	move	a1,s4
9d007aac:	0040b025 	move	s6,v0
9d007ab0:	afa20038 	sw	v0,56(sp)
9d007ab4:	8fa20030 	lw	v0,48(sp)
9d007ab8:	02202025 	move	a0,s1
9d007abc:	02402825 	move	a1,s2
9d007ac0:	8c467540 	lw	a2,30016(v0)
9d007ac4:	8c477544 	lw	a3,30020(v0)
9d007ac8:	afa30040 	sw	v1,64(sp)
9d007acc:	0f402c54 	jal	9d00b150 <__muldf3>
9d007ad0:	afa30048 	sw	v1,72(sp)
9d007ad4:	8fa80048 	lw	t0,72(sp)
9d007ad8:	02c03025 	move	a2,s6
9d007adc:	00402025 	move	a0,v0
9d007ae0:	01003825 	move	a3,t0
9d007ae4:	00602825 	move	a1,v1
9d007ae8:	00409825 	move	s3,v0
9d007aec:	0f40355c 	jal	9d00d570 <dpcmplt>
9d007af0:	0060a025 	move	s4,v1
9d007af4:	1c40005e 	bgtz	v0,9d007c70 <__fmt_fp+0x6d8>
9d007af8:	24020066 	li	v0,102
9d007afc:	17c2005e 	bne	s8,v0,9d007c78 <__fmt_fp+0x6e0>
9d007b00:	26f70001 	addiu	s7,s7,1
9d007b04:	26100001 	addiu	s0,s0,1
9d007b08:	02e08825 	move	s1,s7
9d007b0c:	02301023 	subu	v0,s1,s0
9d007b10:	afa20048 	sw	v0,72(sp)
9d007b14:	8fa2001c 	lw	v0,28(sp)
9d007b18:	8fb60024 	lw	s6,36(sp)
9d007b1c:	00005825 	move	t3,zero
9d007b20:	30420010 	andi	v0,v0,0x10
9d007b24:	afa20054 	sw	v0,84(sp)
9d007b28:	8fa20030 	lw	v0,48(sp)
9d007b2c:	00008025 	move	s0,zero
9d007b30:	24120009 	li	s2,9
9d007b34:	8c437544 	lw	v1,30020(v0)
9d007b38:	8c427540 	lw	v0,30016(v0)
9d007b3c:	afa30034 	sw	v1,52(sp)
9d007b40:	afa20030 	sw	v0,48(sp)
9d007b44:	8fa20048 	lw	v0,72(sp)
9d007b48:	10510007 	beq	v0,s1,9d007b68 <__fmt_fp+0x5d0>
9d007b4c:	02c05025 	move	t2,s6
9d007b50:	8fa2009c 	lw	v0,156(sp)
9d007b54:	8c420010 	lw	v0,16(v0)
9d007b58:	2442fffb 	addiu	v0,v0,-5
9d007b5c:	02c2102b 	sltu	v0,s6,v0
9d007b60:	14400049 	bnez	v0,9d007c88 <__fmt_fp+0x6f0>
9d007b64:	8fa30038 	lw	v1,56(sp)
9d007b68:	16000007 	bnez	s0,9d007b88 <__fmt_fp+0x5f0>
9d007b6c:	8fa2001c 	lw	v0,28(sp)
9d007b70:	30420010 	andi	v0,v0,0x10
9d007b74:	10400004 	beqz	v0,9d007b88 <__fmt_fp+0x5f0>
9d007b78:	02aa5021 	addu	t2,s5,t2
9d007b7c:	2402002e 	li	v0,46
9d007b80:	26d60001 	addiu	s6,s6,1
9d007b84:	a1420000 	sb	v0,0(t2)
9d007b88:	02b62021 	addu	a0,s5,s6
9d007b8c:	24020065 	li	v0,101
9d007b90:	17c20025 	bne	s8,v0,9d007c28 <__fmt_fp+0x690>
9d007b94:	a0800000 	sb	zero,0(a0)
9d007b98:	06e10003 	bgez	s7,9d007ba8 <__fmt_fp+0x610>
9d007b9c:	00001825 	move	v1,zero
9d007ba0:	0017b823 	negu	s7,s7
9d007ba4:	24030001 	li	v1,1
9d007ba8:	8fa20050 	lw	v0,80(sp)
9d007bac:	8fa60018 	lw	a2,24(sp)
9d007bb0:	2407000a 	li	a3,10
9d007bb4:	2442ffff 	addiu	v0,v0,-1
9d007bb8:	02a22821 	addu	a1,s5,v0
9d007bbc:	a0a00000 	sb	zero,0(a1)
9d007bc0:	24c9fffe 	addiu	t1,a2,-2
9d007bc4:	24050002 	li	a1,2
9d007bc8:	16e00089 	bnez	s7,9d007df0 <__fmt_fp+0x858>
9d007bcc:	01253021 	addu	a2,t1,a1
9d007bd0:	1ca00087 	bgtz	a1,9d007df0 <__fmt_fp+0x858>
9d007bd4:	00000000 	nop
9d007bd8:	2407002d 	li	a3,45
9d007bdc:	2405002b 	li	a1,43
9d007be0:	00e3280b 	movn	a1,a3,v1
9d007be4:	00a01825 	move	v1,a1
9d007be8:	02a22821 	addu	a1,s5,v0
9d007bec:	a0a3ffff 	sb	v1,-1(a1)
9d007bf0:	8fa300a4 	lw	v1,164(sp)
9d007bf4:	24050045 	li	a1,69
9d007bf8:	2442fffe 	addiu	v0,v0,-2
9d007bfc:	2463ffbf 	addiu	v1,v1,-65
9d007c00:	2c63001a 	sltiu	v1,v1,26
9d007c04:	00a3f00b 	movn	s8,a1,v1
9d007c08:	02c2b02a 	slt	s6,s6,v0
9d007c0c:	02a22821 	addu	a1,s5,v0
9d007c10:	24c3fffe 	addiu	v1,a2,-2
9d007c14:	a0be0000 	sb	s8,0(a1)
9d007c18:	12c00003 	beqz	s6,9d007c28 <__fmt_fp+0x690>
9d007c1c:	afa30018 	sw	v1,24(sp)
9d007c20:	0f40406d 	jal	9d0101b4 <strcpy>
9d007c24:	00000000 	nop
9d007c28:	8fa2001c 	lw	v0,28(sp)
9d007c2c:	24030002 	li	v1,2
9d007c30:	30420003 	andi	v0,v0,0x3
9d007c34:	1443fe9e 	bne	v0,v1,9d0076b0 <__fmt_fp+0x118>
9d007c38:	8fa20018 	lw	v0,24(sp)
9d007c3c:	1840fe9c 	blez	v0,9d0076b0 <__fmt_fp+0x118>
9d007c40:	00000000 	nop
9d007c44:	0f40411a 	jal	9d010468 <strlen>
9d007c48:	02a02025 	move	a0,s5
9d007c4c:	8fa30024 	lw	v1,36(sp)
9d007c50:	0043182a 	slt	v1,v0,v1
9d007c54:	10600070 	beqz	v1,9d007e18 <__fmt_fp+0x880>
9d007c58:	8fa60018 	lw	a2,24(sp)
9d007c5c:	8fa4002c 	lw	a0,44(sp)
9d007c60:	0f404081 	jal	9d010204 <memset>
9d007c64:	24050030 	li	a1,48
9d007c68:	1000fe91 	b	9d0076b0 <__fmt_fp+0x118>
9d007c6c:	afa00020 	sw	zero,32(sp)
9d007c70:	02209825 	move	s3,s1
9d007c74:	0240a025 	move	s4,s2
9d007c78:	3bc90065 	xori	t1,s8,0x65
9d007c7c:	02e08825 	move	s1,s7
9d007c80:	1000ffa2 	b	9d007b0c <__fmt_fp+0x574>
9d007c84:	0009880a 	movz	s1,zero,t1
9d007c88:	8fa20040 	lw	v0,64(sp)
9d007c8c:	02603025 	move	a2,s3
9d007c90:	02803825 	move	a3,s4
9d007c94:	00602025 	move	a0,v1
9d007c98:	00402825 	move	a1,v0
9d007c9c:	afab0064 	sw	t3,100(sp)
9d007ca0:	0f402666 	jal	9d009998 <__divdf3>
9d007ca4:	afaa0060 	sw	t2,96(sp)
9d007ca8:	00402025 	move	a0,v0
9d007cac:	0f40367b 	jal	9d00d9ec <dpfloor>
9d007cb0:	00602825 	move	a1,v1
9d007cb4:	00602825 	move	a1,v1
9d007cb8:	00402025 	move	a0,v0
9d007cbc:	afa3005c 	sw	v1,92(sp)
9d007cc0:	0f403b2e 	jal	9d00ecb8 <__fixdfsi>
9d007cc4:	afa20058 	sw	v0,88(sp)
9d007cc8:	2843000a 	slti	v1,v0,10
9d007ccc:	0243100a 	movz	v0,s2,v1
9d007cd0:	8fa30054 	lw	v1,84(sp)
9d007cd4:	8fb80058 	lw	t8,88(sp)
9d007cd8:	8fb9005c 	lw	t9,92(sp)
9d007cdc:	00621825 	or	v1,v1,v0
9d007ce0:	8faa0060 	lw	t2,96(sp)
9d007ce4:	1460000b 	bnez	v1,9d007d14 <__fmt_fp+0x77c>
9d007ce8:	8fab0064 	lw	t3,100(sp)
9d007cec:	8fa40028 	lw	a0,40(sp)
9d007cf0:	24030067 	li	v1,103
9d007cf4:	14830007 	bne	a0,v1,9d007d14 <__fmt_fp+0x77c>
9d007cf8:	00000000 	nop
9d007cfc:	06200021 	bltz	s1,9d007d84 <__fmt_fp+0x7ec>
9d007d00:	256a0001 	addiu	t2,t3,1
9d007d04:	02c01825 	move	v1,s6
9d007d08:	02b62021 	addu	a0,s5,s6
9d007d0c:	10000011 	b	9d007d54 <__fmt_fp+0x7bc>
9d007d10:	01605025 	move	t2,t3
9d007d14:	1600fffc 	bnez	s0,9d007d08 <__fmt_fp+0x770>
9d007d18:	02c01825 	move	v1,s6
9d007d1c:	0623fffb 	bgezl	s1,9d007d0c <__fmt_fp+0x774>
9d007d20:	02b62021 	addu	a0,s5,s6
9d007d24:	8fa30018 	lw	v1,24(sp)
9d007d28:	02aa5021 	addu	t2,s5,t2
9d007d2c:	26d60001 	addiu	s6,s6,1
9d007d30:	2463ffff 	addiu	v1,v1,-1
9d007d34:	afa30018 	sw	v1,24(sp)
9d007d38:	2403002e 	li	v1,46
9d007d3c:	a1430000 	sb	v1,0(t2)
9d007d40:	1000fff0 	b	9d007d04 <__fmt_fp+0x76c>
9d007d44:	24100001 	li	s0,1
9d007d48:	a0850000 	sb	a1,0(a0)
9d007d4c:	254affff 	addiu	t2,t2,-1
9d007d50:	24840001 	addiu	a0,a0,1
9d007d54:	1540fffc 	bnez	t2,9d007d48 <__fmt_fp+0x7b0>
9d007d58:	24050030 	li	a1,48
9d007d5c:	8fa40018 	lw	a0,24(sp)
9d007d60:	26d60001 	addiu	s6,s6,1
9d007d64:	02a31821 	addu	v1,s5,v1
9d007d68:	2484ffff 	addiu	a0,a0,-1
9d007d6c:	008b2023 	subu	a0,a0,t3
9d007d70:	02cbb021 	addu	s6,s6,t3
9d007d74:	24420030 	addiu	v0,v0,48
9d007d78:	006b5821 	addu	t3,v1,t3
9d007d7c:	afa40018 	sw	a0,24(sp)
9d007d80:	a1620000 	sb	v0,0(t3)
9d007d84:	8fa20040 	lw	v0,64(sp)
9d007d88:	8fa50038 	lw	a1,56(sp)
9d007d8c:	3c0b8000 	lui	t3,0x8000
9d007d90:	01622026 	xor	a0,t3,v0
9d007d94:	02603025 	move	a2,s3
9d007d98:	02803825 	move	a3,s4
9d007d9c:	afa50010 	sw	a1,16(sp)
9d007da0:	afa40014 	sw	a0,20(sp)
9d007da4:	03202825 	move	a1,t9
9d007da8:	03002025 	move	a0,t8
9d007dac:	0f40216d 	jal	9d0085b4 <fma>
9d007db0:	afaa0058 	sw	t2,88(sp)
9d007db4:	8fa60030 	lw	a2,48(sp)
9d007db8:	8fa70034 	lw	a3,52(sp)
9d007dbc:	3c0b8000 	lui	t3,0x8000
9d007dc0:	afa20038 	sw	v0,56(sp)
9d007dc4:	02602025 	move	a0,s3
9d007dc8:	01631026 	xor	v0,t3,v1
9d007dcc:	02802825 	move	a1,s4
9d007dd0:	0f402666 	jal	9d009998 <__divdf3>
9d007dd4:	afa20040 	sw	v0,64(sp)
9d007dd8:	8faa0058 	lw	t2,88(sp)
9d007ddc:	00409825 	move	s3,v0
9d007de0:	0060a025 	move	s4,v1
9d007de4:	2631ffff 	addiu	s1,s1,-1
9d007de8:	1000ff56 	b	9d007b44 <__fmt_fp+0x5ac>
9d007dec:	01405825 	move	t3,t2
9d007df0:	02e7001a 	div	zero,s7,a3
9d007df4:	00e001f4 	teq	a3,zero,0x7
9d007df8:	2442ffff 	addiu	v0,v0,-1
9d007dfc:	02a25021 	addu	t2,s5,v0
9d007e00:	24a5ffff 	addiu	a1,a1,-1
9d007e04:	00003010 	mfhi	a2
9d007e08:	24c60030 	addiu	a2,a2,48
9d007e0c:	a1460000 	sb	a2,0(t2)
9d007e10:	1000ff6d 	b	9d007bc8 <__fmt_fp+0x630>
9d007e14:	0000b812 	mflo	s7
9d007e18:	02a21821 	addu	v1,s5,v0
9d007e1c:	80640000 	lb	a0,0(v1)
9d007e20:	8fa30018 	lw	v1,24(sp)
9d007e24:	00621821 	addu	v1,v1,v0
9d007e28:	02a31821 	addu	v1,s5,v1
9d007e2c:	a0640000 	sb	a0,0(v1)
9d007e30:	1000ff86 	b	9d007c4c <__fmt_fp+0x6b4>
9d007e34:	2442ffff 	addiu	v0,v0,-1
9d007e38:	06e1feb6 	bgez	s7,9d007914 <__fmt_fp+0x37c>
9d007e3c:	8fa30028 	lw	v1,40(sp)
9d007e40:	1000feac 	b	9d0078f4 <__fmt_fp+0x35c>
9d007e44:	241e0066 	li	s8,102
9d007e48:	1000fe58 	b	9d0077ac <__fmt_fp+0x214>
9d007e4c:	24100006 	li	s0,6
9d007e50:	1062fe56 	beq	v1,v0,9d0077ac <__fmt_fp+0x214>
9d007e54:	24100006 	li	s0,6
9d007e58:	1000fea6 	b	9d0078f4 <__fmt_fp+0x35c>
9d007e5c:	0060f025 	move	s8,v1

Disassembly of section .text.__scanf_core:

9d007e60 <__scanf_core>:
9d007e60:	27bdfe20 	addiu	sp,sp,-480
9d007e64:	afb701d4 	sw	s7,468(sp)
9d007e68:	afb601d0 	sw	s6,464(sp)
9d007e6c:	afb501cc 	sw	s5,460(sp)
9d007e70:	afb201c0 	sw	s2,448(sp)
9d007e74:	afb001b8 	sw	s0,440(sp)
9d007e78:	afbf01dc 	sw	ra,476(sp)
9d007e7c:	afbe01d8 	sw	s8,472(sp)
9d007e80:	afb401c8 	sw	s4,456(sp)
9d007e84:	afb301c4 	sw	s3,452(sp)
9d007e88:	afb101bc 	sw	s1,444(sp)
9d007e8c:	00808025 	move	s0,a0
9d007e90:	00c09025 	move	s2,a2
9d007e94:	afa501b4 	sw	a1,436(sp)
9d007e98:	afa001b0 	sw	zero,432(sp)
9d007e9c:	0000a825 	move	s5,zero
9d007ea0:	27b7011c 	addiu	s7,sp,284
9d007ea4:	24160001 	li	s6,1
9d007ea8:	8fa201b4 	lw	v0,436(sp)
9d007eac:	80420000 	lb	v0,0(v0)
9d007eb0:	1040005c 	beqz	v0,9d008024 <__scanf_core+0x1c4>
9d007eb4:	24020080 	li	v0,128
9d007eb8:	27a501b4 	addiu	a1,sp,436
9d007ebc:	02002025 	move	a0,s0
9d007ec0:	afa0019c 	sw	zero,412(sp)
9d007ec4:	afa001a0 	sw	zero,416(sp)
9d007ec8:	afa001a4 	sw	zero,420(sp)
9d007ecc:	afb701a8 	sw	s7,424(sp)
9d007ed0:	0f403cea 	jal	9d00f3a8 <__consumews>
9d007ed4:	afa201ac 	sw	v0,428(sp)
9d007ed8:	0040f025 	move	s8,v0
9d007edc:	24110025 	li	s1,37
9d007ee0:	2414ffff 	li	s4,-1
9d007ee4:	8fa301b4 	lw	v1,436(sp)
9d007ee8:	80620000 	lb	v0,0(v1)
9d007eec:	50400003 	beqzl	v0,9d007efc <__scanf_core+0x9c>
9d007ef0:	8fa201b0 	lw	v0,432(sp)
9d007ef4:	1451003a 	bne	v0,s1,9d007fe0 <__scanf_core+0x180>
9d007ef8:	8fa201b0 	lw	v0,432(sp)
9d007efc:	005e1021 	addu	v0,v0,s8
9d007f00:	afa201b0 	sw	v0,432(sp)
9d007f04:	80640000 	lb	a0,0(v1)
9d007f08:	24020025 	li	v0,37
9d007f0c:	1482002d 	bne	a0,v0,9d007fc4 <__scanf_core+0x164>
9d007f10:	24620001 	addiu	v0,v1,1
9d007f14:	afa201b4 	sw	v0,436(sp)
9d007f18:	afa001a4 	sw	zero,420(sp)
9d007f1c:	80640001 	lb	a0,1(v1)
9d007f20:	2402002a 	li	v0,42
9d007f24:	14820004 	bne	a0,v0,9d007f38 <__scanf_core+0xd8>
9d007f28:	00008825 	move	s1,zero
9d007f2c:	24630002 	addiu	v1,v1,2
9d007f30:	afa301b4 	sw	v1,436(sp)
9d007f34:	24110001 	li	s1,1
9d007f38:	0f403c1c 	jal	9d00f070 <atoi>
9d007f3c:	8fa401b4 	lw	a0,436(sp)
9d007f40:	00402825 	move	a1,v0
9d007f44:	02002025 	move	a0,s0
9d007f48:	0f40402d 	jal	9d0100b4 <__shlim>
9d007f4c:	afa201a4 	sw	v0,420(sp)
9d007f50:	8fa301b4 	lw	v1,436(sp)
9d007f54:	80620000 	lb	v0,0(v1)
9d007f58:	2442ffd0 	addiu	v0,v0,-48
9d007f5c:	2c42000a 	sltiu	v0,v0,10
9d007f60:	1440004c 	bnez	v0,9d008094 <__scanf_core+0x234>
9d007f64:	24630001 	addiu	v1,v1,1
9d007f68:	0f403e01 	jal	9d00f804 <__fmt_state>
9d007f6c:	27a401b4 	addiu	a0,sp,436
9d007f70:	0040a025 	move	s4,v0
9d007f74:	8fa201b4 	lw	v0,436(sp)
9d007f78:	0f4040c8 	jal	9d010320 <tolower>
9d007f7c:	80440000 	lb	a0,0(v0)
9d007f80:	28430068 	slti	v1,v0,104
9d007f84:	10600060 	beqz	v1,9d008108 <__scanf_core+0x2a8>
9d007f88:	28430065 	slti	v1,v0,101
9d007f8c:	106000be 	beqz	v1,9d008288 <__scanf_core+0x428>
9d007f90:	24030061 	li	v1,97
9d007f94:	104300bc 	beq	v0,v1,9d008288 <__scanf_core+0x428>
9d007f98:	28430062 	slti	v1,v0,98
9d007f9c:	1060003f 	beqz	v1,9d00809c <__scanf_core+0x23c>
9d007fa0:	24040025 	li	a0,37
9d007fa4:	104400e1 	beq	v0,a0,9d00832c <__scanf_core+0x4cc>
9d007fa8:	8fa301b4 	lw	v1,436(sp)
9d007fac:	2404005b 	li	a0,91
9d007fb0:	104400fd 	beq	v0,a0,9d0083a8 <__scanf_core+0x548>
9d007fb4:	24020080 	li	v0,128
9d007fb8:	8fa201b4 	lw	v0,436(sp)
9d007fbc:	24420001 	addiu	v0,v0,1
9d007fc0:	afa201b4 	sw	v0,436(sp)
9d007fc4:	2402ffff 	li	v0,-1
9d007fc8:	166200ad 	bne	s3,v0,9d008280 <__scanf_core+0x420>
9d007fcc:	00008825 	move	s1,zero
9d007fd0:	52a00014 	beqzl	s5,9d008024 <__scanf_core+0x1c4>
9d007fd4:	2415ffff 	li	s5,-1
9d007fd8:	10000013 	b	9d008028 <__scanf_core+0x1c8>
9d007fdc:	8fbf01dc 	lw	ra,476(sp)
9d007fe0:	8e02003c 	lw	v0,60(s0)
9d007fe4:	8e03004c 	lw	v1,76(s0)
9d007fe8:	0043182b 	sltu	v1,v0,v1
9d007fec:	1060001a 	beqz	v1,9d008058 <__scanf_core+0x1f8>
9d007ff0:	24430001 	addiu	v1,v0,1
9d007ff4:	ae03003c 	sw	v1,60(s0)
9d007ff8:	90530000 	lbu	s3,0(v0)
9d007ffc:	8fa201b4 	lw	v0,436(sp)
9d008000:	80420000 	lb	v0,0(v0)
9d008004:	10530019 	beq	v0,s3,9d00806c <__scanf_core+0x20c>
9d008008:	8fa201b0 	lw	v0,432(sp)
9d00800c:	8e02004c 	lw	v0,76(s0)
9d008010:	10400005 	beqz	v0,9d008028 <__scanf_core+0x1c8>
9d008014:	8fbf01dc 	lw	ra,476(sp)
9d008018:	8e02003c 	lw	v0,60(s0)
9d00801c:	2442ffff 	addiu	v0,v0,-1
9d008020:	ae02003c 	sw	v0,60(s0)
9d008024:	8fbf01dc 	lw	ra,476(sp)
9d008028:	02a01025 	move	v0,s5
9d00802c:	8fbe01d8 	lw	s8,472(sp)
9d008030:	8fb701d4 	lw	s7,468(sp)
9d008034:	8fb601d0 	lw	s6,464(sp)
9d008038:	8fb501cc 	lw	s5,460(sp)
9d00803c:	8fb401c8 	lw	s4,456(sp)
9d008040:	8fb301c4 	lw	s3,452(sp)
9d008044:	8fb201c0 	lw	s2,448(sp)
9d008048:	8fb101bc 	lw	s1,444(sp)
9d00804c:	8fb001b8 	lw	s0,440(sp)
9d008050:	03e00008 	jr	ra
9d008054:	27bd01e0 	addiu	sp,sp,480
9d008058:	0f403917 	jal	9d00e45c <__shgetc>
9d00805c:	02002025 	move	a0,s0
9d008060:	1454ffe6 	bne	v0,s4,9d007ffc <__scanf_core+0x19c>
9d008064:	00409825 	move	s3,v0
9d008068:	8fa201b0 	lw	v0,432(sp)
9d00806c:	27a501b4 	addiu	a1,sp,436
9d008070:	02002025 	move	a0,s0
9d008074:	24420001 	addiu	v0,v0,1
9d008078:	afa201b0 	sw	v0,432(sp)
9d00807c:	8fa201b4 	lw	v0,436(sp)
9d008080:	24420001 	addiu	v0,v0,1
9d008084:	0f403cea 	jal	9d00f3a8 <__consumews>
9d008088:	afa201b4 	sw	v0,436(sp)
9d00808c:	1000ff95 	b	9d007ee4 <__scanf_core+0x84>
9d008090:	03c2f021 	addu	s8,s8,v0
9d008094:	1000ffae 	b	9d007f50 <__scanf_core+0xf0>
9d008098:	afa301b4 	sw	v1,436(sp)
9d00809c:	24030063 	li	v1,99
9d0080a0:	1043008a 	beq	v0,v1,9d0082cc <__scanf_core+0x46c>
9d0080a4:	24030064 	li	v1,100
9d0080a8:	1443ffc3 	bne	v0,v1,9d007fb8 <__scanf_core+0x158>
9d0080ac:	27a701b0 	addiu	a3,sp,432
9d0080b0:	27a6019c 	addiu	a2,sp,412
9d0080b4:	27a50018 	addiu	a1,sp,24
9d0080b8:	0f403cb2 	jal	9d00f2c8 <__scan_d>
9d0080bc:	02002025 	move	a0,s0
9d0080c0:	0442000c 	bltzl	v0,9d0080f4 <__scanf_core+0x294>
9d0080c4:	00408825 	move	s1,v0
9d0080c8:	8fa201b4 	lw	v0,436(sp)
9d0080cc:	24420001 	addiu	v0,v0,1
9d0080d0:	162000a8 	bnez	s1,9d008374 <__scanf_core+0x514>
9d0080d4:	afa201b4 	sw	v0,436(sp)
9d0080d8:	02403825 	move	a3,s2
9d0080dc:	24060001 	li	a2,1
9d0080e0:	02802825 	move	a1,s4
9d0080e4:	0f4031c3 	jal	9d00c70c <__push_int>
9d0080e8:	27a40018 	addiu	a0,sp,24
9d0080ec:	04410064 	bgez	v0,9d008280 <__scanf_core+0x420>
9d0080f0:	00408825 	move	s1,v0
9d0080f4:	2402ffff 	li	v0,-1
9d0080f8:	1222ffb5 	beq	s1,v0,9d007fd0 <__scanf_core+0x170>
9d0080fc:	8fbf01dc 	lw	ra,476(sp)
9d008100:	1000ffca 	b	9d00802c <__scanf_core+0x1cc>
9d008104:	02a01025 	move	v0,s5
9d008108:	24030070 	li	v1,112
9d00810c:	10430040 	beq	v0,v1,9d008210 <__scanf_core+0x3b0>
9d008110:	28430071 	slti	v1,v0,113
9d008114:	1060000d 	beqz	v1,9d00814c <__scanf_core+0x2ec>
9d008118:	2403006e 	li	v1,110
9d00811c:	1043004b 	beq	v0,v1,9d00824c <__scanf_core+0x3ec>
9d008120:	2843006f 	slti	v1,v0,111
9d008124:	1060002c 	beqz	v1,9d0081d8 <__scanf_core+0x378>
9d008128:	24030069 	li	v1,105
9d00812c:	1443ffa2 	bne	v0,v1,9d007fb8 <__scanf_core+0x158>
9d008130:	27a701b0 	addiu	a3,sp,432
9d008134:	27a6019c 	addiu	a2,sp,412
9d008138:	27a50018 	addiu	a1,sp,24
9d00813c:	0f402dde 	jal	9d00b778 <__scan_i>
9d008140:	02002025 	move	a0,s0
9d008144:	1000ffde 	b	9d0080c0 <__scanf_core+0x260>
9d008148:	00000000 	nop
9d00814c:	24030075 	li	v1,117
9d008150:	10430013 	beq	v0,v1,9d0081a0 <__scanf_core+0x340>
9d008154:	24030078 	li	v1,120
9d008158:	10430026 	beq	v0,v1,9d0081f4 <__scanf_core+0x394>
9d00815c:	24030073 	li	v1,115
9d008160:	1443ff95 	bne	v0,v1,9d007fb8 <__scanf_core+0x158>
9d008164:	24020080 	li	v0,128
9d008168:	1682ff93 	bne	s4,v0,9d007fb8 <__scanf_core+0x158>
9d00816c:	8fa201b4 	lw	v0,436(sp)
9d008170:	24420001 	addiu	v0,v0,1
9d008174:	afa201b4 	sw	v0,436(sp)
9d008178:	16200005 	bnez	s1,9d008190 <__scanf_core+0x330>
9d00817c:	00001025 	move	v0,zero
9d008180:	8e420000 	lw	v0,0(s2)
9d008184:	24430004 	addiu	v1,v0,4
9d008188:	ae430000 	sw	v1,0(s2)
9d00818c:	8c420000 	lw	v0,0(v0)
9d008190:	afa20010 	sw	v0,16(sp)
9d008194:	27a701b0 	addiu	a3,sp,432
9d008198:	1000005f 	b	9d008318 <__scanf_core+0x4b8>
9d00819c:	24060001 	li	a2,1
9d0081a0:	27a701b0 	addiu	a3,sp,432
9d0081a4:	27a6019c 	addiu	a2,sp,412
9d0081a8:	27a50018 	addiu	a1,sp,24
9d0081ac:	0f403cce 	jal	9d00f338 <__scan_u>
9d0081b0:	02002025 	move	a0,s0
9d0081b4:	0442ffcf 	bltzl	v0,9d0080f4 <__scanf_core+0x294>
9d0081b8:	00408825 	move	s1,v0
9d0081bc:	8fa201b4 	lw	v0,436(sp)
9d0081c0:	24420001 	addiu	v0,v0,1
9d0081c4:	1620006b 	bnez	s1,9d008374 <__scanf_core+0x514>
9d0081c8:	afa201b4 	sw	v0,436(sp)
9d0081cc:	02403825 	move	a3,s2
9d0081d0:	1000ffc3 	b	9d0080e0 <__scanf_core+0x280>
9d0081d4:	00003025 	move	a2,zero
9d0081d8:	27a701b0 	addiu	a3,sp,432
9d0081dc:	27a6019c 	addiu	a2,sp,412
9d0081e0:	27a50018 	addiu	a1,sp,24
9d0081e4:	0f4032cf 	jal	9d00cb3c <__scan_o>
9d0081e8:	02002025 	move	a0,s0
9d0081ec:	1000fff1 	b	9d0081b4 <__scanf_core+0x354>
9d0081f0:	00000000 	nop
9d0081f4:	27a701b0 	addiu	a3,sp,432
9d0081f8:	27a6019c 	addiu	a2,sp,412
9d0081fc:	27a50018 	addiu	a1,sp,24
9d008200:	0f402fb1 	jal	9d00bec4 <__scan_x>
9d008204:	02002025 	move	a0,s0
9d008208:	1000ffea 	b	9d0081b4 <__scanf_core+0x354>
9d00820c:	00000000 	nop
9d008210:	27a701b0 	addiu	a3,sp,432
9d008214:	27a6019c 	addiu	a2,sp,412
9d008218:	27a50018 	addiu	a1,sp,24
9d00821c:	0f402fb1 	jal	9d00bec4 <__scan_x>
9d008220:	02002025 	move	a0,s0
9d008224:	0442ffb3 	bltzl	v0,9d0080f4 <__scanf_core+0x294>
9d008228:	00408825 	move	s1,v0
9d00822c:	8fa201b4 	lw	v0,436(sp)
9d008230:	24420001 	addiu	v0,v0,1
9d008234:	1620004f 	bnez	s1,9d008374 <__scanf_core+0x514>
9d008238:	afa201b4 	sw	v0,436(sp)
9d00823c:	02403825 	move	a3,s2
9d008240:	00003025 	move	a2,zero
9d008244:	1000ffa7 	b	9d0080e4 <__scanf_core+0x284>
9d008248:	240500f0 	li	a1,240
9d00824c:	8fa201b4 	lw	v0,436(sp)
9d008250:	24420001 	addiu	v0,v0,1
9d008254:	afa201b4 	sw	v0,436(sp)
9d008258:	8fa201b0 	lw	v0,432(sp)
9d00825c:	afa20018 	sw	v0,24(sp)
9d008260:	000217c3 	sra	v0,v0,0x1f
9d008264:	16200043 	bnez	s1,9d008374 <__scanf_core+0x514>
9d008268:	afa2001c 	sw	v0,28(sp)
9d00826c:	02403825 	move	a3,s2
9d008270:	00003025 	move	a2,zero
9d008274:	02802825 	move	a1,s4
9d008278:	0f4031c3 	jal	9d00c70c <__push_int>
9d00827c:	27a40018 	addiu	a0,sp,24
9d008280:	1000ff09 	b	9d007ea8 <__scanf_core+0x48>
9d008284:	02b1a821 	addu	s5,s5,s1
9d008288:	27a701b0 	addiu	a3,sp,432
9d00828c:	27a6019c 	addiu	a2,sp,412
9d008290:	27a50018 	addiu	a1,sp,24
9d008294:	0f404130 	jal	9d0104c0 <__scan_a>
9d008298:	02002025 	move	a0,s0
9d00829c:	0442ff95 	bltzl	v0,9d0080f4 <__scanf_core+0x294>
9d0082a0:	00408825 	move	s1,v0
9d0082a4:	8fa201b4 	lw	v0,436(sp)
9d0082a8:	24420001 	addiu	v0,v0,1
9d0082ac:	16200031 	bnez	s1,9d008374 <__scanf_core+0x514>
9d0082b0:	afa201b4 	sw	v0,436(sp)
9d0082b4:	02403025 	move	a2,s2
9d0082b8:	02802825 	move	a1,s4
9d0082bc:	0f4039f2 	jal	9d00e7c8 <__push_float>
9d0082c0:	27a40018 	addiu	a0,sp,24
9d0082c4:	1000ff89 	b	9d0080ec <__scanf_core+0x28c>
9d0082c8:	00000000 	nop
9d0082cc:	24020080 	li	v0,128
9d0082d0:	1682ff39 	bne	s4,v0,9d007fb8 <__scanf_core+0x158>
9d0082d4:	8fa201a4 	lw	v0,420(sp)
9d0082d8:	54400004 	bnezl	v0,9d0082ec <__scanf_core+0x48c>
9d0082dc:	8fa201b4 	lw	v0,436(sp)
9d0082e0:	24020001 	li	v0,1
9d0082e4:	afa201a4 	sw	v0,420(sp)
9d0082e8:	8fa201b4 	lw	v0,436(sp)
9d0082ec:	24420001 	addiu	v0,v0,1
9d0082f0:	afa201b4 	sw	v0,436(sp)
9d0082f4:	16200005 	bnez	s1,9d00830c <__scanf_core+0x4ac>
9d0082f8:	00001025 	move	v0,zero
9d0082fc:	8e420000 	lw	v0,0(s2)
9d008300:	24430004 	addiu	v1,v0,4
9d008304:	ae430000 	sw	v1,0(s2)
9d008308:	8c420000 	lw	v0,0(v0)
9d00830c:	afa20010 	sw	v0,16(sp)
9d008310:	27a701b0 	addiu	a3,sp,432
9d008314:	00003025 	move	a2,zero
9d008318:	27a5019c 	addiu	a1,sp,412
9d00831c:	0f403279 	jal	9d00c9e4 <__scan_s>
9d008320:	02002025 	move	a0,s0
9d008324:	1000ff71 	b	9d0080ec <__scanf_core+0x28c>
9d008328:	00000000 	nop
9d00832c:	24020080 	li	v0,128
9d008330:	1682ff22 	bne	s4,v0,9d007fbc <__scanf_core+0x15c>
9d008334:	8fa201b4 	lw	v0,436(sp)
9d008338:	24630001 	addiu	v1,v1,1
9d00833c:	afa301b4 	sw	v1,436(sp)
9d008340:	8e02003c 	lw	v0,60(s0)
9d008344:	8e03004c 	lw	v1,76(s0)
9d008348:	0043182b 	sltu	v1,v0,v1
9d00834c:	1060000b 	beqz	v1,9d00837c <__scanf_core+0x51c>
9d008350:	00000000 	nop
9d008354:	24430001 	addiu	v1,v0,1
9d008358:	ae03003c 	sw	v1,60(s0)
9d00835c:	90420000 	lbu	v0,0(v0)
9d008360:	24030025 	li	v1,37
9d008364:	14430009 	bne	v0,v1,9d00838c <__scanf_core+0x52c>
9d008368:	8fa201b0 	lw	v0,432(sp)
9d00836c:	24420001 	addiu	v0,v0,1
9d008370:	afa201b0 	sw	v0,432(sp)
9d008374:	1000ffc2 	b	9d008280 <__scanf_core+0x420>
9d008378:	00008825 	move	s1,zero
9d00837c:	0f403917 	jal	9d00e45c <__shgetc>
9d008380:	02002025 	move	a0,s0
9d008384:	1000fff7 	b	9d008364 <__scanf_core+0x504>
9d008388:	24030025 	li	v1,37
9d00838c:	8e02004c 	lw	v0,76(s0)
9d008390:	5040ffbb 	beqzl	v0,9d008280 <__scanf_core+0x420>
9d008394:	00008825 	move	s1,zero
9d008398:	8e02003c 	lw	v0,60(s0)
9d00839c:	2442ffff 	addiu	v0,v0,-1
9d0083a0:	1000fff4 	b	9d008374 <__scanf_core+0x514>
9d0083a4:	ae02003c 	sw	v0,60(s0)
9d0083a8:	1682ff04 	bne	s4,v0,9d007fbc <__scanf_core+0x15c>
9d0083ac:	8fa201b4 	lw	v0,436(sp)
9d0083b0:	16200005 	bnez	s1,9d0083c8 <__scanf_core+0x568>
9d0083b4:	0000a025 	move	s4,zero
9d0083b8:	8e420000 	lw	v0,0(s2)
9d0083bc:	24440004 	addiu	a0,v0,4
9d0083c0:	ae440000 	sw	a0,0(s2)
9d0083c4:	8c540000 	lw	s4,0(v0)
9d0083c8:	24620001 	addiu	v0,v1,1
9d0083cc:	afa201b4 	sw	v0,436(sp)
9d0083d0:	80640001 	lb	a0,1(v1)
9d0083d4:	2402005e 	li	v0,94
9d0083d8:	14820004 	bne	a0,v0,9d0083ec <__scanf_core+0x58c>
9d0083dc:	00008825 	move	s1,zero
9d0083e0:	24630002 	addiu	v1,v1,2
9d0083e4:	afa301b4 	sw	v1,436(sp)
9d0083e8:	24110001 	li	s1,1
9d0083ec:	27a40018 	addiu	a0,sp,24
9d0083f0:	24060101 	li	a2,257
9d0083f4:	0f404081 	jal	9d010204 <memset>
9d0083f8:	02202825 	move	a1,s1
9d0083fc:	8fa201b4 	lw	v0,436(sp)
9d008400:	a3a00018 	sb	zero,24(sp)
9d008404:	2404002d 	li	a0,45
9d008408:	80430000 	lb	v1,0(v0)
9d00840c:	1464001c 	bne	v1,a0,9d008480 <__scanf_core+0x620>
9d008410:	2404005d 	li	a0,93
9d008414:	24420001 	addiu	v0,v0,1
9d008418:	afa201b4 	sw	v0,436(sp)
9d00841c:	02d11023 	subu	v0,s6,s1
9d008420:	a3a20046 	sb	v0,70(sp)
9d008424:	2405005d 	li	a1,93
9d008428:	2406002d 	li	a2,45
9d00842c:	02d18823 	subu	s1,s6,s1
9d008430:	8fa301b4 	lw	v1,436(sp)
9d008434:	80620000 	lb	v0,0(v1)
9d008438:	14450017 	bne	v0,a1,9d008498 <__scanf_core+0x638>
9d00843c:	00000000 	nop
9d008440:	56800036 	bnezl	s4,9d00851c <__scanf_core+0x6bc>
9d008444:	00008825 	move	s1,zero
9d008448:	8e02003c 	lw	v0,60(s0)
9d00844c:	8e03004c 	lw	v1,76(s0)
9d008450:	0043182b 	sltu	v1,v0,v1
9d008454:	10600053 	beqz	v1,9d0085a4 <__scanf_core+0x744>
9d008458:	24430001 	addiu	v1,v0,1
9d00845c:	ae03003c 	sw	v1,60(s0)
9d008460:	90530000 	lbu	s3,0(v0)
9d008464:	27a20018 	addiu	v0,sp,24
9d008468:	00531021 	addu	v0,v0,s3
9d00846c:	90420001 	lbu	v0,1(v0)
9d008470:	14400048 	bnez	v0,9d008594 <__scanf_core+0x734>
9d008474:	0000f025 	move	s8,zero
9d008478:	10000036 	b	9d008554 <__scanf_core+0x6f4>
9d00847c:	8e02004c 	lw	v0,76(s0)
9d008480:	1464ffe8 	bne	v1,a0,9d008424 <__scanf_core+0x5c4>
9d008484:	24420001 	addiu	v0,v0,1
9d008488:	afa201b4 	sw	v0,436(sp)
9d00848c:	02d11023 	subu	v0,s6,s1
9d008490:	1000ffe4 	b	9d008424 <__scanf_core+0x5c4>
9d008494:	a3a20076 	sb	v0,118(sp)
9d008498:	1040ffe9 	beqz	v0,9d008440 <__scanf_core+0x5e0>
9d00849c:	00000000 	nop
9d0084a0:	10460009 	beq	v0,a2,9d0084c8 <__scanf_core+0x668>
9d0084a4:	8fa201b8 	lw	v0,440(sp)
9d0084a8:	8fa201b4 	lw	v0,436(sp)
9d0084ac:	27a40018 	addiu	a0,sp,24
9d0084b0:	80430000 	lb	v1,0(v0)
9d0084b4:	24420001 	addiu	v0,v0,1
9d0084b8:	afa201b4 	sw	v0,436(sp)
9d0084bc:	00831821 	addu	v1,a0,v1
9d0084c0:	1000ffdb 	b	9d008430 <__scanf_core+0x5d0>
9d0084c4:	a0710001 	sb	s1,1(v1)
9d0084c8:	80420000 	lb	v0,0(v0)
9d0084cc:	5040fff7 	beqzl	v0,9d0084ac <__scanf_core+0x64c>
9d0084d0:	8fa201b4 	lw	v0,436(sp)
9d0084d4:	1045fff4 	beq	v0,a1,9d0084a8 <__scanf_core+0x648>
9d0084d8:	24620001 	addiu	v0,v1,1
9d0084dc:	afa201b4 	sw	v0,436(sp)
9d0084e0:	8fa201b0 	lw	v0,432(sp)
9d0084e4:	80420000 	lb	v0,0(v0)
9d0084e8:	80640001 	lb	a0,1(v1)
9d0084ec:	0044202a 	slt	a0,v0,a0
9d0084f0:	1080ffed 	beqz	a0,9d0084a8 <__scanf_core+0x648>
9d0084f4:	24420001 	addiu	v0,v0,1
9d0084f8:	27a40018 	addiu	a0,sp,24
9d0084fc:	00822021 	addu	a0,a0,v0
9d008500:	1000fff9 	b	9d0084e8 <__scanf_core+0x688>
9d008504:	a0910000 	sb	s1,0(a0)
9d008508:	a0530000 	sb	s3,0(v0)
9d00850c:	8fa201b0 	lw	v0,432(sp)
9d008510:	26310001 	addiu	s1,s1,1
9d008514:	24420001 	addiu	v0,v0,1
9d008518:	afa201b0 	sw	v0,432(sp)
9d00851c:	8e02003c 	lw	v0,60(s0)
9d008520:	8e03004c 	lw	v1,76(s0)
9d008524:	0043182b 	sltu	v1,v0,v1
9d008528:	10600016 	beqz	v1,9d008584 <__scanf_core+0x724>
9d00852c:	0220f025 	move	s8,s1
9d008530:	24430001 	addiu	v1,v0,1
9d008534:	ae03003c 	sw	v1,60(s0)
9d008538:	90530000 	lbu	s3,0(v0)
9d00853c:	27a20018 	addiu	v0,sp,24
9d008540:	00531021 	addu	v0,v0,s3
9d008544:	90420001 	lbu	v0,1(v0)
9d008548:	1440ffef 	bnez	v0,9d008508 <__scanf_core+0x6a8>
9d00854c:	02911021 	addu	v0,s4,s1
9d008550:	8e02004c 	lw	v0,76(s0)
9d008554:	10400004 	beqz	v0,9d008568 <__scanf_core+0x708>
9d008558:	00000000 	nop
9d00855c:	8e02003c 	lw	v0,60(s0)
9d008560:	2442ffff 	addiu	v0,v0,-1
9d008564:	ae02003c 	sw	v0,60(s0)
9d008568:	13c0fe94 	beqz	s8,9d007fbc <__scanf_core+0x15c>
9d00856c:	8fa201b4 	lw	v0,436(sp)
9d008570:	1280fe93 	beqz	s4,9d007fc0 <__scanf_core+0x160>
9d008574:	24420001 	addiu	v0,v0,1
9d008578:	029ea021 	addu	s4,s4,s8
9d00857c:	1000fe8e 	b	9d007fb8 <__scanf_core+0x158>
9d008580:	a2800000 	sb	zero,0(s4)
9d008584:	0f403917 	jal	9d00e45c <__shgetc>
9d008588:	02002025 	move	a0,s0
9d00858c:	1000ffeb 	b	9d00853c <__scanf_core+0x6dc>
9d008590:	00409825 	move	s3,v0
9d008594:	8fa201b0 	lw	v0,432(sp)
9d008598:	24420001 	addiu	v0,v0,1
9d00859c:	1000ffaa 	b	9d008448 <__scanf_core+0x5e8>
9d0085a0:	afa201b0 	sw	v0,432(sp)
9d0085a4:	0f403917 	jal	9d00e45c <__shgetc>
9d0085a8:	02002025 	move	a0,s0
9d0085ac:	1000ffad 	b	9d008464 <__scanf_core+0x604>
9d0085b0:	00409825 	move	s3,v0

Disassembly of section .text.fma:

9d0085b4 <fma>:
9d0085b4:	27bdff78 	addiu	sp,sp,-136
9d0085b8:	afa40088 	sw	a0,136(sp)
9d0085bc:	afa60090 	sw	a2,144(sp)
9d0085c0:	afa70094 	sw	a3,148(sp)
9d0085c4:	00803025 	move	a2,a0
9d0085c8:	00a03825 	move	a3,a1
9d0085cc:	27a40030 	addiu	a0,sp,48
9d0085d0:	afbf0084 	sw	ra,132(sp)
9d0085d4:	afa5008c 	sw	a1,140(sp)
9d0085d8:	afbe0080 	sw	s8,128(sp)
9d0085dc:	afb3006c 	sw	s3,108(sp)
9d0085e0:	afb20068 	sw	s2,104(sp)
9d0085e4:	afb10064 	sw	s1,100(sp)
9d0085e8:	8fb20098 	lw	s2,152(sp)
9d0085ec:	8fb3009c 	lw	s3,156(sp)
9d0085f0:	afb7007c 	sw	s7,124(sp)
9d0085f4:	afb60078 	sw	s6,120(sp)
9d0085f8:	afb50074 	sw	s5,116(sp)
9d0085fc:	afb40070 	sw	s4,112(sp)
9d008600:	0f403a1c 	jal	9d00e870 <normalize>
9d008604:	afb00060 	sw	s0,96(sp)
9d008608:	8fa60090 	lw	a2,144(sp)
9d00860c:	8fa70094 	lw	a3,148(sp)
9d008610:	8fb10038 	lw	s1,56(sp)
9d008614:	0f403a1c 	jal	9d00e870 <normalize>
9d008618:	27a40020 	addiu	a0,sp,32
9d00861c:	02403025 	move	a2,s2
9d008620:	02603825 	move	a3,s3
9d008624:	27a40010 	addiu	a0,sp,16
9d008628:	0f403a1c 	jal	9d00e870 <normalize>
9d00862c:	8fbe0028 	lw	s8,40(sp)
9d008630:	2a2203cb 	slti	v0,s1,971
9d008634:	10400003 	beqz	v0,9d008644 <fma+0x90>
9d008638:	2bc203cb 	slti	v0,s8,971
9d00863c:	1440000e 	bnez	v0,9d008678 <fma+0xc4>
9d008640:	8fb90018 	lw	t9,24(sp)
9d008644:	8fa60090 	lw	a2,144(sp)
9d008648:	8fa70094 	lw	a3,148(sp)
9d00864c:	8fa40088 	lw	a0,136(sp)
9d008650:	0f402c54 	jal	9d00b150 <__muldf3>
9d008654:	8fa5008c 	lw	a1,140(sp)
9d008658:	00403025 	move	a2,v0
9d00865c:	00603825 	move	a3,v1
9d008660:	02402025 	move	a0,s2
9d008664:	0f4028a2 	jal	9d00a288 <__adddf3>
9d008668:	02602825 	move	a1,s3
9d00866c:	00409025 	move	s2,v0
9d008670:	10000006 	b	9d00868c <fma+0xd8>
9d008674:	00609825 	move	s3,v1
9d008678:	2b2203cb 	slti	v0,t9,971
9d00867c:	14400011 	bnez	v0,9d0086c4 <fma+0x110>
9d008680:	240203cb 	li	v0,971
9d008684:	1722fff0 	bne	t9,v0,9d008648 <fma+0x94>
9d008688:	8fa60090 	lw	a2,144(sp)
9d00868c:	8fbf0084 	lw	ra,132(sp)
9d008690:	02401025 	move	v0,s2
9d008694:	02601825 	move	v1,s3
9d008698:	8fbe0080 	lw	s8,128(sp)
9d00869c:	8fb7007c 	lw	s7,124(sp)
9d0086a0:	8fb60078 	lw	s6,120(sp)
9d0086a4:	8fb50074 	lw	s5,116(sp)
9d0086a8:	8fb40070 	lw	s4,112(sp)
9d0086ac:	8fb3006c 	lw	s3,108(sp)
9d0086b0:	8fb20068 	lw	s2,104(sp)
9d0086b4:	8fb10064 	lw	s1,100(sp)
9d0086b8:	8fb00060 	lw	s0,96(sp)
9d0086bc:	03e00008 	jr	ra
9d0086c0:	27bd0088 	addiu	sp,sp,136
9d0086c4:	8fa20030 	lw	v0,48(sp)
9d0086c8:	8faa0020 	lw	t2,32(sp)
9d0086cc:	8fa40024 	lw	a0,36(sp)
9d0086d0:	8fa60034 	lw	a2,52(sp)
9d0086d4:	004a0019 	multu	v0,t2
9d0086d8:	03d1f021 	addu	s8,s8,s1
9d0086dc:	033e8823 	subu	s1,t9,s8
9d0086e0:	8fa70010 	lw	a3,16(sp)
9d0086e4:	8fb70014 	lw	s7,20(sp)
9d0086e8:	00004012 	mflo	t0
9d0086ec:	afa80040 	sw	t0,64(sp)
9d0086f0:	8faf0040 	lw	t7,64(sp)
9d0086f4:	00004810 	mfhi	t1
9d0086f8:	afa90044 	sw	t1,68(sp)
9d0086fc:	00440019 	multu	v0,a0
9d008700:	00001012 	mflo	v0
9d008704:	00001810 	mfhi	v1
9d008708:	00ca0019 	multu	a2,t2
9d00870c:	00005012 	mflo	t2
9d008710:	004ac021 	addu	t8,v0,t2
9d008714:	0302402b 	sltu	t0,t8,v0
9d008718:	00005810 	mfhi	t3
9d00871c:	8fa20044 	lw	v0,68(sp)
9d008720:	006b5821 	addu	t3,v1,t3
9d008724:	00c40019 	multu	a2,a0
9d008728:	010b4021 	addu	t0,t0,t3
9d00872c:	0302c021 	addu	t8,t8,v0
9d008730:	0302302b 	sltu	a2,t8,v0
9d008734:	00002012 	mflo	a0
9d008738:	00884021 	addu	t0,a0,t0
9d00873c:	01063021 	addu	a2,t0,a2
9d008740:	00002810 	mfhi	a1
9d008744:	0104582b 	sltu	t3,t0,a0
9d008748:	01655821 	addu	t3,t3,a1
9d00874c:	00c8182b 	sltu	v1,a2,t0
9d008750:	00c08025 	move	s0,a2
9d008754:	1a2000ab 	blez	s1,9d008a04 <fma+0x450>
9d008758:	006bb021 	addu	s6,v1,t3
9d00875c:	2a220040 	slti	v0,s1,64
9d008760:	10400078 	beqz	v0,9d008944 <fma+0x390>
9d008764:	00e02025 	move	a0,a3
9d008768:	02e02825 	move	a1,s7
9d00876c:	02203025 	move	a2,s1
9d008770:	afb80054 	sw	t8,84(sp)
9d008774:	afaf0050 	sw	t7,80(sp)
9d008778:	0f403fb3 	jal	9d00fecc <__ashldi3>
9d00877c:	afa7004c 	sw	a3,76(sp)
9d008780:	8fa7004c 	lw	a3,76(sp)
9d008784:	24060040 	li	a2,64
9d008788:	02e02825 	move	a1,s7
9d00878c:	00e02025 	move	a0,a3
9d008790:	00d13023 	subu	a2,a2,s1
9d008794:	afa20048 	sw	v0,72(sp)
9d008798:	0f403fa4 	jal	9d00fe90 <__lshrdi3>
9d00879c:	afa30040 	sw	v1,64(sp)
9d0087a0:	8fb90040 	lw	t9,64(sp)
9d0087a4:	8fa80048 	lw	t0,72(sp)
9d0087a8:	8faf0050 	lw	t7,80(sp)
9d0087ac:	8fb80054 	lw	t8,84(sp)
9d0087b0:	00403825 	move	a3,v0
9d0087b4:	0060b825 	move	s7,v1
9d0087b8:	8fa2002c 	lw	v0,44(sp)
9d0087bc:	8fb1003c 	lw	s1,60(sp)
9d0087c0:	02228826 	xor	s1,s1,v0
9d0087c4:	8fa2001c 	lw	v0,28(sp)
9d0087c8:	145100b5 	bne	v0,s1,9d008aa0 <fma+0x4ec>
9d0087cc:	010f5021 	addu	t2,t0,t7
9d0087d0:	0148902b 	sltu	s2,t2,t0
9d0087d4:	0338c021 	addu	t8,t9,t8
9d0087d8:	0258a021 	addu	s4,s2,t8
9d0087dc:	0299102b 	sltu	v0,s4,t9
9d0087e0:	0140a825 	move	s5,t2
9d0087e4:	14400006 	bnez	v0,9d008800 <fma+0x24c>
9d0087e8:	24040001 	li	a0,1
9d0087ec:	17340003 	bne	t9,s4,9d0087fc <fma+0x248>
9d0087f0:	0148402b 	sltu	t0,t2,t0
9d0087f4:	15000003 	bnez	t0,9d008804 <fma+0x250>
9d0087f8:	00f06021 	addu	t4,a3,s0
9d0087fc:	00002025 	move	a0,zero
9d008800:	00f06021 	addu	t4,a3,s0
9d008804:	0187102b 	sltu	v0,t4,a3
9d008808:	02f61821 	addu	v1,s7,s6
9d00880c:	008c6021 	addu	t4,a0,t4
9d008810:	00431021 	addu	v0,v0,v1
9d008814:	0184202b 	sltu	a0,t4,a0
9d008818:	00826821 	addu	t5,a0,v0
9d00881c:	01802025 	move	a0,t4
9d008820:	01a02825 	move	a1,t5
9d008824:	afac0048 	sw	t4,72(sp)
9d008828:	0f403d59 	jal	9d00f564 <a_clz_64>
9d00882c:	afad0040 	sw	t5,64(sp)
9d008830:	2453ffff 	addiu	s3,v0,-1
9d008834:	24060040 	li	a2,64
9d008838:	00d33023 	subu	a2,a2,s3
9d00883c:	02a02025 	move	a0,s5
9d008840:	0f403fa4 	jal	9d00fe90 <__lshrdi3>
9d008844:	02802825 	move	a1,s4
9d008848:	8fac0048 	lw	t4,72(sp)
9d00884c:	8fad0040 	lw	t5,64(sp)
9d008850:	02603025 	move	a2,s3
9d008854:	01802025 	move	a0,t4
9d008858:	01a02825 	move	a1,t5
9d00885c:	00408025 	move	s0,v0
9d008860:	0f403fb3 	jal	9d00fecc <__ashldi3>
9d008864:	00609025 	move	s2,v1
9d008868:	02603025 	move	a2,s3
9d00886c:	02a02025 	move	a0,s5
9d008870:	02802825 	move	a1,s4
9d008874:	02028025 	or	s0,s0,v0
9d008878:	0f403fb3 	jal	9d00fecc <__ashldi3>
9d00887c:	02439025 	or	s2,s2,v1
9d008880:	00431025 	or	v0,v0,v1
9d008884:	0002102b 	sltu	v0,zero,v0
9d008888:	27de0040 	addiu	s8,s8,64
9d00888c:	02028025 	or	s0,s0,v0
9d008890:	02002025 	move	a0,s0
9d008894:	12200005 	beqz	s1,9d0088ac <fma+0x2f8>
9d008898:	02402825 	move	a1,s2
9d00889c:	00102023 	negu	a0,s0
9d0088a0:	0004102b 	sltu	v0,zero,a0
9d0088a4:	00122823 	negu	a1,s2
9d0088a8:	00a22823 	subu	a1,a1,v0
9d0088ac:	0f403c95 	jal	9d00f254 <__floatdidf>
9d0088b0:	03d3f023 	subu	s8,s8,s3
9d0088b4:	0040b025 	move	s6,v0
9d0088b8:	2bc2fbc4 	slti	v0,s8,-1084
9d0088bc:	104000f8 	beqz	v0,9d008ca0 <fma+0x6ec>
9d0088c0:	0060b825 	move	s7,v1
9d0088c4:	2402fbc3 	li	v0,-1085
9d0088c8:	17c200fb 	bne	s8,v0,9d008cb8 <fma+0x704>
9d0088cc:	00102580 	sll	a0,s0,0x16
9d0088d0:	122000b4 	beqz	s1,9d008ba4 <fma+0x5f0>
9d0088d4:	3c029d00 	lui	v0,0x9d00
9d0088d8:	8c547568 	lw	s4,30056(v0)
9d0088dc:	8c55756c 	lw	s5,30060(v0)
9d0088e0:	02c03025 	move	a2,s6
9d0088e4:	02e03825 	move	a3,s7
9d0088e8:	02802025 	move	a0,s4
9d0088ec:	0f403511 	jal	9d00d444 <__eqdf2>
9d0088f0:	02a02825 	move	a1,s5
9d0088f4:	144000af 	bnez	v0,9d008bb4 <fma+0x600>
9d0088f8:	3c029d00 	lui	v0,0x9d00
9d0088fc:	8c467570 	lw	a2,30064(v0)
9d008900:	8c477574 	lw	a3,30068(v0)
9d008904:	02c02025 	move	a0,s6
9d008908:	0f402c54 	jal	9d00b150 <__muldf3>
9d00890c:	02e02825 	move	a1,s7
9d008910:	00602825 	move	a1,v1
9d008914:	0f4036fd 	jal	9d00dbf4 <__truncdfsf2>
9d008918:	00402025 	move	a0,v0
9d00891c:	0f4039c7 	jal	9d00e71c <__extendsfdf2>
9d008920:	00402025 	move	a0,v0
9d008924:	3c049d00 	lui	a0,0x9d00
9d008928:	8c867578 	lw	a2,30072(a0)
9d00892c:	8c87757c 	lw	a3,30076(a0)
9d008930:	00602825 	move	a1,v1
9d008934:	0f402c54 	jal	9d00b150 <__muldf3>
9d008938:	00402025 	move	a0,v0
9d00893c:	1000ff4c 	b	9d008670 <fma+0xbc>
9d008940:	00409025 	move	s2,v0
9d008944:	2631ffc0 	addiu	s1,s1,-64
9d008948:	273effc0 	addiu	s8,t9,-64
9d00894c:	00004025 	move	t0,zero
9d008950:	1220ff99 	beqz	s1,9d0087b8 <fma+0x204>
9d008954:	0000c825 	move	t9,zero
9d008958:	2a220040 	slti	v0,s1,64
9d00895c:	10400043 	beqz	v0,9d008a6c <fma+0x4b8>
9d008960:	8fa40040 	lw	a0,64(sp)
9d008964:	240d0040 	li	t5,64
9d008968:	01b16823 	subu	t5,t5,s1
9d00896c:	01a03025 	move	a2,t5
9d008970:	03002825 	move	a1,t8
9d008974:	afb90058 	sw	t9,88(sp)
9d008978:	afa80054 	sw	t0,84(sp)
9d00897c:	afa70050 	sw	a3,80(sp)
9d008980:	afad004c 	sw	t5,76(sp)
9d008984:	0f403fb3 	jal	9d00fecc <__ashldi3>
9d008988:	afb80048 	sw	t8,72(sp)
9d00898c:	8fb80048 	lw	t8,72(sp)
9d008990:	8fa40040 	lw	a0,64(sp)
9d008994:	00431025 	or	v0,v0,v1
9d008998:	03002825 	move	a1,t8
9d00899c:	02203025 	move	a2,s1
9d0089a0:	0f403fa4 	jal	9d00fe90 <__lshrdi3>
9d0089a4:	0002a82b 	sltu	s5,zero,v0
9d0089a8:	8fad004c 	lw	t5,76(sp)
9d0089ac:	02002025 	move	a0,s0
9d0089b0:	02c02825 	move	a1,s6
9d0089b4:	01a03025 	move	a2,t5
9d0089b8:	0060a025 	move	s4,v1
9d0089bc:	0f403fb3 	jal	9d00fecc <__ashldi3>
9d0089c0:	02a2a825 	or	s5,s5,v0
9d0089c4:	02a27825 	or	t7,s5,v0
9d0089c8:	0283c025 	or	t8,s4,v1
9d0089cc:	02002025 	move	a0,s0
9d0089d0:	02c02825 	move	a1,s6
9d0089d4:	02203025 	move	a2,s1
9d0089d8:	afaf0048 	sw	t7,72(sp)
9d0089dc:	0f403fa4 	jal	9d00fe90 <__lshrdi3>
9d0089e0:	afb80040 	sw	t8,64(sp)
9d0089e4:	00408025 	move	s0,v0
9d0089e8:	0060b025 	move	s6,v1
9d0089ec:	8fb80040 	lw	t8,64(sp)
9d0089f0:	8faf0048 	lw	t7,72(sp)
9d0089f4:	8fa70050 	lw	a3,80(sp)
9d0089f8:	8fa80054 	lw	t0,84(sp)
9d0089fc:	1000ff6e 	b	9d0087b8 <fma+0x204>
9d008a00:	8fb90058 	lw	t9,88(sp)
9d008a04:	03d98823 	subu	s1,s8,t9
9d008a08:	1220001d 	beqz	s1,9d008a80 <fma+0x4cc>
9d008a0c:	2a220040 	slti	v0,s1,64
9d008a10:	10400020 	beqz	v0,9d008a94 <fma+0x4e0>
9d008a14:	24060040 	li	a2,64
9d008a18:	00e02025 	move	a0,a3
9d008a1c:	02e02825 	move	a1,s7
9d008a20:	00d13023 	subu	a2,a2,s1
9d008a24:	afb8004c 	sw	t8,76(sp)
9d008a28:	afaf0048 	sw	t7,72(sp)
9d008a2c:	0f403fb3 	jal	9d00fecc <__ashldi3>
9d008a30:	afa70040 	sw	a3,64(sp)
9d008a34:	8fa70040 	lw	a3,64(sp)
9d008a38:	00431025 	or	v0,v0,v1
9d008a3c:	02e02825 	move	a1,s7
9d008a40:	00e02025 	move	a0,a3
9d008a44:	02203025 	move	a2,s1
9d008a48:	0f403fa4 	jal	9d00fe90 <__lshrdi3>
9d008a4c:	0002a02b 	sltu	s4,zero,v0
9d008a50:	02824025 	or	t0,s4,v0
9d008a54:	0060c825 	move	t9,v1
9d008a58:	00003825 	move	a3,zero
9d008a5c:	0000b825 	move	s7,zero
9d008a60:	8faf0048 	lw	t7,72(sp)
9d008a64:	1000ff54 	b	9d0087b8 <fma+0x204>
9d008a68:	8fb8004c 	lw	t8,76(sp)
9d008a6c:	240f0001 	li	t7,1
9d008a70:	0000c025 	move	t8,zero
9d008a74:	00008025 	move	s0,zero
9d008a78:	1000ff4f 	b	9d0087b8 <fma+0x204>
9d008a7c:	0000b025 	move	s6,zero
9d008a80:	00e04025 	move	t0,a3
9d008a84:	02e0c825 	move	t9,s7
9d008a88:	00003825 	move	a3,zero
9d008a8c:	1000ff4a 	b	9d0087b8 <fma+0x204>
9d008a90:	0000b825 	move	s7,zero
9d008a94:	24080001 	li	t0,1
9d008a98:	1000fffb 	b	9d008a88 <fma+0x4d4>
9d008a9c:	0000c825 	move	t9,zero
9d008aa0:	01e85023 	subu	t2,t7,t0
9d008aa4:	01ea182b 	sltu	v1,t7,t2
9d008aa8:	03194823 	subu	t1,t8,t9
9d008aac:	0123a023 	subu	s4,t1,v1
9d008ab0:	0314102b 	sltu	v0,t8,s4
9d008ab4:	0140a825 	move	s5,t2
9d008ab8:	241f0001 	li	ra,1
9d008abc:	14400006 	bnez	v0,9d008ad8 <fma+0x524>
9d008ac0:	00002025 	move	a0,zero
9d008ac4:	56980004 	bnel	s4,t8,9d008ad8 <fma+0x524>
9d008ac8:	0000f825 	move	ra,zero
9d008acc:	14600003 	bnez	v1,9d008adc <fma+0x528>
9d008ad0:	02071823 	subu	v1,s0,a3
9d008ad4:	0000f825 	move	ra,zero
9d008ad8:	02071823 	subu	v1,s0,a3
9d008adc:	0203682b 	sltu	t5,s0,v1
9d008ae0:	02d71023 	subu	v0,s6,s7
9d008ae4:	004d1023 	subu	v0,v0,t5
9d008ae8:	007f6023 	subu	t4,v1,ra
9d008aec:	006c182b 	sltu	v1,v1,t4
9d008af0:	00441023 	subu	v0,v0,a0
9d008af4:	00436823 	subu	t5,v0,v1
9d008af8:	05a10013 	bgez	t5,9d008b48 <fma+0x594>
9d008afc:	010f5023 	subu	t2,t0,t7
9d008b00:	010a402b 	sltu	t0,t0,t2
9d008b04:	03384823 	subu	t1,t9,t8
9d008b08:	00f03023 	subu	a2,a3,s0
9d008b0c:	0128a023 	subu	s4,t1,t0
9d008b10:	00e6102b 	sltu	v0,a3,a2
9d008b14:	02f61823 	subu	v1,s7,s6
9d008b18:	01546025 	or	t4,t2,s4
9d008b1c:	00dff821 	addu	ra,a2,ra
9d008b20:	00621823 	subu	v1,v1,v0
9d008b24:	000c602b 	sltu	t4,zero,t4
9d008b28:	03e6302b 	sltu	a2,ra,a2
9d008b2c:	00641021 	addu	v0,v1,a0
9d008b30:	03ec6023 	subu	t4,ra,t4
9d008b34:	00c21021 	addu	v0,a2,v0
9d008b38:	03ecf82b 	sltu	ra,ra,t4
9d008b3c:	0140a825 	move	s5,t2
9d008b40:	005f6823 	subu	t5,v0,ra
9d008b44:	2e310001 	sltiu	s1,s1,1
9d008b48:	018d1025 	or	v0,t4,t5
9d008b4c:	1440ff33 	bnez	v0,9d00881c <fma+0x268>
9d008b50:	02b41025 	or	v0,s5,s4
9d008b54:	1040febb 	beqz	v0,9d008644 <fma+0x90>
9d008b58:	02a02025 	move	a0,s5
9d008b5c:	0f403d59 	jal	9d00f564 <a_clz_64>
9d008b60:	02802825 	move	a1,s4
9d008b64:	2453ffff 	addiu	s3,v0,-1
9d008b68:	06610007 	bgez	s3,9d008b88 <fma+0x5d4>
9d008b6c:	001417c0 	sll	v0,s4,0x1f
9d008b70:	00158042 	srl	s0,s5,0x1
9d008b74:	00508025 	or	s0,v0,s0
9d008b78:	32aa0001 	andi	t2,s5,0x1
9d008b7c:	020a8025 	or	s0,s0,t2
9d008b80:	1000ff43 	b	9d008890 <fma+0x2dc>
9d008b84:	00149042 	srl	s2,s4,0x1
9d008b88:	02603025 	move	a2,s3
9d008b8c:	02a02025 	move	a0,s5
9d008b90:	0f403fb3 	jal	9d00fecc <__ashldi3>
9d008b94:	02802825 	move	a1,s4
9d008b98:	00408025 	move	s0,v0
9d008b9c:	1000ff3c 	b	9d008890 <fma+0x2dc>
9d008ba0:	00609025 	move	s2,v1
9d008ba4:	3c029d00 	lui	v0,0x9d00
9d008ba8:	8c547560 	lw	s4,30048(v0)
9d008bac:	1000ff4c 	b	9d0088e0 <fma+0x32c>
9d008bb0:	8c557564 	lw	s5,30052(v0)
9d008bb4:	00101540 	sll	v0,s0,0x15
9d008bb8:	10400039 	beqz	v0,9d008ca0 <fma+0x6ec>
9d008bbc:	001217c0 	sll	v0,s2,0x1f
9d008bc0:	00102042 	srl	a0,s0,0x1
9d008bc4:	00442025 	or	a0,v0,a0
9d008bc8:	00122842 	srl	a1,s2,0x1
9d008bcc:	32100001 	andi	s0,s0,0x1
9d008bd0:	3c024000 	lui	v0,0x4000
9d008bd4:	00902025 	or	a0,a0,s0
9d008bd8:	12200005 	beqz	s1,9d008bf0 <fma+0x63c>
9d008bdc:	00452825 	or	a1,v0,a1
9d008be0:	00042023 	negu	a0,a0
9d008be4:	0004102b 	sltu	v0,zero,a0
9d008be8:	00052823 	negu	a1,a1
9d008bec:	00a22823 	subu	a1,a1,v0
9d008bf0:	0f403c95 	jal	9d00f254 <__floatdidf>
9d008bf4:	00000000 	nop
9d008bf8:	00403025 	move	a2,v0
9d008bfc:	00603825 	move	a3,v1
9d008c00:	00402025 	move	a0,v0
9d008c04:	0f4028a2 	jal	9d00a288 <__adddf3>
9d008c08:	00602825 	move	a1,v1
9d008c0c:	00402025 	move	a0,v0
9d008c10:	02803025 	move	a2,s4
9d008c14:	02a03825 	move	a3,s5
9d008c18:	0f4028a0 	jal	9d00a280 <__subdf3>
9d008c1c:	00602825 	move	a1,v1
9d008c20:	00408025 	move	s0,v0
9d008c24:	3c029d00 	lui	v0,0x9d00
9d008c28:	8c467578 	lw	a2,30072(v0)
9d008c2c:	8c47757c 	lw	a3,30076(v0)
9d008c30:	02002025 	move	a0,s0
9d008c34:	00602825 	move	a1,v1
9d008c38:	0f402c54 	jal	9d00b150 <__muldf3>
9d008c3c:	00608825 	move	s1,v1
9d008c40:	00403025 	move	a2,v0
9d008c44:	00603825 	move	a3,v1
9d008c48:	00402025 	move	a0,v0
9d008c4c:	0f402c54 	jal	9d00b150 <__muldf3>
9d008c50:	00602825 	move	a1,v1
9d008c54:	02003025 	move	a2,s0
9d008c58:	02203825 	move	a3,s1
9d008c5c:	02002025 	move	a0,s0
9d008c60:	02202825 	move	a1,s1
9d008c64:	00409025 	move	s2,v0
9d008c68:	0f4028a0 	jal	9d00a280 <__subdf3>
9d008c6c:	00609825 	move	s3,v1
9d008c70:	00403025 	move	a2,v0
9d008c74:	00603825 	move	a3,v1
9d008c78:	02402025 	move	a0,s2
9d008c7c:	0f402c54 	jal	9d00b150 <__muldf3>
9d008c80:	02602825 	move	a1,s3
9d008c84:	00402025 	move	a0,v0
9d008c88:	02003025 	move	a2,s0
9d008c8c:	02203825 	move	a3,s1
9d008c90:	0f4028a2 	jal	9d00a288 <__adddf3>
9d008c94:	00602825 	move	a1,v1
9d008c98:	0040b025 	move	s6,v0
9d008c9c:	0060b825 	move	s7,v1
9d008ca0:	03c03025 	move	a2,s8
9d008ca4:	02c02025 	move	a0,s6
9d008ca8:	0f40377a 	jal	9d00dde8 <scalbn>
9d008cac:	02e02825 	move	a1,s7
9d008cb0:	1000fe6f 	b	9d008670 <fma+0xbc>
9d008cb4:	00409025 	move	s2,v0
9d008cb8:	00121580 	sll	v0,s2,0x16
9d008cbc:	00108282 	srl	s0,s0,0xa
9d008cc0:	00508025 	or	s0,v0,s0
9d008cc4:	0004202b 	sltu	a0,zero,a0
9d008cc8:	00902025 	or	a0,a0,s0
9d008ccc:	02402825 	move	a1,s2
9d008cd0:	00041582 	srl	v0,a0,0x16
9d008cd4:	7c054804 	ins	a1,zero,0x0,0xa
9d008cd8:	00452825 	or	a1,v0,a1
9d008cdc:	12200005 	beqz	s1,9d008cf4 <fma+0x740>
9d008ce0:	00042280 	sll	a0,a0,0xa
9d008ce4:	00042023 	negu	a0,a0
9d008ce8:	0004102b 	sltu	v0,zero,a0
9d008cec:	00052823 	negu	a1,a1
9d008cf0:	00a22823 	subu	a1,a1,v0
9d008cf4:	0f403c95 	jal	9d00f254 <__floatdidf>
9d008cf8:	00000000 	nop
9d008cfc:	1000ffe7 	b	9d008c9c <fma+0x6e8>
9d008d00:	0040b025 	move	s6,v0

Disassembly of section .text.__intscan:

9d008d04 <__intscan>:
9d008d04:	27bdffb8 	addiu	sp,sp,-72
9d008d08:	8fa2005c 	lw	v0,92(sp)
9d008d0c:	afb20028 	sw	s2,40(sp)
9d008d10:	afbf0044 	sw	ra,68(sp)
9d008d14:	afa20010 	sw	v0,16(sp)
9d008d18:	2ca20025 	sltiu	v0,a1,37
9d008d1c:	afbe0040 	sw	s8,64(sp)
9d008d20:	afb7003c 	sw	s7,60(sp)
9d008d24:	afb60038 	sw	s6,56(sp)
9d008d28:	afb50034 	sw	s5,52(sp)
9d008d2c:	afb40030 	sw	s4,48(sp)
9d008d30:	afb3002c 	sw	s3,44(sp)
9d008d34:	afb10024 	sw	s1,36(sp)
9d008d38:	afb00020 	sw	s0,32(sp)
9d008d3c:	10400033 	beqz	v0,9d008e0c <__intscan+0x108>
9d008d40:	8fb20058 	lw	s2,88(sp)
9d008d44:	24020001 	li	v0,1
9d008d48:	10a20030 	beq	a1,v0,9d008e0c <__intscan+0x108>
9d008d4c:	00808025 	move	s0,a0
9d008d50:	00a08825 	move	s1,a1
9d008d54:	00c09825 	move	s3,a2
9d008d58:	24140020 	li	s4,32
9d008d5c:	8e02003c 	lw	v0,60(s0)
9d008d60:	8e03004c 	lw	v1,76(s0)
9d008d64:	0043182b 	sltu	v1,v0,v1
9d008d68:	1060002c 	beqz	v1,9d008e1c <__intscan+0x118>
9d008d6c:	24430001 	addiu	v1,v0,1
9d008d70:	ae03003c 	sw	v1,60(s0)
9d008d74:	90490000 	lbu	t1,0(v0)
9d008d78:	1134fff8 	beq	t1,s4,9d008d5c <__intscan+0x58>
9d008d7c:	2522fff7 	addiu	v0,t1,-9
9d008d80:	2c420005 	sltiu	v0,v0,5
9d008d84:	1440fff5 	bnez	v0,9d008d5c <__intscan+0x58>
9d008d88:	2522ffd5 	addiu	v0,t1,-43
9d008d8c:	7c020844 	ins	v0,zero,0x1,0x1
9d008d90:	1440000b 	bnez	v0,9d008dc0 <__intscan+0xbc>
9d008d94:	0000a025 	move	s4,zero
9d008d98:	8e02003c 	lw	v0,60(s0)
9d008d9c:	8e03004c 	lw	v1,76(s0)
9d008da0:	3934002d 	xori	s4,t1,0x2d
9d008da4:	2e940001 	sltiu	s4,s4,1
9d008da8:	0043182b 	sltu	v1,v0,v1
9d008dac:	1060001f 	beqz	v1,9d008e2c <__intscan+0x128>
9d008db0:	0014a023 	negu	s4,s4
9d008db4:	24430001 	addiu	v1,v0,1
9d008db8:	ae03003c 	sw	v1,60(s0)
9d008dbc:	90490000 	lbu	t1,0(v0)
9d008dc0:	1220001e 	beqz	s1,9d008e3c <__intscan+0x138>
9d008dc4:	8e03004c 	lw	v1,76(s0)
9d008dc8:	24020010 	li	v0,16
9d008dcc:	1222018e 	beq	s1,v0,9d009408 <__intscan+0x704>
9d008dd0:	24020030 	li	v0,48
9d008dd4:	3c029d01 	lui	v0,0x9d01
9d008dd8:	2442d8e9 	addiu	v0,v0,-10007
9d008ddc:	01221021 	addu	v0,t1,v0
9d008de0:	90420000 	lbu	v0,0(v0)
9d008de4:	0051102b 	sltu	v0,v0,s1
9d008de8:	14400057 	bnez	v0,9d008f48 <__intscan+0x244>
9d008dec:	2402000a 	li	v0,10
9d008df0:	10600004 	beqz	v1,9d008e04 <__intscan+0x100>
9d008df4:	00002825 	move	a1,zero
9d008df8:	8e02003c 	lw	v0,60(s0)
9d008dfc:	2442ffff 	addiu	v0,v0,-1
9d008e00:	ae02003c 	sw	v0,60(s0)
9d008e04:	0f40402d 	jal	9d0100b4 <__shlim>
9d008e08:	02002025 	move	a0,s0
9d008e0c:	3c02a000 	lui	v0,0xa000
9d008e10:	24030016 	li	v1,22
9d008e14:	1000002b 	b	9d008ec4 <__intscan+0x1c0>
9d008e18:	ac4303c8 	sw	v1,968(v0)
9d008e1c:	0f403917 	jal	9d00e45c <__shgetc>
9d008e20:	02002025 	move	a0,s0
9d008e24:	1000ffd4 	b	9d008d78 <__intscan+0x74>
9d008e28:	00404825 	move	t1,v0
9d008e2c:	0f403917 	jal	9d00e45c <__shgetc>
9d008e30:	02002025 	move	a0,s0
9d008e34:	1000ffe2 	b	9d008dc0 <__intscan+0xbc>
9d008e38:	00404825 	move	t1,v0
9d008e3c:	24020030 	li	v0,48
9d008e40:	5522ffe4 	bnel	t1,v0,9d008dd4 <__intscan+0xd0>
9d008e44:	2411000a 	li	s1,10
9d008e48:	8e02003c 	lw	v0,60(s0)
9d008e4c:	0043182b 	sltu	v1,v0,v1
9d008e50:	1060002c 	beqz	v1,9d008f04 <__intscan+0x200>
9d008e54:	24430001 	addiu	v1,v0,1
9d008e58:	ae03003c 	sw	v1,60(s0)
9d008e5c:	90490000 	lbu	t1,0(v0)
9d008e60:	35220020 	ori	v0,t1,0x20
9d008e64:	24030078 	li	v1,120
9d008e68:	14430035 	bne	v0,v1,9d008f40 <__intscan+0x23c>
9d008e6c:	00000000 	nop
9d008e70:	8e02003c 	lw	v0,60(s0)
9d008e74:	8e03004c 	lw	v1,76(s0)
9d008e78:	0043182b 	sltu	v1,v0,v1
9d008e7c:	10600025 	beqz	v1,9d008f14 <__intscan+0x210>
9d008e80:	24430001 	addiu	v1,v0,1
9d008e84:	ae03003c 	sw	v1,60(s0)
9d008e88:	90490000 	lbu	t1,0(v0)
9d008e8c:	3c029d01 	lui	v0,0x9d01
9d008e90:	2442d8e9 	addiu	v0,v0,-10007
9d008e94:	01221021 	addu	v0,t1,v0
9d008e98:	90420000 	lbu	v0,0(v0)
9d008e9c:	2c420010 	sltiu	v0,v0,16
9d008ea0:	5440002b 	bnezl	v0,9d008f50 <__intscan+0x24c>
9d008ea4:	24110010 	li	s1,16
9d008ea8:	8e02004c 	lw	v0,76(s0)
9d008eac:	10400152 	beqz	v0,9d0093f8 <__intscan+0x6f4>
9d008eb0:	00003825 	move	a3,zero
9d008eb4:	1260001b 	beqz	s3,9d008f24 <__intscan+0x220>
9d008eb8:	8e02003c 	lw	v0,60(s0)
9d008ebc:	2442fffe 	addiu	v0,v0,-2
9d008ec0:	ae02003c 	sw	v0,60(s0)
9d008ec4:	00003825 	move	a3,zero
9d008ec8:	00004025 	move	t0,zero
9d008ecc:	8fbf0044 	lw	ra,68(sp)
9d008ed0:	00e01025 	move	v0,a3
9d008ed4:	01001825 	move	v1,t0
9d008ed8:	8fbe0040 	lw	s8,64(sp)
9d008edc:	8fb7003c 	lw	s7,60(sp)
9d008ee0:	8fb60038 	lw	s6,56(sp)
9d008ee4:	8fb50034 	lw	s5,52(sp)
9d008ee8:	8fb40030 	lw	s4,48(sp)
9d008eec:	8fb3002c 	lw	s3,44(sp)
9d008ef0:	8fb20028 	lw	s2,40(sp)
9d008ef4:	8fb10024 	lw	s1,36(sp)
9d008ef8:	8fb00020 	lw	s0,32(sp)
9d008efc:	03e00008 	jr	ra
9d008f00:	27bd0048 	addiu	sp,sp,72
9d008f04:	0f403917 	jal	9d00e45c <__shgetc>
9d008f08:	02002025 	move	a0,s0
9d008f0c:	1000ffd4 	b	9d008e60 <__intscan+0x15c>
9d008f10:	00404825 	move	t1,v0
9d008f14:	0f403917 	jal	9d00e45c <__shgetc>
9d008f18:	02002025 	move	a0,s0
9d008f1c:	1000ffdb 	b	9d008e8c <__intscan+0x188>
9d008f20:	00404825 	move	t1,v0
9d008f24:	2442ffff 	addiu	v0,v0,-1
9d008f28:	ae02003c 	sw	v0,60(s0)
9d008f2c:	00002825 	move	a1,zero
9d008f30:	0f40402d 	jal	9d0100b4 <__shlim>
9d008f34:	02002025 	move	a0,s0
9d008f38:	1000ffe3 	b	9d008ec8 <__intscan+0x1c4>
9d008f3c:	00003825 	move	a3,zero
9d008f40:	12200087 	beqz	s1,9d009160 <__intscan+0x45c>
9d008f44:	2402000a 	li	v0,10
9d008f48:	1222007b 	beq	s1,v0,9d009138 <__intscan+0x434>
9d008f4c:	3c151999 	lui	s5,0x1999
9d008f50:	2627ffff 	addiu	a3,s1,-1
9d008f54:	3c139d01 	lui	s3,0x9d01
9d008f58:	00f1a824 	and	s5,a3,s1
9d008f5c:	16a000f9 	bnez	s5,9d009344 <__intscan+0x640>
9d008f60:	2673d8e9 	addiu	s3,s3,-10007
9d008f64:	24020017 	li	v0,23
9d008f68:	72221002 	mul	v0,s1,v0
9d008f6c:	3c039d01 	lui	v1,0x9d01
9d008f70:	2463d8dc 	addiu	v1,v1,-10020
9d008f74:	3c1e0800 	lui	s8,0x800
9d008f78:	7c421140 	ext	v0,v0,0x5,0x3
9d008f7c:	00431021 	addu	v0,v0,v1
9d008f80:	80560000 	lb	s6,0(v0)
9d008f84:	02691021 	addu	v0,s3,t1
9d008f88:	90570000 	lbu	s7,0(v0)
9d008f8c:	02f1102b 	sltu	v0,s7,s1
9d008f90:	10400003 	beqz	v0,9d008fa0 <__intscan+0x29c>
9d008f94:	02be102b 	sltu	v0,s5,s8
9d008f98:	54400073 	bnezl	v0,9d009168 <__intscan+0x464>
9d008f9c:	8e02003c 	lw	v0,60(s0)
9d008fa0:	00004025 	move	t0,zero
9d008fa4:	02c03025 	move	a2,s6
9d008fa8:	2404ffff 	li	a0,-1
9d008fac:	2405ffff 	li	a1,-1
9d008fb0:	afa9001c 	sw	t1,28(sp)
9d008fb4:	afb50018 	sw	s5,24(sp)
9d008fb8:	0f403fa4 	jal	9d00fe90 <__lshrdi3>
9d008fbc:	afa80014 	sw	t0,20(sp)
9d008fc0:	8fa80014 	lw	t0,20(sp)
9d008fc4:	8fa70018 	lw	a3,24(sp)
9d008fc8:	8fa9001c 	lw	t1,28(sp)
9d008fcc:	0040b825 	move	s7,v0
9d008fd0:	0060a825 	move	s5,v1
9d008fd4:	02691021 	addu	v0,s3,t1
9d008fd8:	905e0000 	lbu	s8,0(v0)
9d008fdc:	03d1102b 	sltu	v0,s8,s1
9d008fe0:	104000a0 	beqz	v0,9d009264 <__intscan+0x560>
9d008fe4:	02a8102b 	sltu	v0,s5,t0
9d008fe8:	5440009f 	bnezl	v0,9d009268 <__intscan+0x564>
9d008fec:	3c139d01 	lui	s3,0x9d01
9d008ff0:	15150003 	bne	t0,s5,9d009000 <__intscan+0x2fc>
9d008ff4:	02e7102b 	sltu	v0,s7,a3
9d008ff8:	5440009b 	bnezl	v0,9d009268 <__intscan+0x564>
9d008ffc:	3c139d01 	lui	s3,0x9d01
9d009000:	8e02003c 	lw	v0,60(s0)
9d009004:	8e03004c 	lw	v1,76(s0)
9d009008:	0043182b 	sltu	v1,v0,v1
9d00900c:	10600063 	beqz	v1,9d00919c <__intscan+0x498>
9d009010:	24430001 	addiu	v1,v0,1
9d009014:	ae03003c 	sw	v1,60(s0)
9d009018:	90490000 	lbu	t1,0(v0)
9d00901c:	00e02025 	move	a0,a3
9d009020:	01002825 	move	a1,t0
9d009024:	02c03025 	move	a2,s6
9d009028:	0f403fb3 	jal	9d00fecc <__ashldi3>
9d00902c:	afa90014 	sw	t1,20(sp)
9d009030:	03c23825 	or	a3,s8,v0
9d009034:	00604025 	move	t0,v1
9d009038:	1000ffe6 	b	9d008fd4 <__intscan+0x2d0>
9d00903c:	8fa90014 	lw	t1,20(sp)
9d009040:	8e03004c 	lw	v1,76(s0)
9d009044:	0043182b 	sltu	v1,v0,v1
9d009048:	10600036 	beqz	v1,9d009124 <__intscan+0x420>
9d00904c:	24430001 	addiu	v1,v0,1
9d009050:	ae03003c 	sw	v1,60(s0)
9d009054:	90420000 	lbu	v0,0(v0)
9d009058:	72761802 	mul	v1,s3,s6
9d00905c:	00693821 	addu	a3,v1,t1
9d009060:	24f3ffd0 	addiu	s3,a3,-48
9d009064:	00404825 	move	t1,v0
9d009068:	2522ffd0 	addiu	v0,t1,-48
9d00906c:	2c42000a 	sltiu	v0,v0,10
9d009070:	10400003 	beqz	v0,9d009080 <__intscan+0x37c>
9d009074:	0275102b 	sltu	v0,s3,s5
9d009078:	5440fff1 	bnezl	v0,9d009040 <__intscan+0x33c>
9d00907c:	8e02003c 	lw	v0,60(s0)
9d009080:	3c151999 	lui	s5,0x1999
9d009084:	36b5999a 	ori	s5,s5,0x999a
9d009088:	3c1e9999 	lui	s8,0x9999
9d00908c:	02603825 	move	a3,s3
9d009090:	00004025 	move	t0,zero
9d009094:	26a5ffff 	addiu	a1,s5,-1
9d009098:	37de999a 	ori	s8,s8,0x999a
9d00909c:	2533ffd0 	addiu	s3,t1,-48
9d0090a0:	2e62000a 	sltiu	v0,s3,10
9d0090a4:	10400088 	beqz	v0,9d0092c8 <__intscan+0x5c4>
9d0090a8:	0115102b 	sltu	v0,t0,s5
9d0090ac:	5040006e 	beqzl	v0,9d009268 <__intscan+0x564>
9d0090b0:	3c139d01 	lui	s3,0x9d01
9d0090b4:	15050004 	bne	t0,a1,9d0090c8 <__intscan+0x3c4>
9d0090b8:	2402000a 	li	v0,10
9d0090bc:	00fe102b 	sltu	v0,a3,s8
9d0090c0:	10400068 	beqz	v0,9d009264 <__intscan+0x560>
9d0090c4:	2402000a 	li	v0,10
9d0090c8:	00470019 	multu	v0,a3
9d0090cc:	0000b810 	mfhi	s7
9d0090d0:	0000b012 	mflo	s6
9d0090d4:	70481802 	mul	v1,v0,t0
9d0090d8:	0077b821 	addu	s7,v1,s7
9d0090dc:	2403ffff 	li	v1,-1
9d0090e0:	16e30004 	bne	s7,v1,9d0090f4 <__intscan+0x3f0>
9d0090e4:	00131027 	nor	v0,zero,s3
9d0090e8:	0056102b 	sltu	v0,v0,s6
9d0090ec:	5440005e 	bnezl	v0,9d009268 <__intscan+0x564>
9d0090f0:	3c139d01 	lui	s3,0x9d01
9d0090f4:	8e02003c 	lw	v0,60(s0)
9d0090f8:	8e03004c 	lw	v1,76(s0)
9d0090fc:	0043182b 	sltu	v1,v0,v1
9d009100:	10600011 	beqz	v1,9d009148 <__intscan+0x444>
9d009104:	00000000 	nop
9d009108:	24430001 	addiu	v1,v0,1
9d00910c:	ae03003c 	sw	v1,60(s0)
9d009110:	90490000 	lbu	t1,0(v0)
9d009114:	02763821 	addu	a3,s3,s6
9d009118:	00f6402b 	sltu	t0,a3,s6
9d00911c:	1000ffdf 	b	9d00909c <__intscan+0x398>
9d009120:	01174021 	addu	t0,t0,s7
9d009124:	02002025 	move	a0,s0
9d009128:	0f403917 	jal	9d00e45c <__shgetc>
9d00912c:	afa90014 	sw	t1,20(sp)
9d009130:	1000ffc9 	b	9d009058 <__intscan+0x354>
9d009134:	8fa90014 	lw	t1,20(sp)
9d009138:	00009825 	move	s3,zero
9d00913c:	36b59999 	ori	s5,s5,0x9999
9d009140:	1000ffc9 	b	9d009068 <__intscan+0x364>
9d009144:	2416000a 	li	s6,10
9d009148:	0f403917 	jal	9d00e45c <__shgetc>
9d00914c:	02002025 	move	a0,s0
9d009150:	00404825 	move	t1,v0
9d009154:	3c021999 	lui	v0,0x1999
9d009158:	1000ffee 	b	9d009114 <__intscan+0x410>
9d00915c:	34459999 	ori	a1,v0,0x9999
9d009160:	1000ff7b 	b	9d008f50 <__intscan+0x24c>
9d009164:	24110008 	li	s1,8
9d009168:	8e03004c 	lw	v1,76(s0)
9d00916c:	0043182b 	sltu	v1,v0,v1
9d009170:	10600006 	beqz	v1,9d00918c <__intscan+0x488>
9d009174:	24430001 	addiu	v1,v0,1
9d009178:	ae03003c 	sw	v1,60(s0)
9d00917c:	90490000 	lbu	t1,0(v0)
9d009180:	02d53804 	sllv	a3,s5,s6
9d009184:	1000ff7f 	b	9d008f84 <__intscan+0x280>
9d009188:	00f7a825 	or	s5,a3,s7
9d00918c:	0f403917 	jal	9d00e45c <__shgetc>
9d009190:	02002025 	move	a0,s0
9d009194:	1000fffa 	b	9d009180 <__intscan+0x47c>
9d009198:	00404825 	move	t1,v0
9d00919c:	02002025 	move	a0,s0
9d0091a0:	afa80018 	sw	t0,24(sp)
9d0091a4:	0f403917 	jal	9d00e45c <__shgetc>
9d0091a8:	afa70014 	sw	a3,20(sp)
9d0091ac:	00404825 	move	t1,v0
9d0091b0:	8fa80018 	lw	t0,24(sp)
9d0091b4:	1000ff99 	b	9d00901c <__intscan+0x318>
9d0091b8:	8fa70014 	lw	a3,20(sp)
9d0091bc:	8e03004c 	lw	v1,76(s0)
9d0091c0:	0043182b 	sltu	v1,v0,v1
9d0091c4:	1060005b 	beqz	v1,9d009334 <__intscan+0x630>
9d0091c8:	24430001 	addiu	v1,v0,1
9d0091cc:	ae03003c 	sw	v1,60(s0)
9d0091d0:	90490000 	lbu	t1,0(v0)
9d0091d4:	72351002 	mul	v0,s1,s5
9d0091d8:	0057a821 	addu	s5,v0,s7
9d0091dc:	02691021 	addu	v0,s3,t1
9d0091e0:	90570000 	lbu	s7,0(v0)
9d0091e4:	02f1102b 	sltu	v0,s7,s1
9d0091e8:	10400003 	beqz	v0,9d0091f8 <__intscan+0x4f4>
9d0091ec:	02b6102b 	sltu	v0,s5,s6
9d0091f0:	5440fff2 	bnezl	v0,9d0091bc <__intscan+0x4b8>
9d0091f4:	8e02003c 	lw	v0,60(s0)
9d0091f8:	02a03825 	move	a3,s5
9d0091fc:	00004025 	move	t0,zero
9d009200:	241effff 	li	s8,-1
9d009204:	02691021 	addu	v0,s3,t1
9d009208:	90550000 	lbu	s5,0(v0)
9d00920c:	02b1102b 	sltu	v0,s5,s1
9d009210:	10400014 	beqz	v0,9d009264 <__intscan+0x560>
9d009214:	00f10019 	multu	a3,s1
9d009218:	00002012 	mflo	a0
9d00921c:	11000009 	beqz	t0,9d009244 <__intscan+0x540>
9d009220:	00002810 	mfhi	a1
9d009224:	02280019 	multu	s1,t0
9d009228:	00006012 	mflo	t4
9d00922c:	00ac1021 	addu	v0,a1,t4
9d009230:	004c102b 	sltu	v0,v0,t4
9d009234:	00006810 	mfhi	t5
9d009238:	004d1021 	addu	v0,v0,t5
9d00923c:	5440000a 	bnezl	v0,9d009268 <__intscan+0x564>
9d009240:	3c139d01 	lui	s3,0x9d01
9d009244:	71111002 	mul	v0,t0,s1
9d009248:	0080b025 	move	s6,a0
9d00924c:	0045b821 	addu	s7,v0,a1
9d009250:	16fe0040 	bne	s7,s8,9d009354 <__intscan+0x650>
9d009254:	00151027 	nor	v0,zero,s5
9d009258:	0044102b 	sltu	v0,v0,a0
9d00925c:	5040003e 	beqzl	v0,9d009358 <__intscan+0x654>
9d009260:	8e02003c 	lw	v0,60(s0)
9d009264:	3c139d01 	lui	s3,0x9d01
9d009268:	2673d8e9 	addiu	s3,s3,-10007
9d00926c:	01334821 	addu	t1,t1,s3
9d009270:	91220000 	lbu	v0,0(t1)
9d009274:	0051102b 	sltu	v0,v0,s1
9d009278:	50400014 	beqzl	v0,9d0092cc <__intscan+0x5c8>
9d00927c:	8e02004c 	lw	v0,76(s0)
9d009280:	8e02003c 	lw	v0,60(s0)
9d009284:	8e03004c 	lw	v1,76(s0)
9d009288:	0043182b 	sltu	v1,v0,v1
9d00928c:	10600040 	beqz	v1,9d009390 <__intscan+0x68c>
9d009290:	24430001 	addiu	v1,v0,1
9d009294:	ae03003c 	sw	v1,60(s0)
9d009298:	90420000 	lbu	v0,0(v0)
9d00929c:	02621021 	addu	v0,s3,v0
9d0092a0:	90420000 	lbu	v0,0(v0)
9d0092a4:	0051102b 	sltu	v0,v0,s1
9d0092a8:	1440fff5 	bnez	v0,9d009280 <__intscan+0x57c>
9d0092ac:	3c02a000 	lui	v0,0xa000
9d0092b0:	24030022 	li	v1,34
9d0092b4:	8fa80010 	lw	t0,16(sp)
9d0092b8:	ac4303c8 	sw	v1,968(v0)
9d0092bc:	32420001 	andi	v0,s2,0x1
9d0092c0:	02403825 	move	a3,s2
9d0092c4:	0002a00b 	movn	s4,zero,v0
9d0092c8:	8e02004c 	lw	v0,76(s0)
9d0092cc:	10400005 	beqz	v0,9d0092e4 <__intscan+0x5e0>
9d0092d0:	8fa20010 	lw	v0,16(sp)
9d0092d4:	8e02003c 	lw	v0,60(s0)
9d0092d8:	2442ffff 	addiu	v0,v0,-1
9d0092dc:	ae02003c 	sw	v0,60(s0)
9d0092e0:	8fa20010 	lw	v0,16(sp)
9d0092e4:	0102102b 	sltu	v0,t0,v0
9d0092e8:	1440003b 	bnez	v0,9d0093d8 <__intscan+0x6d4>
9d0092ec:	8fa20010 	lw	v0,16(sp)
9d0092f0:	14480003 	bne	v0,t0,9d009300 <__intscan+0x5fc>
9d0092f4:	00f2102b 	sltu	v0,a3,s2
9d0092f8:	14400038 	bnez	v0,9d0093dc <__intscan+0x6d8>
9d0092fc:	2402ffff 	li	v0,-1
9d009300:	32420001 	andi	v0,s2,0x1
9d009304:	14400027 	bnez	v0,9d0093a4 <__intscan+0x6a0>
9d009308:	8fa20010 	lw	v0,16(sp)
9d00930c:	16800024 	bnez	s4,9d0093a0 <__intscan+0x69c>
9d009310:	3c02a000 	lui	v0,0xa000
9d009314:	24030022 	li	v1,34
9d009318:	ac4303c8 	sw	v1,968(v0)
9d00931c:	8fa20010 	lw	v0,16(sp)
9d009320:	2647ffff 	addiu	a3,s2,-1
9d009324:	00f2902b 	sltu	s2,a3,s2
9d009328:	2451ffff 	addiu	s1,v0,-1
9d00932c:	1000fee7 	b	9d008ecc <__intscan+0x1c8>
9d009330:	02514021 	addu	t0,s2,s1
9d009334:	0f403917 	jal	9d00e45c <__shgetc>
9d009338:	02002025 	move	a0,s0
9d00933c:	1000ffa5 	b	9d0091d4 <__intscan+0x4d0>
9d009340:	00404825 	move	t1,v0
9d009344:	3c16071c 	lui	s6,0x71c
9d009348:	0000a825 	move	s5,zero
9d00934c:	1000ffa3 	b	9d0091dc <__intscan+0x4d8>
9d009350:	26d671c7 	addiu	s6,s6,29127
9d009354:	8e02003c 	lw	v0,60(s0)
9d009358:	8e03004c 	lw	v1,76(s0)
9d00935c:	0043182b 	sltu	v1,v0,v1
9d009360:	10600007 	beqz	v1,9d009380 <__intscan+0x67c>
9d009364:	24430001 	addiu	v1,v0,1
9d009368:	ae03003c 	sw	v1,60(s0)
9d00936c:	90490000 	lbu	t1,0(v0)
9d009370:	02b63821 	addu	a3,s5,s6
9d009374:	00f6402b 	sltu	t0,a3,s6
9d009378:	1000ffa2 	b	9d009204 <__intscan+0x500>
9d00937c:	01174021 	addu	t0,t0,s7
9d009380:	0f403917 	jal	9d00e45c <__shgetc>
9d009384:	02002025 	move	a0,s0
9d009388:	1000fff9 	b	9d009370 <__intscan+0x66c>
9d00938c:	00404825 	move	t1,v0
9d009390:	0f403917 	jal	9d00e45c <__shgetc>
9d009394:	02002025 	move	a0,s0
9d009398:	1000ffc1 	b	9d0092a0 <__intscan+0x59c>
9d00939c:	02621021 	addu	v0,s3,v0
9d0093a0:	8fa20010 	lw	v0,16(sp)
9d0093a4:	0048102b 	sltu	v0,v0,t0
9d0093a8:	14400005 	bnez	v0,9d0093c0 <__intscan+0x6bc>
9d0093ac:	8fa20010 	lw	v0,16(sp)
9d0093b0:	15020009 	bne	t0,v0,9d0093d8 <__intscan+0x6d4>
9d0093b4:	0247102b 	sltu	v0,s2,a3
9d0093b8:	10400008 	beqz	v0,9d0093dc <__intscan+0x6d8>
9d0093bc:	2402ffff 	li	v0,-1
9d0093c0:	3c02a000 	lui	v0,0xa000
9d0093c4:	24030022 	li	v1,34
9d0093c8:	ac4303c8 	sw	v1,968(v0)
9d0093cc:	02403825 	move	a3,s2
9d0093d0:	1000febe 	b	9d008ecc <__intscan+0x1c8>
9d0093d4:	8fa80010 	lw	t0,16(sp)
9d0093d8:	2402ffff 	li	v0,-1
9d0093dc:	1682febc 	bne	s4,v0,9d008ed0 <__intscan+0x1cc>
9d0093e0:	8fbf0044 	lw	ra,68(sp)
9d0093e4:	00073823 	negu	a3,a3
9d0093e8:	0007102b 	sltu	v0,zero,a3
9d0093ec:	00084023 	negu	t0,t0
9d0093f0:	1000feb7 	b	9d008ed0 <__intscan+0x1cc>
9d0093f4:	01024023 	subu	t0,t0,v0
9d0093f8:	1660feb4 	bnez	s3,9d008ecc <__intscan+0x1c8>
9d0093fc:	00004025 	move	t0,zero
9d009400:	1000fecb 	b	9d008f30 <__intscan+0x22c>
9d009404:	00002825 	move	a1,zero
9d009408:	1122fe8f 	beq	t1,v0,9d008e48 <__intscan+0x144>
9d00940c:	3c029d01 	lui	v0,0x9d01
9d009410:	1000fe72 	b	9d008ddc <__intscan+0xd8>
9d009414:	2442d8e9 	addiu	v0,v0,-10007

Disassembly of section .text.__printf_core:

9d009418 <__printf_core>:
9d009418:	27bdff18 	addiu	sp,sp,-232
9d00941c:	afb500d8 	sw	s5,216(sp)
9d009420:	3c159d00 	lui	s5,0x9d00
9d009424:	afb600dc 	sw	s6,220(sp)
9d009428:	afb400d4 	sw	s4,212(sp)
9d00942c:	afb300d0 	sw	s3,208(sp)
9d009430:	afb200cc 	sw	s2,204(sp)
9d009434:	afb100c8 	sw	s1,200(sp)
9d009438:	afbf00e4 	sw	ra,228(sp)
9d00943c:	afb700e0 	sw	s7,224(sp)
9d009440:	afb000c4 	sw	s0,196(sp)
9d009444:	00809025 	move	s2,a0
9d009448:	00c08825 	move	s1,a2
9d00944c:	afa500b0 	sw	a1,176(sp)
9d009450:	00009825 	move	s3,zero
9d009454:	27b60010 	addiu	s6,sp,16
9d009458:	24140025 	li	s4,37
9d00945c:	26b57558 	addiu	s5,s5,30040
9d009460:	8fa500b0 	lw	a1,176(sp)
9d009464:	80a20000 	lb	v0,0(a1)
9d009468:	104000e0 	beqz	v0,9d0097ec <__printf_core+0x3d4>
9d00946c:	2402ffff 	li	v0,-1
9d009470:	afa20094 	sw	v0,148(sp)
9d009474:	24020080 	li	v0,128
9d009478:	afa00090 	sw	zero,144(sp)
9d00947c:	afa00098 	sw	zero,152(sp)
9d009480:	afb6009c 	sw	s6,156(sp)
9d009484:	afa200a0 	sw	v0,160(sp)
9d009488:	00008025 	move	s0,zero
9d00948c:	00b01021 	addu	v0,a1,s0
9d009490:	80420000 	lb	v0,0(v0)
9d009494:	10400003 	beqz	v0,9d0094a4 <__printf_core+0x8c>
9d009498:	00000000 	nop
9d00949c:	5454fffb 	bnel	v0,s4,9d00948c <__printf_core+0x74>
9d0094a0:	26100001 	addiu	s0,s0,1
9d0094a4:	12000006 	beqz	s0,9d0094c0 <__printf_core+0xa8>
9d0094a8:	02003025 	move	a2,s0
9d0094ac:	0f403b52 	jal	9d00ed48 <__out>
9d0094b0:	02402025 	move	a0,s2
9d0094b4:	8fa200b0 	lw	v0,176(sp)
9d0094b8:	00501021 	addu	v0,v0,s0
9d0094bc:	afa200b0 	sw	v0,176(sp)
9d0094c0:	8fb700b0 	lw	s7,176(sp)
9d0094c4:	82e20000 	lb	v0,0(s7)
9d0094c8:	145400c1 	bne	v0,s4,9d0097d0 <__printf_core+0x3b8>
9d0094cc:	26f70001 	addiu	s7,s7,1
9d0094d0:	afb700b0 	sw	s7,176(sp)
9d0094d4:	2405002b 	li	a1,43
9d0094d8:	2406002d 	li	a2,45
9d0094dc:	24030030 	li	v1,48
9d0094e0:	24070020 	li	a3,32
9d0094e4:	24080023 	li	t0,35
9d0094e8:	8fa400b0 	lw	a0,176(sp)
9d0094ec:	80820000 	lb	v0,0(a0)
9d0094f0:	5045001b 	beql	v0,a1,9d009560 <__printf_core+0x148>
9d0094f4:	8fa20090 	lw	v0,144(sp)
9d0094f8:	2849002c 	slti	t1,v0,44
9d0094fc:	1120001e 	beqz	t1,9d009578 <__printf_core+0x160>
9d009500:	00000000 	nop
9d009504:	50470018 	beql	v0,a3,9d009568 <__printf_core+0x150>
9d009508:	8fa20090 	lw	v0,144(sp)
9d00950c:	50480018 	beql	v0,t0,9d009570 <__printf_core+0x158>
9d009510:	8fa20090 	lw	v0,144(sp)
9d009514:	2403002a 	li	v1,42
9d009518:	5043001e 	beql	v0,v1,9d009594 <__printf_core+0x17c>
9d00951c:	8e220000 	lw	v0,0(s1)
9d009520:	0f403c1c 	jal	9d00f070 <atoi>
9d009524:	00000000 	nop
9d009528:	afa20098 	sw	v0,152(sp)
9d00952c:	8fa300b0 	lw	v1,176(sp)
9d009530:	80620000 	lb	v0,0(v1)
9d009534:	2442ffd0 	addiu	v0,v0,-48
9d009538:	2c42000a 	sltiu	v0,v0,10
9d00953c:	10400021 	beqz	v0,9d0095c4 <__printf_core+0x1ac>
9d009540:	24630001 	addiu	v1,v1,1
9d009544:	1000fff9 	b	9d00952c <__printf_core+0x114>
9d009548:	afa300b0 	sw	v1,176(sp)
9d00954c:	34420001 	ori	v0,v0,0x1
9d009550:	24840001 	addiu	a0,a0,1
9d009554:	afa20090 	sw	v0,144(sp)
9d009558:	1000ffe3 	b	9d0094e8 <__printf_core+0xd0>
9d00955c:	afa400b0 	sw	a0,176(sp)
9d009560:	1000fffb 	b	9d009550 <__printf_core+0x138>
9d009564:	34420004 	ori	v0,v0,0x4
9d009568:	1000fff9 	b	9d009550 <__printf_core+0x138>
9d00956c:	34420008 	ori	v0,v0,0x8
9d009570:	1000fff7 	b	9d009550 <__printf_core+0x138>
9d009574:	34420010 	ori	v0,v0,0x10
9d009578:	5046fff4 	beql	v0,a2,9d00954c <__printf_core+0x134>
9d00957c:	8fa20090 	lw	v0,144(sp)
9d009580:	5443ffe5 	bnel	v0,v1,9d009518 <__printf_core+0x100>
9d009584:	2403002a 	li	v1,42
9d009588:	8fa20090 	lw	v0,144(sp)
9d00958c:	1000fff0 	b	9d009550 <__printf_core+0x138>
9d009590:	34420002 	ori	v0,v0,0x2
9d009594:	24840001 	addiu	a0,a0,1
9d009598:	afa400b0 	sw	a0,176(sp)
9d00959c:	24430004 	addiu	v1,v0,4
9d0095a0:	8c420000 	lw	v0,0(v0)
9d0095a4:	ae230000 	sw	v1,0(s1)
9d0095a8:	04410006 	bgez	v0,9d0095c4 <__printf_core+0x1ac>
9d0095ac:	afa20098 	sw	v0,152(sp)
9d0095b0:	8fa30090 	lw	v1,144(sp)
9d0095b4:	00021023 	negu	v0,v0
9d0095b8:	afa20098 	sw	v0,152(sp)
9d0095bc:	38630001 	xori	v1,v1,0x1
9d0095c0:	afa30090 	sw	v1,144(sp)
9d0095c4:	8fa20090 	lw	v0,144(sp)
9d0095c8:	30430001 	andi	v1,v0,0x1
9d0095cc:	10600002 	beqz	v1,9d0095d8 <__printf_core+0x1c0>
9d0095d0:	7c020844 	ins	v0,zero,0x1,0x1
9d0095d4:	afa20090 	sw	v0,144(sp)
9d0095d8:	8fa200b0 	lw	v0,176(sp)
9d0095dc:	2403002e 	li	v1,46
9d0095e0:	80440000 	lb	a0,0(v0)
9d0095e4:	1483000d 	bne	a0,v1,9d00961c <__printf_core+0x204>
9d0095e8:	24440001 	addiu	a0,v0,1
9d0095ec:	afa00094 	sw	zero,148(sp)
9d0095f0:	afa400b0 	sw	a0,176(sp)
9d0095f4:	80450001 	lb	a1,1(v0)
9d0095f8:	2403002a 	li	v1,42
9d0095fc:	14a30023 	bne	a1,v1,9d00968c <__printf_core+0x274>
9d009600:	24420002 	addiu	v0,v0,2
9d009604:	afa200b0 	sw	v0,176(sp)
9d009608:	8e220000 	lw	v0,0(s1)
9d00960c:	24430004 	addiu	v1,v0,4
9d009610:	8c420000 	lw	v0,0(v0)
9d009614:	ae230000 	sw	v1,0(s1)
9d009618:	afa20094 	sw	v0,148(sp)
9d00961c:	0f403e01 	jal	9d00f804 <__fmt_state>
9d009620:	27a400b0 	addiu	a0,sp,176
9d009624:	afa200b8 	sw	v0,184(sp)
9d009628:	8fa200b0 	lw	v0,176(sp)
9d00962c:	0f4040c8 	jal	9d010320 <tolower>
9d009630:	80440000 	lb	a0,0(v0)
9d009634:	24030069 	li	v1,105
9d009638:	10430078 	beq	v0,v1,9d00981c <__printf_core+0x404>
9d00963c:	8fa500b8 	lw	a1,184(sp)
9d009640:	2843006a 	slti	v1,v0,106
9d009644:	1060002e 	beqz	v1,9d009700 <__printf_core+0x2e8>
9d009648:	24030063 	li	v1,99
9d00964c:	104300bc 	beq	v0,v1,9d009940 <__printf_core+0x528>
9d009650:	28430064 	slti	v1,v0,100
9d009654:	10600018 	beqz	v1,9d0096b8 <__printf_core+0x2a0>
9d009658:	24030064 	li	v1,100
9d00965c:	105400c5 	beq	v0,s4,9d009974 <__printf_core+0x55c>
9d009660:	24030061 	li	v1,97
9d009664:	5043004e 	beql	v0,v1,9d0097a0 <__printf_core+0x388>
9d009668:	02203025 	move	a2,s1
9d00966c:	24020025 	li	v0,37
9d009670:	a3a200a8 	sb	v0,168(sp)
9d009674:	2402ffff 	li	v0,-1
9d009678:	afb700b0 	sw	s7,176(sp)
9d00967c:	afa00090 	sw	zero,144(sp)
9d009680:	afa00098 	sw	zero,152(sp)
9d009684:	100000b8 	b	9d009968 <__printf_core+0x550>
9d009688:	afa20094 	sw	v0,148(sp)
9d00968c:	0f403c1c 	jal	9d00f070 <atoi>
9d009690:	00000000 	nop
9d009694:	afa20094 	sw	v0,148(sp)
9d009698:	8fa300b0 	lw	v1,176(sp)
9d00969c:	80620000 	lb	v0,0(v1)
9d0096a0:	2442ffd0 	addiu	v0,v0,-48
9d0096a4:	2c42000a 	sltiu	v0,v0,10
9d0096a8:	1040ffdc 	beqz	v0,9d00961c <__printf_core+0x204>
9d0096ac:	24630001 	addiu	v1,v1,1
9d0096b0:	1000fff9 	b	9d009698 <__printf_core+0x280>
9d0096b4:	afa300b0 	sw	v1,176(sp)
9d0096b8:	10430058 	beq	v0,v1,9d00981c <__printf_core+0x404>
9d0096bc:	28420068 	slti	v0,v0,104
9d0096c0:	1040ffeb 	beqz	v0,9d009670 <__printf_core+0x258>
9d0096c4:	24020025 	li	v0,37
9d0096c8:	02203025 	move	a2,s1
9d0096cc:	0f403e6d 	jal	9d00f9b4 <__pop_float>
9d0096d0:	27a400a8 	addiu	a0,sp,168
9d0096d4:	10400096 	beqz	v0,9d009930 <__printf_core+0x518>
9d0096d8:	8fa200b0 	lw	v0,176(sp)
9d0096dc:	27a600a8 	addiu	a2,sp,168
9d0096e0:	27a50090 	addiu	a1,sp,144
9d0096e4:	24430001 	addiu	v1,v0,1
9d0096e8:	afa300b0 	sw	v1,176(sp)
9d0096ec:	80470000 	lb	a3,0(v0)
9d0096f0:	0f401d66 	jal	9d007598 <__fmt_fp>
9d0096f4:	02402025 	move	a0,s2
9d0096f8:	10000035 	b	9d0097d0 <__printf_core+0x3b8>
9d0096fc:	02028021 	addu	s0,s0,v0
9d009700:	24030070 	li	v1,112
9d009704:	10430070 	beq	v0,v1,9d0098c8 <__printf_core+0x4b0>
9d009708:	28430071 	slti	v1,v0,113
9d00970c:	10600013 	beqz	v1,9d00975c <__printf_core+0x344>
9d009710:	2403006e 	li	v1,110
9d009714:	10430082 	beq	v0,v1,9d009920 <__printf_core+0x508>
9d009718:	2403006f 	li	v1,111
9d00971c:	1443ffd4 	bne	v0,v1,9d009670 <__printf_core+0x258>
9d009720:	24020025 	li	v0,37
9d009724:	02203825 	move	a3,s1
9d009728:	00003025 	move	a2,zero
9d00972c:	0f403103 	jal	9d00c40c <__pop_int>
9d009730:	27a400a8 	addiu	a0,sp,168
9d009734:	1040007e 	beqz	v0,9d009930 <__printf_core+0x518>
9d009738:	8fa200b0 	lw	v0,176(sp)
9d00973c:	27a600a8 	addiu	a2,sp,168
9d009740:	27a50090 	addiu	a1,sp,144
9d009744:	24420001 	addiu	v0,v0,1
9d009748:	02402025 	move	a0,s2
9d00974c:	0f40373d 	jal	9d00dcf4 <__fmt_o>
9d009750:	afa200b0 	sw	v0,176(sp)
9d009754:	1000001e 	b	9d0097d0 <__printf_core+0x3b8>
9d009758:	02028021 	addu	s0,s0,v0
9d00975c:	24030075 	li	v1,117
9d009760:	1043003c 	beq	v0,v1,9d009854 <__printf_core+0x43c>
9d009764:	24030078 	li	v1,120
9d009768:	10430048 	beq	v0,v1,9d00988c <__printf_core+0x474>
9d00976c:	24030073 	li	v1,115
9d009770:	1443ffbe 	bne	v0,v1,9d00966c <__printf_core+0x254>
9d009774:	24020080 	li	v0,128
9d009778:	14a2006d 	bne	a1,v0,9d009930 <__printf_core+0x518>
9d00977c:	8fa200b0 	lw	v0,176(sp)
9d009780:	00003825 	move	a3,zero
9d009784:	24420001 	addiu	v0,v0,1
9d009788:	afa200b0 	sw	v0,176(sp)
9d00978c:	8e220000 	lw	v0,0(s1)
9d009790:	24430004 	addiu	v1,v0,4
9d009794:	ae230000 	sw	v1,0(s1)
9d009798:	1000005a 	b	9d009904 <__printf_core+0x4ec>
9d00979c:	8c460000 	lw	a2,0(v0)
9d0097a0:	0f403e6d 	jal	9d00f9b4 <__pop_float>
9d0097a4:	27a400a8 	addiu	a0,sp,168
9d0097a8:	10400061 	beqz	v0,9d009930 <__printf_core+0x518>
9d0097ac:	8fa200b0 	lw	v0,176(sp)
9d0097b0:	27a600a8 	addiu	a2,sp,168
9d0097b4:	27a50090 	addiu	a1,sp,144
9d0097b8:	24430001 	addiu	v1,v0,1
9d0097bc:	afa300b0 	sw	v1,176(sp)
9d0097c0:	80470000 	lb	a3,0(v0)
9d0097c4:	0f40412c 	jal	9d0104b0 <__fmt_a>
9d0097c8:	02402025 	move	a0,s2
9d0097cc:	02028021 	addu	s0,s0,v0
9d0097d0:	02708021 	addu	s0,s3,s0
9d0097d4:	0213982a 	slt	s3,s0,s3
9d0097d8:	1260006d 	beqz	s3,9d009990 <__printf_core+0x578>
9d0097dc:	3c02a000 	lui	v0,0xa000
9d0097e0:	2403004f 	li	v1,79
9d0097e4:	ac4303c8 	sw	v1,968(v0)
9d0097e8:	2413ffff 	li	s3,-1
9d0097ec:	8fbf00e4 	lw	ra,228(sp)
9d0097f0:	02601025 	move	v0,s3
9d0097f4:	8fb700e0 	lw	s7,224(sp)
9d0097f8:	8fb600dc 	lw	s6,220(sp)
9d0097fc:	8fb500d8 	lw	s5,216(sp)
9d009800:	8fb400d4 	lw	s4,212(sp)
9d009804:	8fb300d0 	lw	s3,208(sp)
9d009808:	8fb200cc 	lw	s2,204(sp)
9d00980c:	8fb100c8 	lw	s1,200(sp)
9d009810:	8fb000c4 	lw	s0,196(sp)
9d009814:	03e00008 	jr	ra
9d009818:	27bd00e8 	addiu	sp,sp,232
9d00981c:	02203825 	move	a3,s1
9d009820:	24060001 	li	a2,1
9d009824:	0f403103 	jal	9d00c40c <__pop_int>
9d009828:	27a400a8 	addiu	a0,sp,168
9d00982c:	10400040 	beqz	v0,9d009930 <__printf_core+0x518>
9d009830:	8fa200b0 	lw	v0,176(sp)
9d009834:	27a600a8 	addiu	a2,sp,168
9d009838:	27a50090 	addiu	a1,sp,144
9d00983c:	24420001 	addiu	v0,v0,1
9d009840:	02402025 	move	a0,s2
9d009844:	0f403379 	jal	9d00cde4 <__fmt_d>
9d009848:	afa200b0 	sw	v0,176(sp)
9d00984c:	1000ffe0 	b	9d0097d0 <__printf_core+0x3b8>
9d009850:	02028021 	addu	s0,s0,v0
9d009854:	02203825 	move	a3,s1
9d009858:	00003025 	move	a2,zero
9d00985c:	0f403103 	jal	9d00c40c <__pop_int>
9d009860:	27a400a8 	addiu	a0,sp,168
9d009864:	10400032 	beqz	v0,9d009930 <__printf_core+0x518>
9d009868:	8fa200b0 	lw	v0,176(sp)
9d00986c:	27a600a8 	addiu	a2,sp,168
9d009870:	27a50090 	addiu	a1,sp,144
9d009874:	24420001 	addiu	v0,v0,1
9d009878:	02402025 	move	a0,s2
9d00987c:	0f4038ba 	jal	9d00e2e8 <__fmt_u>
9d009880:	afa200b0 	sw	v0,176(sp)
9d009884:	1000ffd2 	b	9d0097d0 <__printf_core+0x3b8>
9d009888:	02028021 	addu	s0,s0,v0
9d00988c:	02203825 	move	a3,s1
9d009890:	00003025 	move	a2,zero
9d009894:	0f403103 	jal	9d00c40c <__pop_int>
9d009898:	27a400a8 	addiu	a0,sp,168
9d00989c:	10400024 	beqz	v0,9d009930 <__printf_core+0x518>
9d0098a0:	8fa200b0 	lw	v0,176(sp)
9d0098a4:	24430001 	addiu	v1,v0,1
9d0098a8:	afa300b0 	sw	v1,176(sp)
9d0098ac:	80470000 	lb	a3,0(v0)
9d0098b0:	27a600a8 	addiu	a2,sp,168
9d0098b4:	27a50090 	addiu	a1,sp,144
9d0098b8:	0f402f2f 	jal	9d00bcbc <__fmt_x>
9d0098bc:	02402025 	move	a0,s2
9d0098c0:	1000ffc3 	b	9d0097d0 <__printf_core+0x3b8>
9d0098c4:	02028021 	addu	s0,s0,v0
9d0098c8:	02203825 	move	a3,s1
9d0098cc:	00003025 	move	a2,zero
9d0098d0:	240500f0 	li	a1,240
9d0098d4:	0f403103 	jal	9d00c40c <__pop_int>
9d0098d8:	27a400a8 	addiu	a0,sp,168
9d0098dc:	10400014 	beqz	v0,9d009930 <__printf_core+0x518>
9d0098e0:	8fa200b0 	lw	v0,176(sp)
9d0098e4:	8fa300ac 	lw	v1,172(sp)
9d0098e8:	24420001 	addiu	v0,v0,1
9d0098ec:	afa200b0 	sw	v0,176(sp)
9d0098f0:	8fa200a8 	lw	v0,168(sp)
9d0098f4:	00431025 	or	v0,v0,v1
9d0098f8:	14400007 	bnez	v0,9d009918 <__printf_core+0x500>
9d0098fc:	02a03025 	move	a2,s5
9d009900:	00003825 	move	a3,zero
9d009904:	27a50090 	addiu	a1,sp,144
9d009908:	0f403a46 	jal	9d00e918 <__fmt_s>
9d00990c:	02402025 	move	a0,s2
9d009910:	1000ffaf 	b	9d0097d0 <__printf_core+0x3b8>
9d009914:	02028021 	addu	s0,s0,v0
9d009918:	1000ffe5 	b	9d0098b0 <__printf_core+0x498>
9d00991c:	24070078 	li	a3,120
9d009920:	02203825 	move	a3,s1
9d009924:	02703021 	addu	a2,s3,s0
9d009928:	0f4037b6 	jal	9d00ded8 <__pop_ptr>
9d00992c:	27a400a8 	addiu	a0,sp,168
9d009930:	8fa200b0 	lw	v0,176(sp)
9d009934:	24420001 	addiu	v0,v0,1
9d009938:	1000ffa5 	b	9d0097d0 <__printf_core+0x3b8>
9d00993c:	afa200b0 	sw	v0,176(sp)
9d009940:	24020080 	li	v0,128
9d009944:	14a2fffa 	bne	a1,v0,9d009930 <__printf_core+0x518>
9d009948:	8fa200b0 	lw	v0,176(sp)
9d00994c:	24420001 	addiu	v0,v0,1
9d009950:	afa200b0 	sw	v0,176(sp)
9d009954:	8e220000 	lw	v0,0(s1)
9d009958:	24430004 	addiu	v1,v0,4
9d00995c:	8c420000 	lw	v0,0(v0)
9d009960:	ae230000 	sw	v1,0(s1)
9d009964:	a3a200a8 	sb	v0,168(sp)
9d009968:	24070001 	li	a3,1
9d00996c:	1000ffe5 	b	9d009904 <__printf_core+0x4ec>
9d009970:	27a600a8 	addiu	a2,sp,168
9d009974:	24020080 	li	v0,128
9d009978:	14a2ffed 	bne	a1,v0,9d009930 <__printf_core+0x518>
9d00997c:	8fa200b0 	lw	v0,176(sp)
9d009980:	a3b400a8 	sb	s4,168(sp)
9d009984:	24420001 	addiu	v0,v0,1
9d009988:	1000fff7 	b	9d009968 <__printf_core+0x550>
9d00998c:	afa200b0 	sw	v0,176(sp)
9d009990:	1000feb3 	b	9d009460 <__printf_core+0x48>
9d009994:	02009825 	move	s3,s0

Disassembly of section .text.dp32mul:

9d009998 <__divdf3>:
9d009998:	00055040 000a5542 00054ac0 00047d42     @P..BU...J..B}..
9d0099a8:	012f4825 000442c0 3c0e8000 012e4825     %H/..B.....<%H..
9d0099b8:	00076840 000d6d42 000762c0 00067d42     @h..Bm...b..B}..
9d0099c8:	018f6025 00065ac0 018e6025 00a72826     %`...Z..%`..&(..
9d0099d8:	00ae2824 254fffff 2de107fe 102000cb     $(....O%...-.. .
9d0099e8:	00000000                                ....

9d0099ec <Dlab1>:
9d0099ec:	25afffff 	addiu	t7,t5,-1
9d0099f0:	2de107fe 	sltiu	at,t7,2046
9d0099f4:	102000f4 	beqz	at,9d009dc8 <DspecB>
9d0099f8:	00000000 	nop

9d0099fc <Dlab2>:
9d0099fc:	014d5023 	subu	t2,t2,t5
9d009a00:	254a03ff 	addiu	t2,t2,1023
9d009a04:	00084042 	srl	t0,t0,0x1
9d009a08:	00097fc0 	sll	t7,t1,0x1f
9d009a0c:	010f4025 	or	t0,t0,t7
9d009a10:	00094842 	srl	t1,t1,0x1
9d009a14:	000c3c02 	srl	a3,t4,0x10
9d009a18:	00e001f4 	teq	a3,zero,0x7
9d009a1c:	0127001b 	divu	zero,t1,a3
9d009a20:	00007012 	mflo	t6
9d009a24:	00004810 	mfhi	t1
9d009a28:	3186ffff 	andi	a2,t4,0xffff
9d009a2c:	00ce0019 	multu	a2,t6
9d009a30:	00002012 	mflo	a0
9d009a34:	00094c00 	sll	t1,t1,0x10
9d009a38:	00087c02 	srl	t7,t0,0x10
9d009a3c:	012f4825 	or	t1,t1,t7
9d009a40:	0124782b 	sltu	t7,t1,a0
9d009a44:	11e00006 	beqz	t7,9d009a60 <i20>
9d009a48:	01244823 	subu	t1,t1,a0

9d009a4c <b21>:
9d009a4c:	25ceffff 	addiu	t6,t6,-1
9d009a50:	012c4821 	addu	t1,t1,t4
9d009a54:	012c082b 	sltu	at,t1,t4
9d009a58:	1020fffc 	beqz	at,9d009a4c <b21>
9d009a5c:	00000000 	nop

9d009a60 <i20>:
9d009a60:	00e001f4 	teq	a3,zero,0x7
9d009a64:	0127001b 	divu	zero,t1,a3
9d009a68:	00003812 	mflo	a3
9d009a6c:	00004810 	mfhi	t1
9d009a70:	00c70019 	multu	a2,a3
9d009a74:	00002012 	mflo	a0
9d009a78:	00094c00 	sll	t1,t1,0x10
9d009a7c:	310fffff 	andi	t7,t0,0xffff
9d009a80:	012f4825 	or	t1,t1,t7
9d009a84:	0124782b 	sltu	t7,t1,a0
9d009a88:	11e00006 	beqz	t7,9d009aa4 <i22>
9d009a8c:	01244823 	subu	t1,t1,a0

9d009a90 <b23>:
9d009a90:	24e7ffff 	addiu	a3,a3,-1
9d009a94:	012c4821 	addu	t1,t1,t4
9d009a98:	012c082b 	sltu	at,t1,t4
9d009a9c:	1020fffc 	beqz	at,9d009a90 <b23>
9d009aa0:	00000000 	nop

9d009aa4 <i22>:
9d009aa4:	000e7400 	sll	t6,t6,0x10
9d009aa8:	01c77021 	addu	t6,t6,a3
9d009aac:	01cb0019 	multu	t6,t3
9d009ab0:	00003812 	mflo	a3
9d009ab4:	00002010 	mfhi	a0
9d009ab8:	24080000 	li	t0,0
9d009abc:	0107782b 	sltu	t7,t0,a3
9d009ac0:	01074023 	subu	t0,t0,a3
9d009ac4:	012f102b 	sltu	v0,t1,t7
9d009ac8:	012f4823 	subu	t1,t1,t7
9d009acc:	0124782b 	sltu	t7,t1,a0
9d009ad0:	01e27825 	or	t7,t7,v0
9d009ad4:	11e0000b 	beqz	t7,9d009b04 <i24>
9d009ad8:	01244823 	subu	t1,t1,a0

9d009adc <Dlab3>:
9d009adc:	25ceffff 	addiu	t6,t6,-1
9d009ae0:	010b4021 	addu	t0,t0,t3
9d009ae4:	010b782b 	sltu	t7,t0,t3
9d009ae8:	012c4821 	addu	t1,t1,t4
9d009aec:	012f4821 	addu	t1,t1,t7
9d009af0:	112c0002 	beq	t1,t4,9d009afc <L31>
9d009af4:	00000000 	nop
9d009af8:	012c782b 	sltu	t7,t1,t4

9d009afc <L31>:
9d009afc:	11e0fff7 	beqz	t7,9d009adc <Dlab3>
9d009b00:	00000000 	nop

9d009b04 <i24>:
9d009b04:	152c0006 	bne	t1,t4,9d009b20 <i25>
9d009b08:	00000000 	nop
9d009b0c:	000b2025 	or	a0,zero,t3
9d009b10:	00084825 	or	t1,zero,t0
9d009b14:	240d0000 	li	t5,0
9d009b18:	1000002a 	b	9d009bc4 <e25>
9d009b1c:	000d3825 	or	a3,zero,t5

9d009b20 <i25>:
9d009b20:	000c3c02 	srl	a3,t4,0x10
9d009b24:	00e001f4 	teq	a3,zero,0x7
9d009b28:	0127001b 	divu	zero,t1,a3
9d009b2c:	00006812 	mflo	t5
9d009b30:	00004810 	mfhi	t1
9d009b34:	3186ffff 	andi	a2,t4,0xffff
9d009b38:	00cd0019 	multu	a2,t5
9d009b3c:	00002012 	mflo	a0
9d009b40:	00094c00 	sll	t1,t1,0x10
9d009b44:	00087c02 	srl	t7,t0,0x10
9d009b48:	012f4825 	or	t1,t1,t7
9d009b4c:	0124782b 	sltu	t7,t1,a0
9d009b50:	11e00006 	beqz	t7,9d009b6c <i26>
9d009b54:	01244823 	subu	t1,t1,a0

9d009b58 <b27>:
9d009b58:	25adffff 	addiu	t5,t5,-1
9d009b5c:	012c4821 	addu	t1,t1,t4
9d009b60:	012c082b 	sltu	at,t1,t4
9d009b64:	1020fffc 	beqz	at,9d009b58 <b27>
9d009b68:	00000000 	nop

9d009b6c <i26>:
9d009b6c:	00e001f4 	teq	a3,zero,0x7
9d009b70:	0127001b 	divu	zero,t1,a3
9d009b74:	00003812 	mflo	a3
9d009b78:	00004810 	mfhi	t1
9d009b7c:	00c70019 	multu	a2,a3
9d009b80:	00002012 	mflo	a0
9d009b84:	00094c00 	sll	t1,t1,0x10
9d009b88:	310fffff 	andi	t7,t0,0xffff
9d009b8c:	012f4825 	or	t1,t1,t7
9d009b90:	0124782b 	sltu	t7,t1,a0
9d009b94:	11e00006 	beqz	t7,9d009bb0 <i28>
9d009b98:	01244823 	subu	t1,t1,a0

9d009b9c <b29>:
9d009b9c:	24e7ffff 	addiu	a3,a3,-1
9d009ba0:	012c4821 	addu	t1,t1,t4
9d009ba4:	012c082b 	sltu	at,t1,t4
9d009ba8:	1020fffc 	beqz	at,9d009b9c <b29>
9d009bac:	00000000 	nop

9d009bb0 <i28>:
9d009bb0:	000d6c00 	sll	t5,t5,0x10
9d009bb4:	01a76821 	addu	t5,t5,a3
9d009bb8:	01ab0019 	multu	t5,t3
9d009bbc:	00003812 	mflo	a3
9d009bc0:	00002010 	mfhi	a0

9d009bc4 <e25>:
9d009bc4:	24080000 	li	t0,0
9d009bc8:	0107782b 	sltu	t7,t0,a3
9d009bcc:	01074023 	subu	t0,t0,a3
9d009bd0:	012f102b 	sltu	v0,t1,t7
9d009bd4:	012f4823 	subu	t1,t1,t7
9d009bd8:	0124782b 	sltu	t7,t1,a0
9d009bdc:	01e27825 	or	t7,t7,v0
9d009be0:	11e0000b 	beqz	t7,9d009c10 <i30>
9d009be4:	01244823 	subu	t1,t1,a0

9d009be8 <Dlab4>:
9d009be8:	25adffff 	addiu	t5,t5,-1
9d009bec:	010b4021 	addu	t0,t0,t3
9d009bf0:	010b782b 	sltu	t7,t0,t3
9d009bf4:	012c4821 	addu	t1,t1,t4
9d009bf8:	012f4821 	addu	t1,t1,t7
9d009bfc:	112c0002 	beq	t1,t4,9d009c08 <L32>
9d009c00:	00000000 	nop
9d009c04:	012c782b 	sltu	t7,t1,t4

9d009c08 <L32>:
9d009c08:	11e0fff7 	beqz	t7,9d009be8 <Dlab4>
9d009c0c:	00000000 	nop

9d009c10 <i30>:
9d009c10:	05c00006 	bltz	t6,9d009c2c <i31>
9d009c14:	00000000 	nop
9d009c18:	01a0782a 	slt	t7,t5,zero
9d009c1c:	01ad6821 	addu	t5,t5,t5
9d009c20:	01ce7021 	addu	t6,t6,t6
9d009c24:	01cf7021 	addu	t6,t6,t7
9d009c28:	254affff 	addiu	t2,t2,-1

9d009c2c <i31>:
9d009c2c:	01287825 	or	t7,t1,t0
9d009c30:	11e00002 	beqz	t7,9d009c3c <i32>
9d009c34:	00000000 	nop
9d009c38:	35ad0001 	ori	t5,t5,0x1

9d009c3c <i32>:
9d009c3c:	000e4825 	or	t1,zero,t6
9d009c40:	000d4025 	or	t0,zero,t5
9d009c44:	254fffff 	addiu	t7,t2,-1
9d009c48:	2de107fe 	sltiu	at,t7,2046
9d009c4c:	10200015 	beqz	at,9d009ca4 <Doveund>
9d009c50:	00000000 	nop
9d009c54:	25080400 	addiu	t0,t0,1024
9d009c58:	2d0f0400 	sltiu	t7,t0,1024
9d009c5c:	012f4821 	addu	t1,t1,t7
9d009c60:	012f782b 	sltu	t7,t1,t7
9d009c64:	014f5021 	addu	t2,t2,t7

9d009c68 <Dlab8>:
9d009c68:	00087ac2 	srl	t7,t0,0xb
9d009c6c:	31ef0001 	andi	t7,t7,0x1
9d009c70:	010f4023 	subu	t0,t0,t7
9d009c74:	000822c2 	srl	a0,t0,0xb
9d009c78:	00097d40 	sll	t7,t1,0x15
9d009c7c:	008f2025 	or	a0,a0,t7
9d009c80:	00097840 	sll	t7,t1,0x1
9d009c84:	000f7b02 	srl	t7,t7,0xc
9d009c88:	00af2825 	or	a1,a1,t7
9d009c8c:	000a7d00 	sll	t7,t2,0x14
9d009c90:	00af2825 	or	a1,a1,t7

9d009c94 <Dret>:
9d009c94:	00041025 	or	v0,zero,a0
9d009c98:	00051825 	or	v1,zero,a1

9d009c9c <D999>:
9d009c9c:	03e00008 	jr	ra
9d009ca0:	00000000 	nop

9d009ca4 <Doveund>:
9d009ca4:	1d400044 	bgtz	t2,9d009db8 <Dinf>
9d009ca8:	00000000 	nop
9d009cac:	240e0001 	li	t6,1
9d009cb0:	01ca7023 	subu	t6,t6,t2

9d009cb4 <L33>:
9d009cb4:	2dc10020 	sltiu	at,t6,32
9d009cb8:	14200007 	bnez	at,9d009cd8 <L34>
9d009cbc:	00000000 	nop
9d009cc0:	21ceffe0 	addi	t6,t6,-32
9d009cc4:	0008202b 	sltu	a0,zero,t0
9d009cc8:	1009000d 	beq	zero,t1,9d009d00 <L35>
9d009ccc:	01244025 	or	t0,t1,a0
9d009cd0:	1000fff8 	b	9d009cb4 <L33>
9d009cd4:	34090000 	li	t1,0x0

9d009cd8 <L34>:
9d009cd8:	11c00009 	beqz	t6,9d009d00 <L35>
9d009cdc:	00000000 	nop
9d009ce0:	000e3022 	neg	a2,t6
9d009ce4:	00c82004 	sllv	a0,t0,a2
9d009ce8:	00c93004 	sllv	a2,t1,a2
9d009cec:	01c84006 	srlv	t0,t0,t6
9d009cf0:	01c94806 	srlv	t1,t1,t6
9d009cf4:	10800002 	beqz	a0,9d009d00 <L35>
9d009cf8:	00c84025 	or	t0,a2,t0
9d009cfc:	35080002 	ori	t0,t0,0x2

9d009d00 <L35>:
9d009d00:	25080400 	addiu	t0,t0,1024
9d009d04:	2d0f0400 	sltiu	t7,t0,1024
9d009d08:	012f4821 	addu	t1,t1,t7
9d009d0c:	1000ffd6 	b	9d009c68 <Dlab8>
9d009d10:	000957c2 	srl	t2,t1,0x1f

9d009d14 <DspecA>:
9d009d14:	0100782a 	slt	t7,t0,zero
9d009d18:	01084021 	addu	t0,t0,t0
9d009d1c:	01294821 	addu	t1,t1,t1
9d009d20:	15400017 	bnez	t2,9d009d80 <i33>
9d009d24:	012f4821 	addu	t1,t1,t7
9d009d28:	01287825 	or	t7,t1,t0
9d009d2c:	11e00014 	beqz	t7,9d009d80 <i33>
9d009d30:	00000000 	nop
9d009d34:	15200008 	bnez	t1,9d009d58 <L36>
9d009d38:	00000000 	nop
9d009d3c:	15000003 	bnez	t0,9d009d4c <L37>
9d009d40:	00000000 	nop
9d009d44:	1000ff29 	b	9d0099ec <Dlab1>
9d009d48:	240a0000 	li	t2,0

9d009d4c <L37>:
9d009d4c:	01004825 	move	t1,t0
9d009d50:	24080000 	li	t0,0
9d009d54:	254affe0 	addiu	t2,t2,-32

9d009d58 <L36>:
9d009d58:	712e7020 	clz	t6,t1
9d009d5c:	11c0ff23 	beqz	t6,9d0099ec <Dlab1>
9d009d60:	00000000 	nop
9d009d64:	014e5023 	subu	t2,t2,t6
9d009d68:	000e3022 	neg	a2,t6
9d009d6c:	00c83006 	srlv	a2,t0,a2
9d009d70:	01c84004 	sllv	t0,t0,t6
9d009d74:	01c94804 	sllv	t1,t1,t6
9d009d78:	1000ff1c 	b	9d0099ec <Dlab1>
9d009d7c:	01264825 	or	t1,t1,a2

9d009d80 <i33>:
9d009d80:	154d0005 	bne	t2,t5,9d009d98 <i35>
9d009d84:	00000000 	nop
9d009d88:	000c7840 	sll	t7,t4,0x1
9d009d8c:	01eb7825 	or	t7,t7,t3
9d009d90:	11e0002b 	beqz	t7,9d009e40 <Dnan>
9d009d94:	00000000 	nop

9d009d98 <i35>:
9d009d98:	240107ff 	li	at,2047
9d009d9c:	11a1000a 	beq	t5,at,9d009dc8 <DspecB>
9d009da0:	00000000 	nop
9d009da4:	1140ffbb 	beqz	t2,9d009c94 <Dret>
9d009da8:	00000000 	nop
9d009dac:	01287825 	or	t7,t1,t0
9d009db0:	15e00023 	bnez	t7,9d009e40 <Dnan>
9d009db4:	00000000 	nop

9d009db8 <Dinf>:
9d009db8:	3c017ff0 	lui	at,0x7ff0
9d009dbc:	00a12825 	or	a1,a1,at
9d009dc0:	1000ffb4 	b	9d009c94 <Dret>
9d009dc4:	24040000 	li	a0,0

9d009dc8 <DspecB>:
9d009dc8:	0160782a 	slt	t7,t3,zero
9d009dcc:	016b5821 	addu	t3,t3,t3
9d009dd0:	018c6021 	addu	t4,t4,t4
9d009dd4:	15a00017 	bnez	t5,9d009e34 <i36>
9d009dd8:	018f6021 	addu	t4,t4,t7
9d009ddc:	018b7825 	or	t7,t4,t3
9d009de0:	11e0fff5 	beqz	t7,9d009db8 <Dinf>
9d009de4:	00000000 	nop
9d009de8:	15800008 	bnez	t4,9d009e0c <L39>
9d009dec:	00000000 	nop
9d009df0:	15600003 	bnez	t3,9d009e00 <L40>
9d009df4:	00000000 	nop
9d009df8:	1000ff00 	b	9d0099fc <Dlab2>
9d009dfc:	240d0000 	li	t5,0

9d009e00 <L40>:
9d009e00:	01606025 	move	t4,t3
9d009e04:	240b0000 	li	t3,0
9d009e08:	25adffe0 	addiu	t5,t5,-32

9d009e0c <L39>:
9d009e0c:	718e7020 	clz	t6,t4
9d009e10:	11c0fefa 	beqz	t6,9d0099fc <Dlab2>
9d009e14:	00000000 	nop
9d009e18:	01ae6823 	subu	t5,t5,t6
9d009e1c:	000e3022 	neg	a2,t6
9d009e20:	00cb3006 	srlv	a2,t3,a2
9d009e24:	01cb5804 	sllv	t3,t3,t6
9d009e28:	01cc6004 	sllv	t4,t4,t6
9d009e2c:	1000fef3 	b	9d0099fc <Dlab2>
9d009e30:	01866025 	or	t4,t4,a2

9d009e34 <i36>:
9d009e34:	018b7825 	or	t7,t4,t3
9d009e38:	11e00002 	beqz	t7,9d009e44 <i38>
9d009e3c:	00000000 	nop

9d009e40 <Dnan>:
9d009e40:	3c05fff8 	lui	a1,0xfff8

9d009e44 <i38>:
9d009e44:	1000ff93 	b	9d009c94 <Dret>
9d009e48:	24040000 	li	a0,0
9d009e4c:	00000000 	nop

Disassembly of section .text:

9d009e50 <main>:
#include "utilities.h"
#include "icontrol.h"

#define BUF_SIZE 200

int main(){
9d009e50:	27bdff00 	addiu	sp,sp,-256
9d009e54:	afbf00fc 	sw	ra,252(sp)
9d009e58:	afb600f8 	sw	s6,248(sp)
9d009e5c:	afb500f4 	sw	s5,244(sp)
9d009e60:	afb400f0 	sw	s4,240(sp)
9d009e64:	afb300ec 	sw	s3,236(sp)
9d009e68:	afb200e8 	sw	s2,232(sp)
9d009e6c:	afb100e4 	sw	s1,228(sp)
  char buffer[BUF_SIZE];
  NU32DIP_Startup(); // cache on, min flash wait, interrupts on, LED/button init, UART init
9d009e70:	0f40302d 	jal	9d00c0b4 <NU32DIP_Startup>
9d009e74:	afb000e0 	sw	s0,224(sp)

  NU32DIP_YELLOW = 1;  // turn off the LEDs
9d009e78:	3c02bf88 	lui	v0,0xbf88
9d009e7c:	94436130 	lhu	v1,24880(v0)
9d009e80:	24040001 	li	a0,1
9d009e84:	7c832944 	ins	v1,a0,0x5,0x1
9d009e88:	a4436130 	sh	v1,24880(v0)
  NU32DIP_GREEN = 1;
9d009e8c:	94436130 	lhu	v1,24880(v0)
9d009e90:	7c832104 	ins	v1,a0,0x4,0x1
9d009e94:	a4436130 	sh	v1,24880(v0)

  __builtin_disable_interrupts(); // in future, initialize modules or peripherals here
9d009e98:	41626000 	di	v0
9d009e9c:	000000c0 	ehb
  
  UART2_Startup(); // initialize PICO encoder UART comm
9d009ea0:	0f402d9f 	jal	9d00b67c <UART2_Startup>
9d009ea4:	00000000 	nop
  INA219_Startup(); // initialize ina219 current I2C comm  
9d009ea8:	0f403235 	jal	9d00c8d4 <INA219_Startup>
9d009eac:	00000000 	nop
  set_mode(IDLE); //initialize mode at IDLE
9d009eb0:	0f403ebe 	jal	9d00faf8 <set_mode>
9d009eb4:	00002025 	move	a0,zero
  icontrolstartup(); //initialize timers 
9d009eb8:	0f402c09 	jal	9d00b024 <icontrolstartup>
9d009ebc:	00000000 	nop

  __builtin_enable_interrupts();
9d009ec0:	41626020 	ei	v0
  
  while (1){
    NU32DIP_ReadUART1(buffer, BUF_SIZE); // we expect the next character to be a menu command
    NU32DIP_YELLOW = 1;               // clear the error LED
9d009ec4:	3c14bf88 	lui	s4,0xbf88
    switch (buffer[0]){
9d009ec8:	3c159d01 	lui	s5,0x9d01
9d009ecc:	26b59f30 	addiu	s5,s5,-24784
      break;
    }
    case 'z':{ // dummy function (in+1)  
      int n = 0;
      NU32DIP_ReadUART1(buffer, BUF_SIZE);
      sscanf(buffer, "%d", &n);
9d009ed0:	3c139d00 	lui	s3,0x9d00
9d009ed4:	267374e8 	addiu	s3,s3,29928
      sprintf(buffer, "%d\r\n", n + 1); // return the number + 1
9d009ed8:	3c129d00 	lui	s2,0x9d00
      deg = count*0.107; // cnt*360(deg/rev)/3360(cnt/rev)
9d009edc:	3c029d00 	lui	v0,0x9d00
9d009ee0:	8c507518 	lw	s0,29976(v0)
9d009ee4:	8c51751c 	lw	s1,29980(v0)
    NU32DIP_ReadUART1(buffer, BUF_SIZE); // we expect the next character to be a menu command
9d009ee8:	240500c8 	li	a1,200
9d009eec:	0f403075 	jal	9d00c1d4 <NU32DIP_ReadUART1>
9d009ef0:	27a40010 	addiu	a0,sp,16
    NU32DIP_YELLOW = 1;               // clear the error LED
9d009ef4:	96826130 	lhu	v0,24880(s4)
9d009ef8:	24030001 	li	v1,1
9d009efc:	7c622944 	ins	v0,v1,0x5,0x1
9d009f00:	a6826130 	sh	v0,24880(s4)
    switch (buffer[0]){
9d009f04:	93a20010 	lbu	v0,16(sp)
9d009f08:	2442ff9f 	addiu	v0,v0,-97
9d009f0c:	304300ff 	andi	v1,v0,0xff
9d009f10:	2c63001a 	sltiu	v1,v1,26
9d009f14:	106000d5 	beqz	v1,9d00a26c <__jend_main_5+0x2d4>
9d009f18:	304200ff 	andi	v0,v0,0xff
9d009f1c:	00021080 	sll	v0,v0,0x2
9d009f20:	02a21021 	addu	v0,s5,v0
9d009f24:	8c420000 	lw	v0,0(v0)
9d009f28:	00400008 	jr	v0
9d009f2c:	00000000 	nop

9d009f30 <__jump_main_5>:
9d009f30:	9d009f98 9d00a26c 9d009fd0 9d00a01c     ....l...........
9d009f40:	9d00a090 9d00a0a4 9d00a26c 9d00a26c     ........l...l...
9d009f50:	9d00a26c 9d00a26c 9d00a26c 9d00a26c     l...l...l...l...
9d009f60:	9d00a26c 9d00a26c 9d00a26c 9d00a16c     l...l...l...l...
9d009f70:	9d00a25c 9d00a18c 9d00a26c 9d00a26c     \.......l...l...
9d009f80:	9d00a26c 9d00a26c 9d00a26c 9d00a26c     l...l...l...l...
9d009f90:	9d00a26c 9d00a218                       l.......

9d009f98 <__jend_main_5>:
      curr = INA219_read_current();
9d009f98:	0f403267 	jal	9d00c99c <INA219_read_current>
9d009f9c:	00000000 	nop
      sprintf(buffer, "%f\r\n", curr);
9d009fa0:	0f4039c7 	jal	9d00e71c <__extendsfdf2>
9d009fa4:	00402025 	move	a0,v0
9d009fa8:	00403025 	move	a2,v0
9d009fac:	00603825 	move	a3,v1
9d009fb0:	3c059d00 	lui	a1,0x9d00
9d009fb4:	24a574d0 	addiu	a1,a1,29904
9d009fb8:	0f404059 	jal	9d010164 <_dsprintf_cdeEfFgGnopuxX>
9d009fbc:	27a40010 	addiu	a0,sp,16
      NU32DIP_WriteUART1(buffer);
9d009fc0:	0f40308e 	jal	9d00c238 <NU32DIP_WriteUART1>
9d009fc4:	27a40010 	addiu	a0,sp,16
      break;
9d009fc8:	1000ffc8 	b	9d009eec <main+0x9c>
9d009fcc:	240500c8 	li	a1,200
      WriteUART2("a"); // request the encoder count
9d009fd0:	3c049d00 	lui	a0,0x9d00
9d009fd4:	0f402d8f 	jal	9d00b63c <WriteUART2>
9d009fd8:	248474d8 	addiu	a0,a0,29912
      while(!get_encoder_flag()){;} // wait for the Pico to respond
9d009fdc:	0f402d1f 	jal	9d00b47c <get_encoder_flag>
9d009fe0:	00000000 	nop
9d009fe4:	1040fffd 	beqz	v0,9d009fdc <__jend_main_5+0x44>
9d009fe8:	00000000 	nop
      set_encoder_flag(0); // clear the flag so you can read again later
9d009fec:	0f402d22 	jal	9d00b488 <set_encoder_flag>
9d009ff0:	00002025 	move	a0,zero
      count = get_encoder_count(); // get the encoder value
9d009ff4:	0f402d25 	jal	9d00b494 <get_encoder_count>
9d009ff8:	00000000 	nop
      sprintf(buffer, "%d\r\n", count);
9d009ffc:	00403025 	move	a2,v0
9d00a000:	264574dc 	addiu	a1,s2,29916
9d00a004:	0f404059 	jal	9d010164 <_dsprintf_cdeEfFgGnopuxX>
9d00a008:	27a40010 	addiu	a0,sp,16
      NU32DIP_WriteUART1(buffer);
9d00a00c:	0f40308e 	jal	9d00c238 <NU32DIP_WriteUART1>
9d00a010:	27a40010 	addiu	a0,sp,16
      break;
9d00a014:	1000ffb5 	b	9d009eec <main+0x9c>
9d00a018:	240500c8 	li	a1,200
      WriteUART2("a"); // request the encoder count
9d00a01c:	3c049d00 	lui	a0,0x9d00
9d00a020:	0f402d8f 	jal	9d00b63c <WriteUART2>
9d00a024:	248474d8 	addiu	a0,a0,29912
      while(!get_encoder_flag()){;} // wait for the Pico to respond
9d00a028:	0f402d1f 	jal	9d00b47c <get_encoder_flag>
9d00a02c:	00000000 	nop
9d00a030:	1040fffd 	beqz	v0,9d00a028 <__jend_main_5+0x90>
9d00a034:	00000000 	nop
      set_encoder_flag(0); // clear the flag so you can read again later
9d00a038:	0f402d22 	jal	9d00b488 <set_encoder_flag>
9d00a03c:	00002025 	move	a0,zero
      count = get_encoder_count(); // get the encoder value
9d00a040:	0f402d25 	jal	9d00b494 <get_encoder_count>
9d00a044:	00000000 	nop
      deg = count*0.107; // cnt*360(deg/rev)/3360(cnt/rev)
9d00a048:	0f403c5a 	jal	9d00f168 <__floatsidf>
9d00a04c:	00402025 	move	a0,v0
9d00a050:	02003025 	move	a2,s0
9d00a054:	02203825 	move	a3,s1
9d00a058:	00402025 	move	a0,v0
9d00a05c:	0f402c54 	jal	9d00b150 <__muldf3>
9d00a060:	00602825 	move	a1,v1
9d00a064:	00402025 	move	a0,v0
9d00a068:	0f403b2e 	jal	9d00ecb8 <__fixdfsi>
9d00a06c:	00602825 	move	a1,v1
      sprintf(buffer, "%d\r\n", deg);
9d00a070:	00403025 	move	a2,v0
9d00a074:	264574dc 	addiu	a1,s2,29916
9d00a078:	0f404059 	jal	9d010164 <_dsprintf_cdeEfFgGnopuxX>
9d00a07c:	27a40010 	addiu	a0,sp,16
      NU32DIP_WriteUART1(buffer);
9d00a080:	0f40308e 	jal	9d00c238 <NU32DIP_WriteUART1>
9d00a084:	27a40010 	addiu	a0,sp,16
      break;
9d00a088:	1000ff98 	b	9d009eec <main+0x9c>
9d00a08c:	240500c8 	li	a1,200
      WriteUART2("b");
9d00a090:	3c049d00 	lui	a0,0x9d00
9d00a094:	0f402d8f 	jal	9d00b63c <WriteUART2>
9d00a098:	248474e4 	addiu	a0,a0,29924
      break;       
9d00a09c:	1000ff93 	b	9d009eec <main+0x9c>
9d00a0a0:	240500c8 	li	a1,200
      NU32DIP_ReadUART1(buffer, BUF_SIZE);
9d00a0a4:	240500c8 	li	a1,200
9d00a0a8:	0f403075 	jal	9d00c1d4 <NU32DIP_ReadUART1>
9d00a0ac:	27a40010 	addiu	a0,sp,16
      sscanf(buffer, "%d", &pwmval);  
9d00a0b0:	27a600d8 	addiu	a2,sp,216
9d00a0b4:	02602825 	move	a1,s3
9d00a0b8:	0f404063 	jal	9d01018c <_dsscanf_cdnopuxX>
9d00a0bc:	27a40010 	addiu	a0,sp,16
      if (pwmval <= -100){
9d00a0c0:	8fa200d8 	lw	v0,216(sp)
9d00a0c4:	2843ff9d 	slti	v1,v0,-99
9d00a0c8:	1060001b 	beqz	v1,9d00a138 <__jend_main_5+0x1a0>
9d00a0cc:	28430064 	slti	v1,v0,100
        pwmval = 100;
9d00a0d0:	24020064 	li	v0,100
9d00a0d4:	afa200d8 	sw	v0,216(sp)
        set_dir(1);
9d00a0d8:	0f403ec4 	jal	9d00fb10 <set_dir>
9d00a0dc:	24040001 	li	a0,1
      set_PWM(pwmval);
9d00a0e0:	0f403ec1 	jal	9d00fb04 <set_PWM>
9d00a0e4:	8fa400d8 	lw	a0,216(sp)
      set_mode(PWM);
9d00a0e8:	0f403ebe 	jal	9d00faf8 <set_mode>
9d00a0ec:	24040001 	li	a0,1
      sprintf(buffer, "%d\r\n", get_PWM()); // return the number + 1
9d00a0f0:	0f403eca 	jal	9d00fb28 <get_PWM>
9d00a0f4:	00000000 	nop
9d00a0f8:	00403025 	move	a2,v0
9d00a0fc:	264574dc 	addiu	a1,s2,29916
9d00a100:	0f404059 	jal	9d010164 <_dsprintf_cdeEfFgGnopuxX>
9d00a104:	27a40010 	addiu	a0,sp,16
      NU32DIP_WriteUART1(buffer);
9d00a108:	0f40308e 	jal	9d00c238 <NU32DIP_WriteUART1>
9d00a10c:	27a40010 	addiu	a0,sp,16
      sprintf(buffer, "%d\r\n", get_dir()); // return the number + 1
9d00a110:	0f403ec7 	jal	9d00fb1c <get_dir>
9d00a114:	00000000 	nop
9d00a118:	00403025 	move	a2,v0
9d00a11c:	264574dc 	addiu	a1,s2,29916
9d00a120:	0f404059 	jal	9d010164 <_dsprintf_cdeEfFgGnopuxX>
9d00a124:	27a40010 	addiu	a0,sp,16
      NU32DIP_WriteUART1(buffer);
9d00a128:	0f40308e 	jal	9d00c238 <NU32DIP_WriteUART1>
9d00a12c:	27a40010 	addiu	a0,sp,16
    NU32DIP_ReadUART1(buffer, BUF_SIZE); // we expect the next character to be a menu command
9d00a130:	1000ff6e 	b	9d009eec <main+0x9c>
9d00a134:	240500c8 	li	a1,200
      else if (pwmval >= 100){
9d00a138:	14600004 	bnez	v1,9d00a14c <__jend_main_5+0x1b4>
9d00a13c:	00000000 	nop
        pwmval = 100;
9d00a140:	24020064 	li	v0,100
9d00a144:	1000ffe4 	b	9d00a0d8 <__jend_main_5+0x140>
9d00a148:	afa200d8 	sw	v0,216(sp)
      if (pwmval >= 0){
9d00a14c:	0441ffe2 	bgez	v0,9d00a0d8 <__jend_main_5+0x140>
9d00a150:	00000000 	nop
        set_dir(0);
9d00a154:	0f403ec4 	jal	9d00fb10 <set_dir>
9d00a158:	00002025 	move	a0,zero
        pwmval = -pwmval;
9d00a15c:	8fa200d8 	lw	v0,216(sp)
9d00a160:	00021023 	negu	v0,v0
9d00a164:	1000ffde 	b	9d00a0e0 <__jend_main_5+0x148>
9d00a168:	afa200d8 	sw	v0,216(sp)
      set_mode(IDLE);
9d00a16c:	0f403ebe 	jal	9d00faf8 <set_mode>
9d00a170:	00002025 	move	a0,zero
      set_PWM(0);
9d00a174:	0f403ec1 	jal	9d00fb04 <set_PWM>
9d00a178:	00002025 	move	a0,zero
      set_dir(0);
9d00a17c:	0f403ec4 	jal	9d00fb10 <set_dir>
9d00a180:	00002025 	move	a0,zero
      break;       
9d00a184:	1000ff59 	b	9d009eec <main+0x9c>
9d00a188:	240500c8 	li	a1,200
      m = get_mode();
9d00a18c:	0f403ebb 	jal	9d00faec <get_mode>
9d00a190:	00000000 	nop
      if (m == IDLE){
9d00a194:	1440000c 	bnez	v0,9d00a1c8 <__jend_main_5+0x230>
9d00a198:	0040b025 	move	s6,v0
        NU32DIP_WriteUART1("IDLE\r\n"); 
9d00a19c:	3c049d00 	lui	a0,0x9d00
9d00a1a0:	0f40308e 	jal	9d00c238 <NU32DIP_WriteUART1>
9d00a1a4:	248474ec 	addiu	a0,a0,29932
      if (m == HOLD){
9d00a1a8:	24020003 	li	v0,3
9d00a1ac:	16c2000c 	bne	s6,v0,9d00a1e0 <__jend_main_5+0x248>
9d00a1b0:	24020004 	li	v0,4
        NU32DIP_WriteUART1("HOLD\r\n"); 
9d00a1b4:	3c049d00 	lui	a0,0x9d00
9d00a1b8:	0f40308e 	jal	9d00c238 <NU32DIP_WriteUART1>
9d00a1bc:	24847504 	addiu	a0,a0,29956
    NU32DIP_ReadUART1(buffer, BUF_SIZE); // we expect the next character to be a menu command
9d00a1c0:	1000ff4a 	b	9d009eec <main+0x9c>
9d00a1c4:	240500c8 	li	a1,200
      if (m == PWM){
9d00a1c8:	24020001 	li	v0,1
9d00a1cc:	16c2000a 	bne	s6,v0,9d00a1f8 <__jend_main_5+0x260>
9d00a1d0:	3c049d00 	lui	a0,0x9d00
        NU32DIP_WriteUART1("PWM\r\n"); 
9d00a1d4:	0f40308e 	jal	9d00c238 <NU32DIP_WriteUART1>
9d00a1d8:	248474f4 	addiu	a0,a0,29940
      if (m == TRACK){
9d00a1dc:	24020004 	li	v0,4
9d00a1e0:	16c2ff41 	bne	s6,v0,9d009ee8 <main+0x98>
9d00a1e4:	3c049d00 	lui	a0,0x9d00
        NU32DIP_WriteUART1("TRACK\r\n"); 
9d00a1e8:	0f40308e 	jal	9d00c238 <NU32DIP_WriteUART1>
9d00a1ec:	2484750c 	addiu	a0,a0,29964
    NU32DIP_ReadUART1(buffer, BUF_SIZE); // we expect the next character to be a menu command
9d00a1f0:	1000ff3e 	b	9d009eec <main+0x9c>
9d00a1f4:	240500c8 	li	a1,200
      if (m == ITEST){
9d00a1f8:	24020002 	li	v0,2
9d00a1fc:	16c2ffeb 	bne	s6,v0,9d00a1ac <__jend_main_5+0x214>
9d00a200:	24020003 	li	v0,3
        NU32DIP_WriteUART1("ITEST\r\n"); 
9d00a204:	3c049d00 	lui	a0,0x9d00
9d00a208:	0f40308e 	jal	9d00c238 <NU32DIP_WriteUART1>
9d00a20c:	248474fc 	addiu	a0,a0,29948
    NU32DIP_ReadUART1(buffer, BUF_SIZE); // we expect the next character to be a menu command
9d00a210:	1000ff36 	b	9d009eec <main+0x9c>
9d00a214:	240500c8 	li	a1,200
      int n = 0;
9d00a218:	afa000d8 	sw	zero,216(sp)
      NU32DIP_ReadUART1(buffer, BUF_SIZE);
9d00a21c:	240500c8 	li	a1,200
9d00a220:	0f403075 	jal	9d00c1d4 <NU32DIP_ReadUART1>
9d00a224:	27a40010 	addiu	a0,sp,16
      sscanf(buffer, "%d", &n);
9d00a228:	27a600d8 	addiu	a2,sp,216
9d00a22c:	02602825 	move	a1,s3
9d00a230:	0f404063 	jal	9d01018c <_dsscanf_cdnopuxX>
9d00a234:	27a40010 	addiu	a0,sp,16
      sprintf(buffer, "%d\r\n", n + 1); // return the number + 1
9d00a238:	8fa600d8 	lw	a2,216(sp)
9d00a23c:	24c60001 	addiu	a2,a2,1
9d00a240:	264574dc 	addiu	a1,s2,29916
9d00a244:	0f404059 	jal	9d010164 <_dsprintf_cdeEfFgGnopuxX>
9d00a248:	27a40010 	addiu	a0,sp,16
      NU32DIP_WriteUART1(buffer);
9d00a24c:	0f40308e 	jal	9d00c238 <NU32DIP_WriteUART1>
9d00a250:	27a40010 	addiu	a0,sp,16
    NU32DIP_ReadUART1(buffer, BUF_SIZE); // we expect the next character to be a menu command
9d00a254:	1000ff25 	b	9d009eec <main+0x9c>
9d00a258:	240500c8 	li	a1,200
      break;
    }
    case 'q':{
      // handle q for quit. Later you may want to return to IDLE mode here.
      set_mode(IDLE);
9d00a25c:	0f403ebe 	jal	9d00faf8 <set_mode>
9d00a260:	00002025 	move	a0,zero
      break;
9d00a264:	1000ff21 	b	9d009eec <main+0x9c>
9d00a268:	240500c8 	li	a1,200
    }
    default:{
      NU32DIP_YELLOW = 0; // turn on LED2 to indicate an error
9d00a26c:	96826130 	lhu	v0,24880(s4)
9d00a270:	7c022944 	ins	v0,zero,0x5,0x1
9d00a274:	a6826130 	sh	v0,24880(s4)
      break;
9d00a278:	1000ff1c 	b	9d009eec <main+0x9c>
9d00a27c:	240500c8 	li	a1,200

Disassembly of section .text.dp32subadd:

9d00a280 <__subdf3>:
9d00a280:	3c018000 00e13826                       ...<&8..

9d00a288 <__adddf3>:
9d00a288:	00055840 000b5d42 000552c0 00047d42     @X..B]...R..B}..
9d00a298:	014f5025 00044ac0 3c088000 01485025     %PO..J.....<%PH.
9d00a2a8:	00077040 000e7542 00076ac0 00067d42     @p..Bu...j..B}..
9d00a2b8:	01af6825 000662c0 01a86825 256fffff     %h...b..%h....o%
9d00a2c8:	2de107fe 1020008d 00000000              ...-.. .....

9d00a2d4 <Blab1>:
9d00a2d4:	25cfffff 	addiu	t7,t6,-1
9d00a2d8:	2de107fe 	sltiu	at,t7,2046
9d00a2dc:	102000bb 	beqz	at,9d00a5cc <BspecB>
9d00a2e0:	00000000 	nop

9d00a2e4 <Blab2>:
9d00a2e4:	3c018000 	lui	at,0x8000
9d00a2e8:	00a12824 	and	a1,a1,at
9d00a2ec:	016e4023 	subu	t0,t3,t6
9d00a2f0:	1100002c 	beqz	t0,9d00a3a4 <Badd3>
9d00a2f4:	00000000 	nop
9d00a2f8:	19000015 	blez	t0,9d00a350 <i1>
9d00a2fc:	00000000 	nop

9d00a300 <L1>:
9d00a300:	2d010020 	sltiu	at,t0,32
9d00a304:	14200007 	bnez	at,9d00a324 <L2>
9d00a308:	00000000 	nop
9d00a30c:	2108ffe0 	addi	t0,t0,-32
9d00a310:	000c302b 	sltu	a2,zero,t4
9d00a314:	100d0023 	beq	zero,t5,9d00a3a4 <Badd3>
9d00a318:	01a66025 	or	t4,t5,a2
9d00a31c:	1000fff8 	b	9d00a300 <L1>
9d00a320:	340d0000 	li	t5,0x0

9d00a324 <L2>:
9d00a324:	1100001f 	beqz	t0,9d00a3a4 <Badd3>
9d00a328:	00000000 	nop
9d00a32c:	00082022 	neg	a0,t0
9d00a330:	008c3004 	sllv	a2,t4,a0
9d00a334:	008d2004 	sllv	a0,t5,a0
9d00a338:	010c6006 	srlv	t4,t4,t0
9d00a33c:	010d6806 	srlv	t5,t5,t0
9d00a340:	10c00018 	beqz	a2,9d00a3a4 <Badd3>
9d00a344:	008c6025 	or	t4,a0,t4
9d00a348:	10000016 	b	9d00a3a4 <Badd3>
9d00a34c:	358c0002 	ori	t4,t4,0x2

9d00a350 <i1>:
9d00a350:	000e5825 	or	t3,zero,t6
9d00a354:	00084023 	negu	t0,t0

9d00a358 <L4>:
9d00a358:	2d010020 	sltiu	at,t0,32
9d00a35c:	14200007 	bnez	at,9d00a37c <L5>
9d00a360:	00000000 	nop
9d00a364:	2108ffe0 	addi	t0,t0,-32
9d00a368:	0009302b 	sltu	a2,zero,t1
9d00a36c:	100a000d 	beq	zero,t2,9d00a3a4 <Badd3>
9d00a370:	01464825 	or	t1,t2,a2
9d00a374:	1000fff8 	b	9d00a358 <L4>
9d00a378:	340a0000 	li	t2,0x0

9d00a37c <L5>:
9d00a37c:	11000009 	beqz	t0,9d00a3a4 <Badd3>
9d00a380:	00000000 	nop
9d00a384:	00082022 	neg	a0,t0
9d00a388:	00893004 	sllv	a2,t1,a0
9d00a38c:	008a2004 	sllv	a0,t2,a0
9d00a390:	01094806 	srlv	t1,t1,t0
9d00a394:	010a5006 	srlv	t2,t2,t0
9d00a398:	10c00002 	beqz	a2,9d00a3a4 <Badd3>
9d00a39c:	00894825 	or	t1,a0,t1
9d00a3a0:	35290002 	ori	t1,t1,0x2

9d00a3a4 <Badd3>:
9d00a3a4:	00a77826 	xor	t7,a1,a3
9d00a3a8:	05e0001c 	bltz	t7,9d00a41c <Bsub1>
9d00a3ac:	00000000 	nop
9d00a3b0:	012c4821 	addu	t1,t1,t4
9d00a3b4:	012c782b 	sltu	t7,t1,t4
9d00a3b8:	014d5021 	addu	t2,t2,t5
9d00a3bc:	014f5021 	addu	t2,t2,t7
9d00a3c0:	114d0002 	beq	t2,t5,9d00a3cc <L7>
9d00a3c4:	00000000 	nop
9d00a3c8:	014d782b 	sltu	t7,t2,t5

9d00a3cc <L7>:
9d00a3cc:	11e00037 	beqz	t7,9d00a4ac <Bres>
9d00a3d0:	00000000 	nop
9d00a3d4:	312f0001 	andi	t7,t1,0x1
9d00a3d8:	11e00002 	beqz	t7,9d00a3e4 <i3>
9d00a3dc:	00000000 	nop
9d00a3e0:	35290002 	ori	t1,t1,0x2

9d00a3e4 <i3>:
9d00a3e4:	00094842 	srl	t1,t1,0x1
9d00a3e8:	000a7fc0 	sll	t7,t2,0x1f
9d00a3ec:	012f4825 	or	t1,t1,t7
9d00a3f0:	000a5042 	srl	t2,t2,0x1
9d00a3f4:	3c018000 	lui	at,0x8000
9d00a3f8:	01415025 	or	t2,t2,at
9d00a3fc:	256b0001 	addiu	t3,t3,1
9d00a400:	240107ff 	li	at,2047
9d00a404:	15610029 	bne	t3,at,9d00a4ac <Bres>
9d00a408:	00000000 	nop
9d00a40c:	3c017ff0 	lui	at,0x7ff0
9d00a410:	00a12825 	or	a1,a1,at
9d00a414:	10000037 	b	9d00a4f4 <BretA>
9d00a418:	24040000 	li	a0,0

9d00a41c <Bsub1>:
9d00a41c:	012c782b 	sltu	t7,t1,t4
9d00a420:	012c4823 	subu	t1,t1,t4
9d00a424:	014f102b 	sltu	v0,t2,t7
9d00a428:	014f5023 	subu	t2,t2,t7
9d00a42c:	014d782b 	sltu	t7,t2,t5
9d00a430:	01e27825 	or	t7,t7,v0
9d00a434:	11e00007 	beqz	t7,9d00a454 <i5>
9d00a438:	014d5023 	subu	t2,t2,t5
9d00a43c:	3c018000 	lui	at,0x8000
9d00a440:	00a12826 	xor	a1,a1,at
9d00a444:	0009782b 	sltu	t7,zero,t1
9d00a448:	00094823 	negu	t1,t1
9d00a44c:	000a5023 	negu	t2,t2
9d00a450:	014f5023 	subu	t2,t2,t7

9d00a454 <i5>:
9d00a454:	15400008 	bnez	t2,9d00a478 <L8>
9d00a458:	00000000 	nop
9d00a45c:	15200003 	bnez	t1,9d00a46c <L9>
9d00a460:	00000000 	nop
9d00a464:	1000000d 	b	9d00a49c <L10>
9d00a468:	240b0000 	li	t3,0

9d00a46c <L9>:
9d00a46c:	01205025 	move	t2,t1
9d00a470:	24090000 	li	t1,0
9d00a474:	256bffe0 	addiu	t3,t3,-32

9d00a478 <L8>:
9d00a478:	71484020 	clz	t0,t2
9d00a47c:	11000007 	beqz	t0,9d00a49c <L10>
9d00a480:	00000000 	nop
9d00a484:	01685823 	subu	t3,t3,t0
9d00a488:	00082022 	neg	a0,t0
9d00a48c:	00892006 	srlv	a0,t1,a0
9d00a490:	01094804 	sllv	t1,t1,t0
9d00a494:	010a5004 	sllv	t2,t2,t0
9d00a498:	01445025 	or	t2,t2,a0

9d00a49c <L10>:
9d00a49c:	01497825 	or	t7,t2,t1
9d00a4a0:	15e00002 	bnez	t7,9d00a4ac <Bres>
9d00a4a4:	00000000 	nop
9d00a4a8:	24050000 	li	a1,0

9d00a4ac <Bres>:
9d00a4ac:	19600068 	blez	t3,9d00a650 <Bund>
9d00a4b0:	00000000 	nop

9d00a4b4 <Blab8>:
9d00a4b4:	25290400 	addiu	t1,t1,1024
9d00a4b8:	2d2f0400 	sltiu	t7,t1,1024
9d00a4bc:	014f5021 	addu	t2,t2,t7
9d00a4c0:	014f782b 	sltu	t7,t2,t7
9d00a4c4:	016f5821 	addu	t3,t3,t7
9d00a4c8:	00097ac2 	srl	t7,t1,0xb
9d00a4cc:	31ef0001 	andi	t7,t7,0x1
9d00a4d0:	012f4823 	subu	t1,t1,t7
9d00a4d4:	000922c2 	srl	a0,t1,0xb
9d00a4d8:	000a7d40 	sll	t7,t2,0x15
9d00a4dc:	008f2025 	or	a0,a0,t7
9d00a4e0:	000a7840 	sll	t7,t2,0x1
9d00a4e4:	000f7b02 	srl	t7,t7,0xc
9d00a4e8:	00af2825 	or	a1,a1,t7
9d00a4ec:	000b7d00 	sll	t7,t3,0x14
9d00a4f0:	00af2825 	or	a1,a1,t7

9d00a4f4 <BretA>:
9d00a4f4:	00041025 	or	v0,zero,a0
9d00a4f8:	00051825 	or	v1,zero,a1

9d00a4fc <B999>:
9d00a4fc:	03e00008 	jr	ra
9d00a500:	00000000 	nop

9d00a504 <BspecA>:
9d00a504:	0120782a 	slt	t7,t1,zero
9d00a508:	01294821 	addu	t1,t1,t1
9d00a50c:	014a5021 	addu	t2,t2,t2
9d00a510:	15600023 	bnez	t3,9d00a5a0 <i7>
9d00a514:	014f5021 	addu	t2,t2,t7
9d00a518:	01497825 	or	t7,t2,t1
9d00a51c:	11e00014 	beqz	t7,9d00a570 <i8>
9d00a520:	00000000 	nop
9d00a524:	15400008 	bnez	t2,9d00a548 <L11>
9d00a528:	00000000 	nop
9d00a52c:	15200003 	bnez	t1,9d00a53c <L12>
9d00a530:	00000000 	nop
9d00a534:	1000ff67 	b	9d00a2d4 <Blab1>
9d00a538:	240b0000 	li	t3,0

9d00a53c <L12>:
9d00a53c:	01205025 	move	t2,t1
9d00a540:	24090000 	li	t1,0
9d00a544:	256bffe0 	addiu	t3,t3,-32

9d00a548 <L11>:
9d00a548:	71484020 	clz	t0,t2
9d00a54c:	1100ff61 	beqz	t0,9d00a2d4 <Blab1>
9d00a550:	00000000 	nop
9d00a554:	01685823 	subu	t3,t3,t0
9d00a558:	00082022 	neg	a0,t0
9d00a55c:	00892006 	srlv	a0,t1,a0
9d00a560:	01094804 	sllv	t1,t1,t0
9d00a564:	010a5004 	sllv	t2,t2,t0
9d00a568:	1000ff5a 	b	9d00a2d4 <Blab1>
9d00a56c:	01445025 	or	t2,t2,a0

9d00a570 <i8>:
9d00a570:	240107ff 	li	at,2047
9d00a574:	11c10015 	beq	t6,at,9d00a5cc <BspecB>
9d00a578:	00000000 	nop
9d00a57c:	00e74021 	addu	t0,a3,a3
9d00a580:	01067825 	or	t7,t0,a2
9d00a584:	15e00003 	bnez	t7,9d00a594 <BretB>
9d00a588:	00000000 	nop
9d00a58c:	04e0ffd9 	bltz	a3,9d00a4f4 <BretA>
9d00a590:	00000000 	nop

9d00a594 <BretB>:
9d00a594:	00061025 	or	v0,zero,a2
9d00a598:	1000ffd8 	b	9d00a4fc <B999>
9d00a59c:	00071825 	or	v1,zero,a3

9d00a5a0 <i7>:
9d00a5a0:	01497825 	or	t7,t2,t1
9d00a5a4:	15e00027 	bnez	t7,9d00a644 <Bnan>
9d00a5a8:	00000000 	nop
9d00a5ac:	240107ff 	li	at,2047
9d00a5b0:	15c1ffd0 	bne	t6,at,9d00a4f4 <BretA>
9d00a5b4:	00000000 	nop
9d00a5b8:	00a77826 	xor	t7,a1,a3
9d00a5bc:	05e00021 	bltz	t7,9d00a644 <Bnan>
9d00a5c0:	00000000 	nop
9d00a5c4:	1000fff3 	b	9d00a594 <BretB>
9d00a5c8:	00000000 	nop

9d00a5cc <BspecB>:
9d00a5cc:	0180782a 	slt	t7,t4,zero
9d00a5d0:	018c6021 	addu	t4,t4,t4
9d00a5d4:	01ad6821 	addu	t5,t5,t5
9d00a5d8:	15c00017 	bnez	t6,9d00a638 <i11>
9d00a5dc:	01af6821 	addu	t5,t5,t7
9d00a5e0:	01ac7825 	or	t7,t5,t4
9d00a5e4:	11e0ffc3 	beqz	t7,9d00a4f4 <BretA>
9d00a5e8:	00000000 	nop
9d00a5ec:	15a00008 	bnez	t5,9d00a610 <L14>
9d00a5f0:	00000000 	nop
9d00a5f4:	15800003 	bnez	t4,9d00a604 <L15>
9d00a5f8:	00000000 	nop
9d00a5fc:	1000ff39 	b	9d00a2e4 <Blab2>
9d00a600:	240e0000 	li	t6,0

9d00a604 <L15>:
9d00a604:	01806825 	move	t5,t4
9d00a608:	240c0000 	li	t4,0
9d00a60c:	25ceffe0 	addiu	t6,t6,-32

9d00a610 <L14>:
9d00a610:	71a84020 	clz	t0,t5
9d00a614:	1100ff33 	beqz	t0,9d00a2e4 <Blab2>
9d00a618:	00000000 	nop
9d00a61c:	01c87023 	subu	t6,t6,t0
9d00a620:	00082022 	neg	a0,t0
9d00a624:	008c2006 	srlv	a0,t4,a0
9d00a628:	010c6004 	sllv	t4,t4,t0
9d00a62c:	010d6804 	sllv	t5,t5,t0
9d00a630:	1000ff2c 	b	9d00a2e4 <Blab2>
9d00a634:	01a46825 	or	t5,t5,a0

9d00a638 <i11>:
9d00a638:	01ac7825 	or	t7,t5,t4
9d00a63c:	11e0ffd5 	beqz	t7,9d00a594 <BretB>
9d00a640:	00000000 	nop

9d00a644 <Bnan>:
9d00a644:	3c05fff8 	lui	a1,0xfff8
9d00a648:	1000ffaa 	b	9d00a4f4 <BretA>
9d00a64c:	24040000 	li	a0,0

9d00a650 <Bund>:
9d00a650:	24080001 	li	t0,1
9d00a654:	010b4023 	subu	t0,t0,t3

9d00a658 <L17>:
9d00a658:	2d010020 	sltiu	at,t0,32
9d00a65c:	14200007 	bnez	at,9d00a67c <L18>
9d00a660:	00000000 	nop
9d00a664:	2108ffe0 	addi	t0,t0,-32
9d00a668:	0009302b 	sltu	a2,zero,t1
9d00a66c:	100a000d 	beq	zero,t2,9d00a6a4 <L19>
9d00a670:	01464825 	or	t1,t2,a2
9d00a674:	1000fff8 	b	9d00a658 <L17>
9d00a678:	340a0000 	li	t2,0x0

9d00a67c <L18>:
9d00a67c:	11000009 	beqz	t0,9d00a6a4 <L19>
9d00a680:	00000000 	nop
9d00a684:	00082022 	neg	a0,t0
9d00a688:	00893004 	sllv	a2,t1,a0
9d00a68c:	008a2004 	sllv	a0,t2,a0
9d00a690:	01094806 	srlv	t1,t1,t0
9d00a694:	010a5006 	srlv	t2,t2,t0
9d00a698:	10c00002 	beqz	a2,9d00a6a4 <L19>
9d00a69c:	00894825 	or	t1,a0,t1
9d00a6a0:	35290002 	ori	t1,t1,0x2

9d00a6a4 <L19>:
9d00a6a4:	1000ff83 	b	9d00a4b4 <Blab8>
9d00a6a8:	240b0000 	li	t3,0
9d00a6ac:	00000000 	nop

Disassembly of section .text:

9d00a6b0 <__udivdi3>:
9d00a6b0:	00c04025 	move	t0,a2
9d00a6b4:	00e01825 	move	v1,a3
9d00a6b8:	00805025 	move	t2,a0
9d00a6bc:	14e00098 	bnez	a3,9d00a920 <__udivdi3+0x270>
9d00a6c0:	00a01025 	move	v0,a1
9d00a6c4:	00a6302b 	sltu	a2,a1,a2
9d00a6c8:	10c00035 	beqz	a2,9d00a7a0 <__udivdi3+0xf0>
9d00a6cc:	00000000 	nop
9d00a6d0:	71052820 	clz	a1,t0
9d00a6d4:	10a00006 	beqz	a1,9d00a6f0 <__udivdi3+0x40>
9d00a6d8:	00052023 	negu	a0,a1
9d00a6dc:	008a2006 	srlv	a0,t2,a0
9d00a6e0:	00a21004 	sllv	v0,v0,a1
9d00a6e4:	00a84004 	sllv	t0,t0,a1
9d00a6e8:	00821025 	or	v0,a0,v0
9d00a6ec:	00aa5004 	sllv	t2,t2,a1
9d00a6f0:	00083402 	srl	a2,t0,0x10
9d00a6f4:	0046001b 	divu	zero,v0,a2
9d00a6f8:	00c001f4 	teq	a2,zero,0x7
9d00a6fc:	3105ffff 	andi	a1,t0,0xffff
9d00a700:	000a2402 	srl	a0,t2,0x10
9d00a704:	00003812 	mflo	a3
9d00a708:	00001010 	mfhi	v0
9d00a70c:	00021400 	sll	v0,v0,0x10
9d00a710:	00442025 	or	a0,v0,a0
9d00a714:	70a74802 	mul	t1,a1,a3
9d00a718:	0089582b 	sltu	t3,a0,t1
9d00a71c:	1160000a 	beqz	t3,9d00a748 <__udivdi3+0x98>
9d00a720:	00e01025 	move	v0,a3
9d00a724:	00882021 	addu	a0,a0,t0
9d00a728:	0088582b 	sltu	t3,a0,t0
9d00a72c:	15600006 	bnez	t3,9d00a748 <__udivdi3+0x98>
9d00a730:	24e2ffff 	addiu	v0,a3,-1
9d00a734:	0089582b 	sltu	t3,a0,t1
9d00a738:	51600004 	beqzl	t3,9d00a74c <__udivdi3+0x9c>
9d00a73c:	00892023 	subu	a0,a0,t1
9d00a740:	24e2fffe 	addiu	v0,a3,-2
9d00a744:	00882021 	addu	a0,a0,t0
9d00a748:	00892023 	subu	a0,a0,t1
9d00a74c:	0086001b 	divu	zero,a0,a2
9d00a750:	00c001f4 	teq	a2,zero,0x7
9d00a754:	00003010 	mfhi	a2
9d00a758:	00063400 	sll	a2,a2,0x10
9d00a75c:	00002012 	mflo	a0
9d00a760:	70a43802 	mul	a3,a1,a0
9d00a764:	3145ffff 	andi	a1,t2,0xffff
9d00a768:	00c52825 	or	a1,a2,a1
9d00a76c:	00a7482b 	sltu	t1,a1,a3
9d00a770:	11200008 	beqz	t1,9d00a794 <__udivdi3+0xe4>
9d00a774:	00803025 	move	a2,a0
9d00a778:	01052821 	addu	a1,t0,a1
9d00a77c:	00a8402b 	sltu	t0,a1,t0
9d00a780:	15000004 	bnez	t0,9d00a794 <__udivdi3+0xe4>
9d00a784:	2486ffff 	addiu	a2,a0,-1
9d00a788:	00a7282b 	sltu	a1,a1,a3
9d00a78c:	54a00001 	bnezl	a1,9d00a794 <__udivdi3+0xe4>
9d00a790:	2486fffe 	addiu	a2,a0,-2
9d00a794:	00021400 	sll	v0,v0,0x10
9d00a798:	03e00008 	jr	ra
9d00a79c:	00461025 	or	v0,v0,a2
9d00a7a0:	15000004 	bnez	t0,9d00a7b4 <__udivdi3+0x104>
9d00a7a4:	24020001 	li	v0,1
9d00a7a8:	0048001b 	divu	zero,v0,t0
9d00a7ac:	010001f4 	teq	t0,zero,0x7
9d00a7b0:	00004012 	mflo	t0
9d00a7b4:	710b5820 	clz	t3,t0
9d00a7b8:	15600023 	bnez	t3,9d00a848 <__udivdi3+0x198>
9d00a7bc:	24070020 	li	a3,32
9d00a7c0:	00a82823 	subu	a1,a1,t0
9d00a7c4:	24030001 	li	v1,1
9d00a7c8:	00083402 	srl	a2,t0,0x10
9d00a7cc:	00a6001b 	divu	zero,a1,a2
9d00a7d0:	00c001f4 	teq	a2,zero,0x7
9d00a7d4:	3107ffff 	andi	a3,t0,0xffff
9d00a7d8:	000a2402 	srl	a0,t2,0x10
9d00a7dc:	00002812 	mflo	a1
9d00a7e0:	00001010 	mfhi	v0
9d00a7e4:	00021400 	sll	v0,v0,0x10
9d00a7e8:	00442025 	or	a0,v0,a0
9d00a7ec:	70e54802 	mul	t1,a3,a1
9d00a7f0:	0089582b 	sltu	t3,a0,t1
9d00a7f4:	1160000a 	beqz	t3,9d00a820 <__udivdi3+0x170>
9d00a7f8:	00a01025 	move	v0,a1
9d00a7fc:	00882021 	addu	a0,a0,t0
9d00a800:	0088582b 	sltu	t3,a0,t0
9d00a804:	15600006 	bnez	t3,9d00a820 <__udivdi3+0x170>
9d00a808:	24a2ffff 	addiu	v0,a1,-1
9d00a80c:	0089582b 	sltu	t3,a0,t1
9d00a810:	51600004 	beqzl	t3,9d00a824 <__udivdi3+0x174>
9d00a814:	00892023 	subu	a0,a0,t1
9d00a818:	24a2fffe 	addiu	v0,a1,-2
9d00a81c:	00882021 	addu	a0,a0,t0
9d00a820:	00892023 	subu	a0,a0,t1
9d00a824:	0086001b 	divu	zero,a0,a2
9d00a828:	00c001f4 	teq	a2,zero,0x7
9d00a82c:	314affff 	andi	t2,t2,0xffff
9d00a830:	00002810 	mfhi	a1
9d00a834:	00052c00 	sll	a1,a1,0x10
9d00a838:	00aa2825 	or	a1,a1,t2
9d00a83c:	00002012 	mflo	a0
9d00a840:	1000ffca 	b	9d00a76c <__udivdi3+0xbc>
9d00a844:	70e43802 	mul	a3,a3,a0
9d00a848:	00eb3823 	subu	a3,a3,t3
9d00a84c:	01684004 	sllv	t0,t0,t3
9d00a850:	00e44806 	srlv	t1,a0,a3
9d00a854:	00083402 	srl	a2,t0,0x10
9d00a858:	00e53806 	srlv	a3,a1,a3
9d00a85c:	00e6001b 	divu	zero,a3,a2
9d00a860:	00c001f4 	teq	a2,zero,0x7
9d00a864:	01651004 	sllv	v0,a1,t3
9d00a868:	01224825 	or	t1,t1,v0
9d00a86c:	3102ffff 	andi	v0,t0,0xffff
9d00a870:	00091c02 	srl	v1,t1,0x10
9d00a874:	00002812 	mflo	a1
9d00a878:	00003810 	mfhi	a3
9d00a87c:	00073c00 	sll	a3,a3,0x10
9d00a880:	00e33825 	or	a3,a3,v1
9d00a884:	70455002 	mul	t2,v0,a1
9d00a888:	00ea602b 	sltu	t4,a3,t2
9d00a88c:	1180000a 	beqz	t4,9d00a8b8 <__udivdi3+0x208>
9d00a890:	00a01825 	move	v1,a1
9d00a894:	00e83821 	addu	a3,a3,t0
9d00a898:	00e8602b 	sltu	t4,a3,t0
9d00a89c:	15800006 	bnez	t4,9d00a8b8 <__udivdi3+0x208>
9d00a8a0:	24a3ffff 	addiu	v1,a1,-1
9d00a8a4:	00ea602b 	sltu	t4,a3,t2
9d00a8a8:	51800004 	beqzl	t4,9d00a8bc <__udivdi3+0x20c>
9d00a8ac:	00ea3823 	subu	a3,a3,t2
9d00a8b0:	24a3fffe 	addiu	v1,a1,-2
9d00a8b4:	00e83821 	addu	a3,a3,t0
9d00a8b8:	00ea3823 	subu	a3,a3,t2
9d00a8bc:	00e6001b 	divu	zero,a3,a2
9d00a8c0:	00c001f4 	teq	a2,zero,0x7
9d00a8c4:	3125ffff 	andi	a1,t1,0xffff
9d00a8c8:	00003012 	mflo	a2
9d00a8cc:	00003810 	mfhi	a3
9d00a8d0:	00073c00 	sll	a3,a3,0x10
9d00a8d4:	00e52825 	or	a1,a3,a1
9d00a8d8:	70461002 	mul	v0,v0,a2
9d00a8dc:	00a2482b 	sltu	t1,a1,v0
9d00a8e0:	1120000a 	beqz	t1,9d00a90c <__udivdi3+0x25c>
9d00a8e4:	00c03825 	move	a3,a2
9d00a8e8:	00a82821 	addu	a1,a1,t0
9d00a8ec:	00a8482b 	sltu	t1,a1,t0
9d00a8f0:	15200006 	bnez	t1,9d00a90c <__udivdi3+0x25c>
9d00a8f4:	24c7ffff 	addiu	a3,a2,-1
9d00a8f8:	00a2482b 	sltu	t1,a1,v0
9d00a8fc:	51200004 	beqzl	t1,9d00a910 <__udivdi3+0x260>
9d00a900:	00031c00 	sll	v1,v1,0x10
9d00a904:	24c7fffe 	addiu	a3,a2,-2
9d00a908:	00a82821 	addu	a1,a1,t0
9d00a90c:	00031c00 	sll	v1,v1,0x10
9d00a910:	01645004 	sllv	t2,a0,t3
9d00a914:	00a22823 	subu	a1,a1,v0
9d00a918:	1000ffab 	b	9d00a7c8 <__udivdi3+0x118>
9d00a91c:	00671825 	or	v1,v1,a3
9d00a920:	00a7402b 	sltu	t0,a1,a3
9d00a924:	00001825 	move	v1,zero
9d00a928:	1500004e 	bnez	t0,9d00aa64 <__udivdi3+0x3b4>
9d00a92c:	00001025 	move	v0,zero
9d00a930:	70ea5020 	clz	t2,a3
9d00a934:	15400007 	bnez	t2,9d00a954 <__udivdi3+0x2a4>
9d00a938:	24090020 	li	t1,32
9d00a93c:	00e5282b 	sltu	a1,a3,a1
9d00a940:	14a00048 	bnez	a1,9d00aa64 <__udivdi3+0x3b4>
9d00a944:	24020001 	li	v0,1
9d00a948:	0086102b 	sltu	v0,a0,a2
9d00a94c:	03e00008 	jr	ra
9d00a950:	38420001 	xori	v0,v0,0x1
9d00a954:	012a4823 	subu	t1,t1,t2
9d00a958:	01261006 	srlv	v0,a2,t1
9d00a95c:	01473804 	sllv	a3,a3,t2
9d00a960:	00473825 	or	a3,v0,a3
9d00a964:	01451804 	sllv	v1,a1,t2
9d00a968:	00074402 	srl	t0,a3,0x10
9d00a96c:	01252806 	srlv	a1,a1,t1
9d00a970:	00a8001b 	divu	zero,a1,t0
9d00a974:	010001f4 	teq	t0,zero,0x7
9d00a978:	30ebffff 	andi	t3,a3,0xffff
9d00a97c:	01241006 	srlv	v0,a0,t1
9d00a980:	00431025 	or	v0,v0,v1
9d00a984:	00021c02 	srl	v1,v0,0x10
9d00a988:	00002812 	mflo	a1
9d00a98c:	00004810 	mfhi	t1
9d00a990:	00094c00 	sll	t1,t1,0x10
9d00a994:	01234825 	or	t1,t1,v1
9d00a998:	71656002 	mul	t4,t3,a1
9d00a99c:	012c682b 	sltu	t5,t1,t4
9d00a9a0:	11a0000a 	beqz	t5,9d00a9cc <__udivdi3+0x31c>
9d00a9a4:	00a01825 	move	v1,a1
9d00a9a8:	01274821 	addu	t1,t1,a3
9d00a9ac:	0127682b 	sltu	t5,t1,a3
9d00a9b0:	15a00006 	bnez	t5,9d00a9cc <__udivdi3+0x31c>
9d00a9b4:	24a3ffff 	addiu	v1,a1,-1
9d00a9b8:	012c682b 	sltu	t5,t1,t4
9d00a9bc:	51a00004 	beqzl	t5,9d00a9d0 <__udivdi3+0x320>
9d00a9c0:	012c4823 	subu	t1,t1,t4
9d00a9c4:	24a3fffe 	addiu	v1,a1,-2
9d00a9c8:	01274821 	addu	t1,t1,a3
9d00a9cc:	012c4823 	subu	t1,t1,t4
9d00a9d0:	0128001b 	divu	zero,t1,t0
9d00a9d4:	010001f4 	teq	t0,zero,0x7
9d00a9d8:	3045ffff 	andi	a1,v0,0xffff
9d00a9dc:	00004012 	mflo	t0
9d00a9e0:	00004810 	mfhi	t1
9d00a9e4:	00094c00 	sll	t1,t1,0x10
9d00a9e8:	01252825 	or	a1,t1,a1
9d00a9ec:	71685802 	mul	t3,t3,t0
9d00a9f0:	00ab102b 	sltu	v0,a1,t3
9d00a9f4:	1040000a 	beqz	v0,9d00aa20 <__udivdi3+0x370>
9d00a9f8:	01004825 	move	t1,t0
9d00a9fc:	00a72821 	addu	a1,a1,a3
9d00aa00:	00a7102b 	sltu	v0,a1,a3
9d00aa04:	14400006 	bnez	v0,9d00aa20 <__udivdi3+0x370>
9d00aa08:	2509ffff 	addiu	t1,t0,-1
9d00aa0c:	00ab102b 	sltu	v0,a1,t3
9d00aa10:	10400004 	beqz	v0,9d00aa24 <__udivdi3+0x374>
9d00aa14:	00031400 	sll	v0,v1,0x10
9d00aa18:	2509fffe 	addiu	t1,t0,-2
9d00aa1c:	00a72821 	addu	a1,a1,a3
9d00aa20:	00031400 	sll	v0,v1,0x10
9d00aa24:	01463004 	sllv	a2,a2,t2
9d00aa28:	00491025 	or	v0,v0,t1
9d00aa2c:	00c20019 	multu	a2,v0
9d00aa30:	00ab2823 	subu	a1,a1,t3
9d00aa34:	00003810 	mfhi	a3
9d00aa38:	00a7182b 	sltu	v1,a1,a3
9d00aa3c:	14600007 	bnez	v1,9d00aa5c <__udivdi3+0x3ac>
9d00aa40:	00003012 	mflo	a2
9d00aa44:	14a70007 	bne	a1,a3,9d00aa64 <__udivdi3+0x3b4>
9d00aa48:	00001825 	move	v1,zero
9d00aa4c:	01442004 	sllv	a0,a0,t2
9d00aa50:	0086202b 	sltu	a0,a0,a2
9d00aa54:	10800003 	beqz	a0,9d00aa64 <__udivdi3+0x3b4>
9d00aa58:	00000000 	nop
9d00aa5c:	2442ffff 	addiu	v0,v0,-1
9d00aa60:	00001825 	move	v1,zero
9d00aa64:	03e00008 	jr	ra
9d00aa68:	00000000 	nop

9d00aa6c <__umoddi3>:
9d00aa6c:	00c04825 	move	t1,a2
9d00aa70:	00801025 	move	v0,a0
9d00aa74:	14e0008b 	bnez	a3,9d00aca4 <__umoddi3+0x238>
9d00aa78:	00a01825 	move	v1,a1
9d00aa7c:	00a6302b 	sltu	a2,a1,a2
9d00aa80:	10c00033 	beqz	a2,9d00ab50 <__umoddi3+0xe4>
9d00aa84:	712a5020 	clz	t2,t1
9d00aa88:	11400008 	beqz	t2,9d00aaac <__umoddi3+0x40>
9d00aa8c:	00095c02 	srl	t3,t1,0x10
9d00aa90:	01451804 	sllv	v1,a1,t2
9d00aa94:	000a2823 	negu	a1,t2
9d00aa98:	00a42806 	srlv	a1,a0,a1
9d00aa9c:	01494804 	sllv	t1,t1,t2
9d00aaa0:	00a31825 	or	v1,a1,v1
9d00aaa4:	01441004 	sllv	v0,a0,t2
9d00aaa8:	00095c02 	srl	t3,t1,0x10
9d00aaac:	006b001b 	divu	zero,v1,t3
9d00aab0:	016001f4 	teq	t3,zero,0x7
9d00aab4:	3124ffff 	andi	a0,t1,0xffff
9d00aab8:	00001812 	mflo	v1
9d00aabc:	00002810 	mfhi	a1
9d00aac0:	70643002 	mul	a2,v1,a0
9d00aac4:	00051c00 	sll	v1,a1,0x10
9d00aac8:	00022c02 	srl	a1,v0,0x10
9d00aacc:	00651825 	or	v1,v1,a1
9d00aad0:	0066282b 	sltu	a1,v1,a2
9d00aad4:	50a00008 	beqzl	a1,9d00aaf8 <__umoddi3+0x8c>
9d00aad8:	00661823 	subu	v1,v1,a2
9d00aadc:	00691821 	addu	v1,v1,t1
9d00aae0:	0069282b 	sltu	a1,v1,t1
9d00aae4:	14a00003 	bnez	a1,9d00aaf4 <__umoddi3+0x88>
9d00aae8:	0066282b 	sltu	a1,v1,a2
9d00aaec:	54a00001 	bnezl	a1,9d00aaf4 <__umoddi3+0x88>
9d00aaf0:	00691821 	addu	v1,v1,t1
9d00aaf4:	00661823 	subu	v1,v1,a2
9d00aaf8:	006b001b 	divu	zero,v1,t3
9d00aafc:	016001f4 	teq	t3,zero,0x7
9d00ab00:	3042ffff 	andi	v0,v0,0xffff
9d00ab04:	00003010 	mfhi	a2
9d00ab08:	00001812 	mflo	v1
9d00ab0c:	70645802 	mul	t3,v1,a0
9d00ab10:	00061c00 	sll	v1,a2,0x10
9d00ab14:	00621025 	or	v0,v1,v0
9d00ab18:	004b182b 	sltu	v1,v0,t3
9d00ab1c:	50600009 	beqzl	v1,9d00ab44 <__umoddi3+0xd8>
9d00ab20:	004b1023 	subu	v0,v0,t3
9d00ab24:	00491021 	addu	v0,v0,t1
9d00ab28:	0049182b 	sltu	v1,v0,t1
9d00ab2c:	54600005 	bnezl	v1,9d00ab44 <__umoddi3+0xd8>
9d00ab30:	004b1023 	subu	v0,v0,t3
9d00ab34:	004b182b 	sltu	v1,v0,t3
9d00ab38:	54600001 	bnezl	v1,9d00ab40 <__umoddi3+0xd4>
9d00ab3c:	00491021 	addu	v0,v0,t1
9d00ab40:	004b1023 	subu	v0,v0,t3
9d00ab44:	01421006 	srlv	v0,v0,t2
9d00ab48:	03e00008 	jr	ra
9d00ab4c:	00001825 	move	v1,zero
9d00ab50:	15200004 	bnez	t1,9d00ab64 <__umoddi3+0xf8>
9d00ab54:	24030001 	li	v1,1
9d00ab58:	0069001b 	divu	zero,v1,t1
9d00ab5c:	012001f4 	teq	t1,zero,0x7
9d00ab60:	00004812 	mflo	t1
9d00ab64:	712a5020 	clz	t2,t1
9d00ab68:	1540001f 	bnez	t2,9d00abe8 <__umoddi3+0x17c>
9d00ab6c:	24070020 	li	a3,32
9d00ab70:	00a92823 	subu	a1,a1,t1
9d00ab74:	00095c02 	srl	t3,t1,0x10
9d00ab78:	00ab001b 	divu	zero,a1,t3
9d00ab7c:	016001f4 	teq	t3,zero,0x7
9d00ab80:	3124ffff 	andi	a0,t1,0xffff
9d00ab84:	00002812 	mflo	a1
9d00ab88:	00001810 	mfhi	v1
9d00ab8c:	70a43002 	mul	a2,a1,a0
9d00ab90:	00032c00 	sll	a1,v1,0x10
9d00ab94:	00021c02 	srl	v1,v0,0x10
9d00ab98:	00a32825 	or	a1,a1,v1
9d00ab9c:	00a6182b 	sltu	v1,a1,a2
9d00aba0:	50600008 	beqzl	v1,9d00abc4 <__umoddi3+0x158>
9d00aba4:	00a63023 	subu	a2,a1,a2
9d00aba8:	00a92821 	addu	a1,a1,t1
9d00abac:	00a9182b 	sltu	v1,a1,t1
9d00abb0:	14600003 	bnez	v1,9d00abc0 <__umoddi3+0x154>
9d00abb4:	00a6182b 	sltu	v1,a1,a2
9d00abb8:	54600001 	bnezl	v1,9d00abc0 <__umoddi3+0x154>
9d00abbc:	00a92821 	addu	a1,a1,t1
9d00abc0:	00a63023 	subu	a2,a1,a2
9d00abc4:	00cb001b 	divu	zero,a2,t3
9d00abc8:	016001f4 	teq	t3,zero,0x7
9d00abcc:	3042ffff 	andi	v0,v0,0xffff
9d00abd0:	00002810 	mfhi	a1
9d00abd4:	00003012 	mflo	a2
9d00abd8:	70c45802 	mul	t3,a2,a0
9d00abdc:	00053400 	sll	a2,a1,0x10
9d00abe0:	1000ffcd 	b	9d00ab18 <__umoddi3+0xac>
9d00abe4:	00c21025 	or	v0,a2,v0
9d00abe8:	00ea3823 	subu	a3,a3,t2
9d00abec:	01494804 	sllv	t1,t1,t2
9d00abf0:	00e41806 	srlv	v1,a0,a3
9d00abf4:	00093402 	srl	a2,t1,0x10
9d00abf8:	00e53806 	srlv	a3,a1,a3
9d00abfc:	00e6001b 	divu	zero,a3,a2
9d00ac00:	00c001f4 	teq	a2,zero,0x7
9d00ac04:	01451004 	sllv	v0,a1,t2
9d00ac08:	3128ffff 	andi	t0,t1,0xffff
9d00ac0c:	00621825 	or	v1,v1,v0
9d00ac10:	00032c02 	srl	a1,v1,0x10
9d00ac14:	00003812 	mflo	a3
9d00ac18:	00006010 	mfhi	t4
9d00ac1c:	70e81002 	mul	v0,a3,t0
9d00ac20:	000c3c00 	sll	a3,t4,0x10
9d00ac24:	00e53825 	or	a3,a3,a1
9d00ac28:	00e2282b 	sltu	a1,a3,v0
9d00ac2c:	50a00008 	beqzl	a1,9d00ac50 <__umoddi3+0x1e4>
9d00ac30:	00e23823 	subu	a3,a3,v0
9d00ac34:	00e93821 	addu	a3,a3,t1
9d00ac38:	00e9282b 	sltu	a1,a3,t1
9d00ac3c:	14a00003 	bnez	a1,9d00ac4c <__umoddi3+0x1e0>
9d00ac40:	00e2282b 	sltu	a1,a3,v0
9d00ac44:	54a00001 	bnezl	a1,9d00ac4c <__umoddi3+0x1e0>
9d00ac48:	00e93821 	addu	a3,a3,t1
9d00ac4c:	00e23823 	subu	a3,a3,v0
9d00ac50:	00e6001b 	divu	zero,a3,a2
9d00ac54:	00c001f4 	teq	a2,zero,0x7
9d00ac58:	3065ffff 	andi	a1,v1,0xffff
9d00ac5c:	00003012 	mflo	a2
9d00ac60:	00003810 	mfhi	a3
9d00ac64:	00073c00 	sll	a3,a3,0x10
9d00ac68:	00e52825 	or	a1,a3,a1
9d00ac6c:	70c83002 	mul	a2,a2,t0
9d00ac70:	00a6102b 	sltu	v0,a1,a2
9d00ac74:	10400009 	beqz	v0,9d00ac9c <__umoddi3+0x230>
9d00ac78:	01441004 	sllv	v0,a0,t2
9d00ac7c:	00a92821 	addu	a1,a1,t1
9d00ac80:	00a9102b 	sltu	v0,a1,t1
9d00ac84:	14400005 	bnez	v0,9d00ac9c <__umoddi3+0x230>
9d00ac88:	01441004 	sllv	v0,a0,t2
9d00ac8c:	00a6102b 	sltu	v0,a1,a2
9d00ac90:	54400001 	bnezl	v0,9d00ac98 <__umoddi3+0x22c>
9d00ac94:	00a92821 	addu	a1,a1,t1
9d00ac98:	01441004 	sllv	v0,a0,t2
9d00ac9c:	1000ffb5 	b	9d00ab74 <__umoddi3+0x108>
9d00aca0:	00a62823 	subu	a1,a1,a2
9d00aca4:	00a7402b 	sltu	t0,a1,a3
9d00aca8:	1500005c 	bnez	t0,9d00ae1c <__umoddi3+0x3b0>
9d00acac:	70ee7020 	clz	t6,a3
9d00acb0:	15c0000a 	bnez	t6,9d00acdc <__umoddi3+0x270>
9d00acb4:	00e5402b 	sltu	t0,a3,a1
9d00acb8:	15000003 	bnez	t0,9d00acc8 <__umoddi3+0x25c>
9d00acbc:	0086402b 	sltu	t0,a0,a2
9d00acc0:	15000056 	bnez	t0,9d00ae1c <__umoddi3+0x3b0>
9d00acc4:	00000000 	nop
9d00acc8:	00861023 	subu	v0,a0,a2
9d00accc:	00a72823 	subu	a1,a1,a3
9d00acd0:	0082182b 	sltu	v1,a0,v0
9d00acd4:	03e00008 	jr	ra
9d00acd8:	00a31823 	subu	v1,a1,v1
9d00acdc:	240b0020 	li	t3,32
9d00ace0:	016e5823 	subu	t3,t3,t6
9d00ace4:	01666006 	srlv	t4,a2,t3
9d00ace8:	01c73804 	sllv	a3,a3,t6
9d00acec:	01873825 	or	a3,t4,a3
9d00acf0:	01c54004 	sllv	t0,a1,t6
9d00acf4:	00074c02 	srl	t1,a3,0x10
9d00acf8:	01652806 	srlv	a1,a1,t3
9d00acfc:	00a9001b 	divu	zero,a1,t1
9d00ad00:	012001f4 	teq	t1,zero,0x7
9d00ad04:	01641006 	srlv	v0,a0,t3
9d00ad08:	00481025 	or	v0,v0,t0
9d00ad0c:	30e8ffff 	andi	t0,a3,0xffff
9d00ad10:	00026402 	srl	t4,v0,0x10
9d00ad14:	00002812 	mflo	a1
9d00ad18:	00005010 	mfhi	t2
9d00ad1c:	000a5400 	sll	t2,t2,0x10
9d00ad20:	014c5025 	or	t2,t2,t4
9d00ad24:	71051802 	mul	v1,t0,a1
9d00ad28:	0143602b 	sltu	t4,t2,v1
9d00ad2c:	1180000a 	beqz	t4,9d00ad58 <__umoddi3+0x2ec>
9d00ad30:	00a06825 	move	t5,a1
9d00ad34:	01475021 	addu	t2,t2,a3
9d00ad38:	0147602b 	sltu	t4,t2,a3
9d00ad3c:	15800006 	bnez	t4,9d00ad58 <__umoddi3+0x2ec>
9d00ad40:	24adffff 	addiu	t5,a1,-1
9d00ad44:	0143602b 	sltu	t4,t2,v1
9d00ad48:	51800004 	beqzl	t4,9d00ad5c <__umoddi3+0x2f0>
9d00ad4c:	01435023 	subu	t2,t2,v1
9d00ad50:	24adfffe 	addiu	t5,a1,-2
9d00ad54:	01475021 	addu	t2,t2,a3
9d00ad58:	01435023 	subu	t2,t2,v1
9d00ad5c:	0149001b 	divu	zero,t2,t1
9d00ad60:	012001f4 	teq	t1,zero,0x7
9d00ad64:	00004812 	mflo	t1
9d00ad68:	00005010 	mfhi	t2
9d00ad6c:	000a5400 	sll	t2,t2,0x10
9d00ad70:	71092802 	mul	a1,t0,t1
9d00ad74:	3048ffff 	andi	t0,v0,0xffff
9d00ad78:	01484025 	or	t0,t2,t0
9d00ad7c:	0105102b 	sltu	v0,t0,a1
9d00ad80:	1040000a 	beqz	v0,9d00adac <__umoddi3+0x340>
9d00ad84:	01205025 	move	t2,t1
9d00ad88:	01074021 	addu	t0,t0,a3
9d00ad8c:	0107102b 	sltu	v0,t0,a3
9d00ad90:	14400006 	bnez	v0,9d00adac <__umoddi3+0x340>
9d00ad94:	252affff 	addiu	t2,t1,-1
9d00ad98:	0105102b 	sltu	v0,t0,a1
9d00ad9c:	10400004 	beqz	v0,9d00adb0 <__umoddi3+0x344>
9d00ada0:	000d6400 	sll	t4,t5,0x10
9d00ada4:	252afffe 	addiu	t2,t1,-2
9d00ada8:	01074021 	addu	t0,t0,a3
9d00adac:	000d6400 	sll	t4,t5,0x10
9d00adb0:	01c61004 	sllv	v0,a2,t6
9d00adb4:	018a6025 	or	t4,t4,t2
9d00adb8:	01820019 	multu	t4,v0
9d00adbc:	01054023 	subu	t0,t0,a1
9d00adc0:	01c41804 	sllv	v1,a0,t6
9d00adc4:	00006810 	mfhi	t5
9d00adc8:	010d202b 	sltu	a0,t0,t5
9d00adcc:	01a02825 	move	a1,t5
9d00add0:	00006012 	mflo	t4
9d00add4:	14800005 	bnez	a0,9d00adec <__umoddi3+0x380>
9d00add8:	00003012 	mflo	a2
9d00addc:	150d0007 	bne	t0,t5,9d00adfc <__umoddi3+0x390>
9d00ade0:	006c202b 	sltu	a0,v1,t4
9d00ade4:	10800006 	beqz	a0,9d00ae00 <__umoddi3+0x394>
9d00ade8:	00663023 	subu	a2,v1,a2
9d00adec:	01823023 	subu	a2,t4,v0
9d00adf0:	01a73823 	subu	a3,t5,a3
9d00adf4:	0186602b 	sltu	t4,t4,a2
9d00adf8:	00ec2823 	subu	a1,a3,t4
9d00adfc:	00663023 	subu	a2,v1,a2
9d00ae00:	0066182b 	sltu	v1,v1,a2
9d00ae04:	01054023 	subu	t0,t0,a1
9d00ae08:	01031823 	subu	v1,t0,v1
9d00ae0c:	01631004 	sllv	v0,v1,t3
9d00ae10:	01c63006 	srlv	a2,a2,t6
9d00ae14:	00461025 	or	v0,v0,a2
9d00ae18:	01c31806 	srlv	v1,v1,t6
9d00ae1c:	03e00008 	jr	ra
9d00ae20:	00000000 	nop

Disassembly of section .text:

9d00ae24 <icontroller>:
#include "icontrol.h"

void __ISR(_TIMER_2_VECTOR, IPL5SOFT) icontroller(void){  // _TIMER_2_VECTOR = 8
9d00ae24:	415de800 	rdpgpr	sp,sp
9d00ae28:	401a7000 	mfc0	k0,c0_epc
9d00ae2c:	401b6000 	mfc0	k1,c0_status
9d00ae30:	27bdff78 	addiu	sp,sp,-136
9d00ae34:	afba0084 	sw	k0,132(sp)
9d00ae38:	401a6002 	mfc0	k0,c0_srsctl
9d00ae3c:	afbb0080 	sw	k1,128(sp)
9d00ae40:	afba007c 	sw	k0,124(sp)
9d00ae44:	7c1b7844 	ins	k1,zero,0x1,0xf
9d00ae48:	377b1400 	ori	k1,k1,0x1400
9d00ae4c:	409b6000 	mtc0	k1,c0_status
9d00ae50:	afbf006c 	sw	ra,108(sp)
9d00ae54:	afbe0068 	sw	s8,104(sp)
9d00ae58:	afb90064 	sw	t9,100(sp)
9d00ae5c:	afb80060 	sw	t8,96(sp)
9d00ae60:	afb3005c 	sw	s3,92(sp)
9d00ae64:	afb20058 	sw	s2,88(sp)
9d00ae68:	afb10054 	sw	s1,84(sp)
9d00ae6c:	afb00050 	sw	s0,80(sp)
9d00ae70:	afaf004c 	sw	t7,76(sp)
9d00ae74:	afae0048 	sw	t6,72(sp)
9d00ae78:	afad0044 	sw	t5,68(sp)
9d00ae7c:	afac0040 	sw	t4,64(sp)
9d00ae80:	afab003c 	sw	t3,60(sp)
9d00ae84:	afaa0038 	sw	t2,56(sp)
9d00ae88:	afa90034 	sw	t1,52(sp)
9d00ae8c:	afa80030 	sw	t0,48(sp)
9d00ae90:	afa7002c 	sw	a3,44(sp)
9d00ae94:	afa60028 	sw	a2,40(sp)
9d00ae98:	afa50024 	sw	a1,36(sp)
9d00ae9c:	afa40020 	sw	a0,32(sp)
9d00aea0:	afa3001c 	sw	v1,28(sp)
9d00aea4:	afa20018 	sw	v0,24(sp)
9d00aea8:	afa10014 	sw	at,20(sp)
9d00aeac:	00001012 	mflo	v0
9d00aeb0:	afa20074 	sw	v0,116(sp)
9d00aeb4:	00001810 	mfhi	v1
9d00aeb8:	afa30070 	sw	v1,112(sp)
9d00aebc:	03a0f025 	move	s8,sp
    int d;
    int dirxn;
    
    if (get_mode() == PWM) {
9d00aec0:	0f403ebb 	jal	9d00faec <get_mode>
9d00aec4:	00000000 	nop
9d00aec8:	24030001 	li	v1,1
9d00aecc:	1443004d 	bne	v0,v1,9d00b004 <icontroller+0x1e0>
9d00aed0:	00000000 	nop
        d = get_PWM();
9d00aed4:	0f403eca 	jal	9d00fb28 <get_PWM>
9d00aed8:	00000000 	nop
        dirxn = get_dir();     
9d00aedc:	0f403ec7 	jal	9d00fb1c <get_dir>
9d00aee0:	00408025 	move	s0,v0
9d00aee4:	00409025 	move	s2,v0
    }
    else if (get_mode() == ITEST) {
        ;
    }
    
    OC1RS = (unsigned int) ((d/100.0) * PR3); // set duty based on PWM
9d00aee8:	3c02bf80 	lui	v0,0xbf80
9d00aeec:	8c530a20 	lw	s3,2592(v0)
9d00aef0:	0f403c5a 	jal	9d00f168 <__floatsidf>
9d00aef4:	02002025 	move	a0,s0
9d00aef8:	3c049d00 	lui	a0,0x9d00
9d00aefc:	8c8674c0 	lw	a2,29888(a0)
9d00af00:	8c8774c4 	lw	a3,29892(a0)
9d00af04:	00402025 	move	a0,v0
9d00af08:	0f402666 	jal	9d009998 <__divdf3>
9d00af0c:	00602825 	move	a1,v1
9d00af10:	00408025 	move	s0,v0
9d00af14:	00608825 	move	s1,v1
9d00af18:	0f403f49 	jal	9d00fd24 <__floatunsidf>
9d00af1c:	02602025 	move	a0,s3
9d00af20:	00403025 	move	a2,v0
9d00af24:	00603825 	move	a3,v1
9d00af28:	02002025 	move	a0,s0
9d00af2c:	0f402c54 	jal	9d00b150 <__muldf3>
9d00af30:	02202825 	move	a1,s1
9d00af34:	00402025 	move	a0,v0
9d00af38:	0f403b75 	jal	9d00edd4 <__fixunsdfsi>
9d00af3c:	00602825 	move	a1,v1
9d00af40:	3c10bf80 	lui	s0,0xbf80
9d00af44:	ae023020 	sw	v0,12320(s0)
    LATAbits.LATA1 = dirxn; // set direction pin
9d00af48:	3c10bf88 	lui	s0,0xbf88
9d00af4c:	92116030 	lbu	s1,24624(s0)
9d00af50:	7e510844 	ins	s1,s2,0x1,0x1
9d00af54:	a2116030 	sb	s1,24624(s0)
    IFS0bits.T2IF = 0; // clear interrupt flag
9d00af58:	3c10bf88 	lui	s0,0xbf88
9d00af5c:	8e111030 	lw	s1,4144(s0)
9d00af60:	7c114a44 	ins	s1,zero,0x9,0x1
9d00af64:	ae111030 	sw	s1,4144(s0)
}
9d00af68:	03c0e825 	move	sp,s8
9d00af6c:	8fa20074 	lw	v0,116(sp)
9d00af70:	00400013 	mtlo	v0
9d00af74:	8fa30070 	lw	v1,112(sp)
9d00af78:	00600011 	mthi	v1
9d00af7c:	8fbf006c 	lw	ra,108(sp)
9d00af80:	8fbe0068 	lw	s8,104(sp)
9d00af84:	8fb90064 	lw	t9,100(sp)
9d00af88:	8fb80060 	lw	t8,96(sp)
9d00af8c:	8fb3005c 	lw	s3,92(sp)
9d00af90:	8fb20058 	lw	s2,88(sp)
9d00af94:	8fb10054 	lw	s1,84(sp)
9d00af98:	8fb00050 	lw	s0,80(sp)
9d00af9c:	8faf004c 	lw	t7,76(sp)
9d00afa0:	8fae0048 	lw	t6,72(sp)
9d00afa4:	8fad0044 	lw	t5,68(sp)
9d00afa8:	8fac0040 	lw	t4,64(sp)
9d00afac:	8fab003c 	lw	t3,60(sp)
9d00afb0:	8faa0038 	lw	t2,56(sp)
9d00afb4:	8fa90034 	lw	t1,52(sp)
9d00afb8:	8fa80030 	lw	t0,48(sp)
9d00afbc:	8fa7002c 	lw	a3,44(sp)
9d00afc0:	8fa60028 	lw	a2,40(sp)
9d00afc4:	8fa50024 	lw	a1,36(sp)
9d00afc8:	8fa40020 	lw	a0,32(sp)
9d00afcc:	8fa3001c 	lw	v1,28(sp)
9d00afd0:	8fa20018 	lw	v0,24(sp)
9d00afd4:	8fa10014 	lw	at,20(sp)
9d00afd8:	41606000 	di
9d00afdc:	000000c0 	ehb
9d00afe0:	8fba0084 	lw	k0,132(sp)
9d00afe4:	8fbb0080 	lw	k1,128(sp)
9d00afe8:	409a7000 	mtc0	k0,c0_epc
9d00afec:	8fba007c 	lw	k0,124(sp)
9d00aff0:	27bd0088 	addiu	sp,sp,136
9d00aff4:	409a6002 	mtc0	k0,c0_srsctl
9d00aff8:	41dde800 	wrpgpr	sp,sp
9d00affc:	409b6000 	mtc0	k1,c0_status
9d00b000:	42000018 	eret
    else if (get_mode() == IDLE) {
9d00b004:	0f403ebb 	jal	9d00faec <get_mode>
9d00b008:	00009025 	move	s2,zero
9d00b00c:	1040ffb6 	beqz	v0,9d00aee8 <icontroller+0xc4>
9d00b010:	00008025 	move	s0,zero
    else if (get_mode() == ITEST) {
9d00b014:	0f403ebb 	jal	9d00faec <get_mode>
9d00b018:	00000000 	nop
9d00b01c:	1000ffb3 	b	9d00aeec <icontroller+0xc8>
9d00b020:	3c02bf80 	lui	v0,0xbf80

9d00b024 <icontrolstartup>:

void icontrolstartup(){
9d00b024:	27bdfff0 	addiu	sp,sp,-16
9d00b028:	afbf000c 	sw	ra,12(sp)

    RPA0Rbits.RPA0R = 0b0101; // use pin A0 for OC1
9d00b02c:	3c02bf81 	lui	v0,0xbf81
9d00b030:	9043fb00 	lbu	v1,-1280(v0)
9d00b034:	24050005 	li	a1,5
9d00b038:	7ca31804 	ins	v1,a1,0x0,0x4
9d00b03c:	a043fb00 	sb	v1,-1280(v0)
    volatile int duty = 25;
9d00b040:	24020019 	li	v0,25
9d00b044:	afa20000 	sw	v0,0(sp)
    volatile int dir = 0;
9d00b048:	afa00004 	sw	zero,4(sp)
    TRISAbits.TRISA1 = 0; // configure pin A1 to output dirxn
9d00b04c:	3c02bf88 	lui	v0,0xbf88
9d00b050:	90436010 	lbu	v1,24592(v0)
9d00b054:	7c030844 	ins	v1,zero,0x1,0x1
9d00b058:	a0436010 	sb	v1,24592(v0)
    
    /* 20 kHz PWM, Timer3, duty cycle 75% */
    __builtin_disable_interrupts(); // INT step 2: disable interrupts at CPU
9d00b05c:	41626000 	di	v0
9d00b060:	000000c0 	ehb
    T3CONbits.TCKPS = 0;    // Timer3 prescaler N=1 (1:1)
9d00b064:	3c04bf80 	lui	a0,0xbf80
9d00b068:	94820a00 	lhu	v0,2560(a0)
9d00b06c:	7c023104 	ins	v0,zero,0x4,0x3
9d00b070:	a4820a00 	sh	v0,2560(a0)
    PR3 = 2400 - 1;         // PR = PBCLK(48MHz)/20KHz(Desired PWM)-1
9d00b074:	3c02bf80 	lui	v0,0xbf80
9d00b078:	2403095f 	li	v1,2399
9d00b07c:	ac430a20 	sw	v1,2592(v0)
    TMR3 = 0;               // initial TMR3 count is 0
9d00b080:	3c02bf80 	lui	v0,0xbf80
9d00b084:	ac400a10 	sw	zero,2576(v0)
    OC1CONbits.OCTSEL = 1; // chooses TMR3 for OC1 
9d00b088:	3c02bf80 	lui	v0,0xbf80
9d00b08c:	94463000 	lhu	a2,12288(v0)
9d00b090:	24030001 	li	v1,1
9d00b094:	7c6618c4 	ins	a2,v1,0x3,0x1
9d00b098:	a4463000 	sh	a2,12288(v0)
    OC1CONbits.OCM = 0b110; // PWM mode without fault pin; other OC1CON bits are defaults
9d00b09c:	94463000 	lhu	a2,12288(v0)
9d00b0a0:	24070006 	li	a3,6
9d00b0a4:	7ce61004 	ins	a2,a3,0x0,0x3
9d00b0a8:	a4463000 	sh	a2,12288(v0)
    OC1RS = 0;              // duty cycle = OC1RS/(PR3+1) = 75%
9d00b0ac:	3c06bf80 	lui	a2,0xbf80
9d00b0b0:	acc03020 	sw	zero,12320(a2)
    OC1R = 0;               // initialize before turning OC1 on; afterward it is read-only
9d00b0b4:	3c06bf80 	lui	a2,0xbf80
9d00b0b8:	acc03010 	sw	zero,12304(a2)
    T3CONbits.ON = 1;       // turn on Timer3
9d00b0bc:	94860a00 	lhu	a2,2560(a0)
9d00b0c0:	7c667bc4 	ins	a2,v1,0xf,0x1
9d00b0c4:	a4860a00 	sh	a2,2560(a0)
    OC1CONbits.ON = 1;      // turn on OC1
9d00b0c8:	94443000 	lhu	a0,12288(v0)
9d00b0cc:	7c647bc4 	ins	a0,v1,0xf,0x1
9d00b0d0:	a4443000 	sh	a0,12288(v0)

    // 5 Khz TMR2 ISR
    PR2 = 9600 - 1;                // set period register
9d00b0d4:	3c02bf80 	lui	v0,0xbf80
9d00b0d8:	2404257f 	li	a0,9599
9d00b0dc:	ac440820 	sw	a0,2080(v0)
    TMR2 = 0;                       // initialize count to 0
9d00b0e0:	3c02bf80 	lui	v0,0xbf80
9d00b0e4:	ac400810 	sw	zero,2064(v0)
    T2CONbits.TCKPS = 0;            // set prescaler to 1
9d00b0e8:	3c02bf80 	lui	v0,0xbf80
9d00b0ec:	94440800 	lhu	a0,2048(v0)
9d00b0f0:	7c043104 	ins	a0,zero,0x4,0x3
9d00b0f4:	a4440800 	sh	a0,2048(v0)
    T2CONbits.ON = 1;               // turn on Timer2
9d00b0f8:	94440800 	lhu	a0,2048(v0)
9d00b0fc:	7c647bc4 	ins	a0,v1,0xf,0x1
9d00b100:	a4440800 	sh	a0,2048(v0)
    IPC2bits.T2IP = 5;              // INT step 4: priority
9d00b104:	3c02bf88 	lui	v0,0xbf88
9d00b108:	8c4410b0 	lw	a0,4272(v0)
9d00b10c:	7ca42084 	ins	a0,a1,0x2,0x3
9d00b110:	ac4410b0 	sw	a0,4272(v0)
    IPC2bits.T2IS = 0;              // subpriority
9d00b114:	8c4410b0 	lw	a0,4272(v0)
9d00b118:	7c040804 	ins	a0,zero,0x0,0x2
9d00b11c:	ac4410b0 	sw	a0,4272(v0)
    IFS0bits.T2IF = 0;              // INT step 5: clear interrupt flag
9d00b120:	3c02bf88 	lui	v0,0xbf88
9d00b124:	8c441030 	lw	a0,4144(v0)
9d00b128:	7c044a44 	ins	a0,zero,0x9,0x1
9d00b12c:	ac441030 	sw	a0,4144(v0)
    IEC0bits.T2IE = 1;              // INT step 6: enable interrupt
9d00b130:	3c02bf88 	lui	v0,0xbf88
9d00b134:	8c441060 	lw	a0,4192(v0)
9d00b138:	7c644a44 	ins	a0,v1,0x9,0x1
9d00b13c:	ac441060 	sw	a0,4192(v0)
    __builtin_enable_interrupts();  // INT step 7: enable interrupts at CPU
9d00b140:	41626020 	ei	v0
    // end of initialize interrupt for waveform
}
9d00b144:	8fbf000c 	lw	ra,12(sp)
9d00b148:	03e00008 	jr	ra
9d00b14c:	27bd0010 	addiu	sp,sp,16

Disassembly of section .text.dp32mul:

9d00b150 <__muldf3>:
9d00b150:	00055040 000a5542 00054ac0 00047d42     @P..BU...J..B}..
9d00b160:	012f4825 000442c0 3c0e8000 012e4825     %H/..B.....<%H..
9d00b170:	00076840 000d6d42 000762c0 00067d42     @h..Bm...b..B}..
9d00b180:	018f6025 00065ac0 018e6025 00a72826     %`...Z..%`..&(..
9d00b190:	00ae2824 254fffff 2de107fe 10200047     $(....O%...-G. .
9d00b1a0:	00000000                                ....

9d00b1a4 <Clab1>:
9d00b1a4:	25afffff 	addiu	t7,t5,-1
9d00b1a8:	2de107fe 	sltiu	at,t7,2046
9d00b1ac:	1020006f 	beqz	at,9d00b36c <CspecB>
9d00b1b0:	00000000 	nop

9d00b1b4 <Clab2>:
9d00b1b4:	25affc02 	addiu	t7,t5,-1022
9d00b1b8:	014f5021 	addu	t2,t2,t7
9d00b1bc:	012c0019 	multu	t1,t4
9d00b1c0:	00003812 	mflo	a3
9d00b1c4:	00007010 	mfhi	t6
9d00b1c8:	010b0019 	multu	t0,t3
9d00b1cc:	00002012 	mflo	a0
9d00b1d0:	00003010 	mfhi	a2
9d00b1d4:	012b0019 	multu	t1,t3
9d00b1d8:	00005812 	mflo	t3
9d00b1dc:	00006810 	mfhi	t5
9d00b1e0:	00cb3021 	addu	a2,a2,t3
9d00b1e4:	00cb782b 	sltu	t7,a2,t3
9d00b1e8:	00ed3821 	addu	a3,a3,t5
9d00b1ec:	00ef3821 	addu	a3,a3,t7
9d00b1f0:	10ed0002 	beq	a3,t5,9d00b1fc <L20>
9d00b1f4:	00000000 	nop
9d00b1f8:	00ed782b 	sltu	t7,a3,t5

9d00b1fc <L20>:
9d00b1fc:	01cf7021 	addu	t6,t6,t7
9d00b200:	010c0019 	multu	t0,t4
9d00b204:	00004012 	mflo	t0
9d00b208:	00004810 	mfhi	t1
9d00b20c:	00c83021 	addu	a2,a2,t0
9d00b210:	00c8782b 	sltu	t7,a2,t0
9d00b214:	00e93821 	addu	a3,a3,t1
9d00b218:	00ef3821 	addu	a3,a3,t7
9d00b21c:	10e90002 	beq	a3,t1,9d00b228 <L21>
9d00b220:	00000000 	nop
9d00b224:	00e9782b 	sltu	t7,a3,t1

9d00b228 <L21>:
9d00b228:	01cf7021 	addu	t6,t6,t7
9d00b22c:	00867825 	or	t7,a0,a2
9d00b230:	11e00002 	beqz	t7,9d00b23c <i13>
9d00b234:	00000000 	nop
9d00b238:	34e70001 	ori	a3,a3,0x1

9d00b23c <i13>:
9d00b23c:	000e4825 	or	t1,zero,t6
9d00b240:	05200006 	bltz	t1,9d00b25c <i14>
9d00b244:	00074025 	or	t0,zero,a3
9d00b248:	0100782a 	slt	t7,t0,zero
9d00b24c:	01084021 	addu	t0,t0,t0
9d00b250:	01294821 	addu	t1,t1,t1
9d00b254:	012f4821 	addu	t1,t1,t7
9d00b258:	254affff 	addiu	t2,t2,-1

9d00b25c <i14>:
9d00b25c:	254fffff 	addiu	t7,t2,-1
9d00b260:	2de107fe 	sltiu	at,t7,2046
9d00b264:	10200068 	beqz	at,9d00b408 <Coveund>
9d00b268:	00000000 	nop
9d00b26c:	25080400 	addiu	t0,t0,1024
9d00b270:	2d0f0400 	sltiu	t7,t0,1024
9d00b274:	012f4821 	addu	t1,t1,t7
9d00b278:	012f782b 	sltu	t7,t1,t7
9d00b27c:	014f5021 	addu	t2,t2,t7

9d00b280 <Clab8>:
9d00b280:	00087ac2 	srl	t7,t0,0xb
9d00b284:	31ef0001 	andi	t7,t7,0x1
9d00b288:	010f4023 	subu	t0,t0,t7
9d00b28c:	000822c2 	srl	a0,t0,0xb
9d00b290:	00097d40 	sll	t7,t1,0x15
9d00b294:	008f2025 	or	a0,a0,t7
9d00b298:	00097840 	sll	t7,t1,0x1
9d00b29c:	000f7b02 	srl	t7,t7,0xc
9d00b2a0:	00af2825 	or	a1,a1,t7
9d00b2a4:	000a7d00 	sll	t7,t2,0x14
9d00b2a8:	00af2825 	or	a1,a1,t7

9d00b2ac <Cret>:
9d00b2ac:	00041025 	or	v0,zero,a0
9d00b2b0:	00051825 	or	v1,zero,a1

9d00b2b4 <C999>:
9d00b2b4:	03e00008 	jr	ra
9d00b2b8:	00000000 	nop

9d00b2bc <CspecA>:
9d00b2bc:	0100782a 	slt	t7,t0,zero
9d00b2c0:	01084021 	addu	t0,t0,t0
9d00b2c4:	01294821 	addu	t1,t1,t1
9d00b2c8:	1540001c 	bnez	t2,9d00b33c <i15>
9d00b2cc:	012f4821 	addu	t1,t1,t7
9d00b2d0:	01287825 	or	t7,t1,t0
9d00b2d4:	11e00014 	beqz	t7,9d00b328 <i16>
9d00b2d8:	00000000 	nop
9d00b2dc:	15200008 	bnez	t1,9d00b300 <L22>
9d00b2e0:	00000000 	nop
9d00b2e4:	15000003 	bnez	t0,9d00b2f4 <L23>
9d00b2e8:	00000000 	nop
9d00b2ec:	1000ffad 	b	9d00b1a4 <Clab1>
9d00b2f0:	240a0000 	li	t2,0

9d00b2f4 <L23>:
9d00b2f4:	01004825 	move	t1,t0
9d00b2f8:	24080000 	li	t0,0
9d00b2fc:	254affe0 	addiu	t2,t2,-32

9d00b300 <L22>:
9d00b300:	712e7020 	clz	t6,t1
9d00b304:	11c0ffa7 	beqz	t6,9d00b1a4 <Clab1>
9d00b308:	00000000 	nop
9d00b30c:	014e5023 	subu	t2,t2,t6
9d00b310:	000e3822 	neg	a3,t6
9d00b314:	00e83806 	srlv	a3,t0,a3
9d00b318:	01c84004 	sllv	t0,t0,t6
9d00b31c:	01c94804 	sllv	t1,t1,t6
9d00b320:	1000ffa0 	b	9d00b1a4 <Clab1>
9d00b324:	01274825 	or	t1,t1,a3

9d00b328 <i16>:
9d00b328:	240107ff 	li	at,2047
9d00b32c:	11a10033 	beq	t5,at,9d00b3fc <Cnan>
9d00b330:	00000000 	nop
9d00b334:	1000ffdd 	b	9d00b2ac <Cret>
9d00b338:	00000000 	nop

9d00b33c <i15>:
9d00b33c:	01287825 	or	t7,t1,t0
9d00b340:	15e0002e 	bnez	t7,9d00b3fc <Cnan>
9d00b344:	00000000 	nop
9d00b348:	15a00005 	bnez	t5,9d00b360 <i17>
9d00b34c:	00000000 	nop
9d00b350:	000c7840 	sll	t7,t4,0x1
9d00b354:	01eb7825 	or	t7,t7,t3
9d00b358:	11e00028 	beqz	t7,9d00b3fc <Cnan>
9d00b35c:	00000000 	nop

9d00b360 <i17>:
9d00b360:	240107ff 	li	at,2047
9d00b364:	15a10021 	bne	t5,at,9d00b3ec <Cinf>
9d00b368:	00000000 	nop

9d00b36c <CspecB>:
9d00b36c:	0160782a 	slt	t7,t3,zero
9d00b370:	016b5821 	addu	t3,t3,t3
9d00b374:	018c6021 	addu	t4,t4,t4
9d00b378:	15a00019 	bnez	t5,9d00b3e0 <i18>
9d00b37c:	018f6021 	addu	t4,t4,t7
9d00b380:	018b7825 	or	t7,t4,t3
9d00b384:	11e00014 	beqz	t7,9d00b3d8 <i19>
9d00b388:	00000000 	nop
9d00b38c:	15800008 	bnez	t4,9d00b3b0 <L25>
9d00b390:	00000000 	nop
9d00b394:	15600003 	bnez	t3,9d00b3a4 <L26>
9d00b398:	00000000 	nop
9d00b39c:	1000ff85 	b	9d00b1b4 <Clab2>
9d00b3a0:	240d0000 	li	t5,0

9d00b3a4 <L26>:
9d00b3a4:	01606025 	move	t4,t3
9d00b3a8:	240b0000 	li	t3,0
9d00b3ac:	25adffe0 	addiu	t5,t5,-32

9d00b3b0 <L25>:
9d00b3b0:	71863020 	clz	a2,t4
9d00b3b4:	10c0ff7f 	beqz	a2,9d00b1b4 <Clab2>
9d00b3b8:	00000000 	nop
9d00b3bc:	01a66823 	subu	t5,t5,a2
9d00b3c0:	00067022 	neg	t6,a2
9d00b3c4:	01cb7006 	srlv	t6,t3,t6
9d00b3c8:	00cb5804 	sllv	t3,t3,a2
9d00b3cc:	00cc6004 	sllv	t4,t4,a2
9d00b3d0:	1000ff78 	b	9d00b1b4 <Clab2>
9d00b3d4:	018e6025 	or	t4,t4,t6

9d00b3d8 <i19>:
9d00b3d8:	1000ffb4 	b	9d00b2ac <Cret>
9d00b3dc:	24040000 	li	a0,0

9d00b3e0 <i18>:
9d00b3e0:	018b7825 	or	t7,t4,t3
9d00b3e4:	15e00005 	bnez	t7,9d00b3fc <Cnan>
9d00b3e8:	00000000 	nop

9d00b3ec <Cinf>:
9d00b3ec:	3c017ff0 	lui	at,0x7ff0
9d00b3f0:	00a12825 	or	a1,a1,at
9d00b3f4:	1000ffad 	b	9d00b2ac <Cret>
9d00b3f8:	24040000 	li	a0,0

9d00b3fc <Cnan>:
9d00b3fc:	3c05fff8 	lui	a1,0xfff8
9d00b400:	1000ffaa 	b	9d00b2ac <Cret>
9d00b404:	24040000 	li	a0,0

9d00b408 <Coveund>:
9d00b408:	1d40fff8 	bgtz	t2,9d00b3ec <Cinf>
9d00b40c:	00000000 	nop
9d00b410:	240e0001 	li	t6,1
9d00b414:	01ca7023 	subu	t6,t6,t2

9d00b418 <L28>:
9d00b418:	2dc10020 	sltiu	at,t6,32
9d00b41c:	14200007 	bnez	at,9d00b43c <L29>
9d00b420:	00000000 	nop
9d00b424:	21ceffe0 	addi	t6,t6,-32
9d00b428:	0008302b 	sltu	a2,zero,t0
9d00b42c:	1009000d 	beq	zero,t1,9d00b464 <L30>
9d00b430:	01264025 	or	t0,t1,a2
9d00b434:	1000fff8 	b	9d00b418 <L28>
9d00b438:	34090000 	li	t1,0x0

9d00b43c <L29>:
9d00b43c:	11c00009 	beqz	t6,9d00b464 <L30>
9d00b440:	00000000 	nop
9d00b444:	000e3822 	neg	a3,t6
9d00b448:	00e83004 	sllv	a2,t0,a3
9d00b44c:	00e93804 	sllv	a3,t1,a3
9d00b450:	01c84006 	srlv	t0,t0,t6
9d00b454:	01c94806 	srlv	t1,t1,t6
9d00b458:	10c00002 	beqz	a2,9d00b464 <L30>
9d00b45c:	00e84025 	or	t0,a3,t0
9d00b460:	35080002 	ori	t0,t0,0x2

9d00b464 <L30>:
9d00b464:	25080400 	addiu	t0,t0,1024
9d00b468:	2d0f0400 	sltiu	t7,t0,1024
9d00b46c:	012f4821 	addu	t1,t1,t7
9d00b470:	1000ff83 	b	9d00b280 <Clab8>
9d00b474:	000957c2 	srl	t2,t1,0x1f
9d00b478:	00000000 	nop

Disassembly of section .text:

9d00b47c <get_encoder_flag>:
char rx_message[MAX_RX_MESSAGE];
volatile int pos = 0;
volatile int newPosFlag = 0;

int get_encoder_flag(){
    return newPosFlag;
9d00b47c:	8f828014 	lw	v0,-32748(gp)
}
9d00b480:	03e00008 	jr	ra
9d00b484:	00000000 	nop

9d00b488 <set_encoder_flag>:

void set_encoder_flag(int f){
    newPosFlag = f;
9d00b488:	af848014 	sw	a0,-32748(gp)
}
9d00b48c:	03e00008 	jr	ra
9d00b490:	00000000 	nop

9d00b494 <get_encoder_count>:

int get_encoder_count(){
    return pos;
9d00b494:	8f828018 	lw	v0,-32744(gp)
}
9d00b498:	03e00008 	jr	ra
9d00b49c:	00000000 	nop

9d00b4a0 <U2ISR>:

void __ISR(_UART_2_VECTOR, IPL7SOFT) U2ISR(void) { 
9d00b4a0:	415de800 	rdpgpr	sp,sp
9d00b4a4:	401a7000 	mfc0	k0,c0_epc
9d00b4a8:	401b6000 	mfc0	k1,c0_status
9d00b4ac:	27bdff80 	addiu	sp,sp,-128
9d00b4b0:	afbb007c 	sw	k1,124(sp)
9d00b4b4:	7c1b7844 	ins	k1,zero,0x1,0xf
9d00b4b8:	377b1c00 	ori	k1,k1,0x1c00
9d00b4bc:	409b6000 	mtc0	k1,c0_status
9d00b4c0:	afbf0064 	sw	ra,100(sp)
9d00b4c4:	afbe0060 	sw	s8,96(sp)
9d00b4c8:	afb9005c 	sw	t9,92(sp)
9d00b4cc:	afb80058 	sw	t8,88(sp)
9d00b4d0:	afb20054 	sw	s2,84(sp)
9d00b4d4:	afb10050 	sw	s1,80(sp)
9d00b4d8:	afb0004c 	sw	s0,76(sp)
9d00b4dc:	afaf0048 	sw	t7,72(sp)
9d00b4e0:	afae0044 	sw	t6,68(sp)
9d00b4e4:	afad0040 	sw	t5,64(sp)
9d00b4e8:	afac003c 	sw	t4,60(sp)
9d00b4ec:	afab0038 	sw	t3,56(sp)
9d00b4f0:	afaa0034 	sw	t2,52(sp)
9d00b4f4:	afa90030 	sw	t1,48(sp)
9d00b4f8:	afa8002c 	sw	t0,44(sp)
9d00b4fc:	afa70028 	sw	a3,40(sp)
9d00b500:	afa60024 	sw	a2,36(sp)
9d00b504:	afa50020 	sw	a1,32(sp)
9d00b508:	afa4001c 	sw	a0,28(sp)
9d00b50c:	afa30018 	sw	v1,24(sp)
9d00b510:	afa20014 	sw	v0,20(sp)
9d00b514:	afa10010 	sw	at,16(sp)
9d00b518:	00001012 	mflo	v0
9d00b51c:	afa2006c 	sw	v0,108(sp)
9d00b520:	00001810 	mfhi	v1
9d00b524:	afa30068 	sw	v1,104(sp)
9d00b528:	03a0f025 	move	s8,sp
  char data = U2RXREG; // read the data
9d00b52c:	3c10bf80 	lui	s0,0xbf80
9d00b530:	8e106230 	lw	s0,25136(s0)
9d00b534:	7c108420 	seb	s0,s0
  if (data == '\n') {
9d00b538:	2411000a 	li	s1,10
9d00b53c:	16110031 	bne	s0,s1,9d00b604 <U2ISR+0x164>
9d00b540:	00000000 	nop
    rx_message[rx_num_bytes] = '\0';
9d00b544:	8f82801c 	lw	v0,-32740(gp)
9d00b548:	3c04a000 	lui	a0,0xa000
9d00b54c:	2484001c 	addiu	a0,a0,28
9d00b550:	00441021 	addu	v0,v0,a0
9d00b554:	a0400000 	sb	zero,0(v0)
    sscanf(rx_message,"%d",&pos);
9d00b558:	27868018 	addiu	a2,gp,-32744
9d00b55c:	3c059d00 	lui	a1,0x9d00
9d00b560:	0f404063 	jal	9d01018c <_dsscanf_cdnopuxX>
9d00b564:	24a57490 	addiu	a1,a1,29840
    newPosFlag = 1;
9d00b568:	24100001 	li	s0,1
9d00b56c:	af908014 	sw	s0,-32748(gp)
    rx_num_bytes = 0;
9d00b570:	af80801c 	sw	zero,-32740(gp)
    // roll over if got more bytes than the size of the array
    if (rx_num_bytes >= MAX_RX_MESSAGE) {
      rx_num_bytes = 0;
    }
  }
  IFS1bits.U2RXIF = 0;
9d00b574:	3c10bf88 	lui	s0,0xbf88
9d00b578:	8e111040 	lw	s1,4160(s0)
9d00b57c:	7c11b584 	ins	s1,zero,0x16,0x1
9d00b580:	ae111040 	sw	s1,4160(s0)
}
9d00b584:	03c0e825 	move	sp,s8
9d00b588:	8fa2006c 	lw	v0,108(sp)
9d00b58c:	00400013 	mtlo	v0
9d00b590:	8fa30068 	lw	v1,104(sp)
9d00b594:	00600011 	mthi	v1
9d00b598:	8fbf0064 	lw	ra,100(sp)
9d00b59c:	8fbe0060 	lw	s8,96(sp)
9d00b5a0:	8fb9005c 	lw	t9,92(sp)
9d00b5a4:	8fb80058 	lw	t8,88(sp)
9d00b5a8:	8fb20054 	lw	s2,84(sp)
9d00b5ac:	8fb10050 	lw	s1,80(sp)
9d00b5b0:	8fb0004c 	lw	s0,76(sp)
9d00b5b4:	8faf0048 	lw	t7,72(sp)
9d00b5b8:	8fae0044 	lw	t6,68(sp)
9d00b5bc:	8fad0040 	lw	t5,64(sp)
9d00b5c0:	8fac003c 	lw	t4,60(sp)
9d00b5c4:	8fab0038 	lw	t3,56(sp)
9d00b5c8:	8faa0034 	lw	t2,52(sp)
9d00b5cc:	8fa90030 	lw	t1,48(sp)
9d00b5d0:	8fa8002c 	lw	t0,44(sp)
9d00b5d4:	8fa70028 	lw	a3,40(sp)
9d00b5d8:	8fa60024 	lw	a2,36(sp)
9d00b5dc:	8fa50020 	lw	a1,32(sp)
9d00b5e0:	8fa4001c 	lw	a0,28(sp)
9d00b5e4:	8fa30018 	lw	v1,24(sp)
9d00b5e8:	8fa20014 	lw	v0,20(sp)
9d00b5ec:	8fa10010 	lw	at,16(sp)
9d00b5f0:	8fbb007c 	lw	k1,124(sp)
9d00b5f4:	27bd0080 	addiu	sp,sp,128
9d00b5f8:	41dde800 	wrpgpr	sp,sp
9d00b5fc:	409b6000 	mtc0	k1,c0_status
9d00b600:	42000018 	eret
    rx_message[rx_num_bytes] = data;
9d00b604:	8f91801c 	lw	s1,-32740(gp)
9d00b608:	3c12a000 	lui	s2,0xa000
9d00b60c:	2652001c 	addiu	s2,s2,28
9d00b610:	02328821 	addu	s1,s1,s2
9d00b614:	a2300000 	sb	s0,0(s1)
    ++rx_num_bytes;
9d00b618:	8f90801c 	lw	s0,-32740(gp)
9d00b61c:	26100001 	addiu	s0,s0,1
9d00b620:	af90801c 	sw	s0,-32740(gp)
    if (rx_num_bytes >= MAX_RX_MESSAGE) {
9d00b624:	8f90801c 	lw	s0,-32740(gp)
9d00b628:	2a100064 	slti	s0,s0,100
9d00b62c:	5200ffd1 	beqzl	s0,9d00b574 <U2ISR+0xd4>
9d00b630:	af80801c 	sw	zero,-32740(gp)
  IFS1bits.U2RXIF = 0;
9d00b634:	1000ffd0 	b	9d00b578 <U2ISR+0xd8>
9d00b638:	3c10bf88 	lui	s0,0xbf88

9d00b63c <WriteUART2>:

// Write a character array using UART2
void WriteUART2(const char * string) {
  while (*string != '\0') {
9d00b63c:	80820000 	lb	v0,0(a0)
9d00b640:	1040000c 	beqz	v0,9d00b674 <WriteUART2+0x38>
9d00b644:	00000000 	nop
    while (U2STAbits.UTXBF) {
9d00b648:	3c06bf80 	lui	a2,0xbf80
      ; // wait until tx buffer isn't full
    }
    U2TXREG = *string;
9d00b64c:	3c05bf80 	lui	a1,0xbf80
    while (U2STAbits.UTXBF) {
9d00b650:	8cc36210 	lw	v1,25104(a2)
9d00b654:	7c630240 	ext	v1,v1,0x9,0x1
9d00b658:	1460fffd 	bnez	v1,9d00b650 <WriteUART2+0x14>
9d00b65c:	00000000 	nop
    U2TXREG = *string;
9d00b660:	aca26220 	sw	v0,25120(a1)
    ++string;
9d00b664:	24840001 	addiu	a0,a0,1
  while (*string != '\0') {
9d00b668:	80820000 	lb	v0,0(a0)
9d00b66c:	1440fff8 	bnez	v0,9d00b650 <WriteUART2+0x14>
9d00b670:	00000000 	nop
  }
}
9d00b674:	03e00008 	jr	ra
9d00b678:	00000000 	nop

9d00b67c <UART2_Startup>:

//  Initialize the serial port - UART2 
void UART2_Startup() {
9d00b67c:	27bdfff8 	addiu	sp,sp,-8
9d00b680:	afbf0004 	sw	ra,4(sp)
  // disable interrupts
  __builtin_disable_interrupts();
9d00b684:	41626000 	di	v0
9d00b688:	000000c0 	ehb

  // set UART2 TX and RX pins
  ANSELBCLR = 0b11;
9d00b68c:	3c02bf88 	lui	v0,0xbf88
9d00b690:	24030003 	li	v1,3
9d00b694:	ac436104 	sw	v1,24836(v0)
  U2RXRbits.U2RXR = 0b0010; // U2RX on B1, pin 5
9d00b698:	3c02bf81 	lui	v0,0xbf81
9d00b69c:	9043fa58 	lbu	v1,-1448(v0)
9d00b6a0:	24040002 	li	a0,2
9d00b6a4:	7c831804 	ins	v1,a0,0x0,0x4
9d00b6a8:	a043fa58 	sb	v1,-1448(v0)
  RPB0Rbits.RPB0R = 0b0010; // U2TX on B0, pin 4
9d00b6ac:	3c02bf81 	lui	v0,0xbf81
9d00b6b0:	9043fb2c 	lbu	v1,-1236(v0)
9d00b6b4:	7c831804 	ins	v1,a0,0x0,0x4
9d00b6b8:	a043fb2c 	sb	v1,-1236(v0)

  // turn on UART2 with interrupt on RX
  U2MODEbits.BRGH = 0; // set baud to NU32_DESIRED_BAUD
9d00b6bc:	3c02bf80 	lui	v0,0xbf80
9d00b6c0:	94436200 	lhu	v1,25088(v0)
9d00b6c4:	7c0318c4 	ins	v1,zero,0x3,0x1
9d00b6c8:	a4436200 	sh	v1,25088(v0)
  U2BRG = ((NU32DIP_SYS_FREQ / UART2_DESIRED_BAUD) / 16) - 1;
9d00b6cc:	3c03bf80 	lui	v1,0xbf80
9d00b6d0:	2404000c 	li	a0,12
9d00b6d4:	ac646240 	sw	a0,25152(v1)

  // 8 bit, no parity bit, and 1 stop bit (8N1 setup)
  U2MODEbits.PDSEL = 0;
9d00b6d8:	94436200 	lhu	v1,25088(v0)
9d00b6dc:	7c031044 	ins	v1,zero,0x1,0x2
9d00b6e0:	a4436200 	sh	v1,25088(v0)
  U2MODEbits.STSEL = 0;
9d00b6e4:	94436200 	lhu	v1,25088(v0)
9d00b6e8:	7c030004 	ins	v1,zero,0x0,0x1
9d00b6ec:	a4436200 	sh	v1,25088(v0)

  // configure TX & RX pins as output & input pins
  U2STAbits.UTXEN = 1;
9d00b6f0:	3c03bf80 	lui	v1,0xbf80
9d00b6f4:	8c656210 	lw	a1,25104(v1)
9d00b6f8:	24040001 	li	a0,1
9d00b6fc:	7c855284 	ins	a1,a0,0xa,0x1
9d00b700:	ac656210 	sw	a1,25104(v1)
  U2STAbits.URXEN = 1;
9d00b704:	8c656210 	lw	a1,25104(v1)
9d00b708:	7c856304 	ins	a1,a0,0xc,0x1
9d00b70c:	ac656210 	sw	a1,25104(v1)

  U2STAbits.URXISEL = 0; // interrupt when a char is rcvd
9d00b710:	8c656210 	lw	a1,25104(v1)
9d00b714:	7c053984 	ins	a1,zero,0x6,0x2
9d00b718:	ac656210 	sw	a1,25104(v1)
  IPC9bits.U2IP = 7;
9d00b71c:	3c03bf88 	lui	v1,0xbf88
9d00b720:	8c651120 	lw	a1,4384(v1)
9d00b724:	24060007 	li	a2,7
9d00b728:	7cc56284 	ins	a1,a2,0xa,0x3
9d00b72c:	ac651120 	sw	a1,4384(v1)
  IPC9bits.U2IS = 0;
9d00b730:	8c651120 	lw	a1,4384(v1)
9d00b734:	7c054a04 	ins	a1,zero,0x8,0x2
9d00b738:	ac651120 	sw	a1,4384(v1)
  IFS1bits.U2RXIF = 0;
9d00b73c:	3c03bf88 	lui	v1,0xbf88
9d00b740:	8c651040 	lw	a1,4160(v1)
9d00b744:	7c05b584 	ins	a1,zero,0x16,0x1
9d00b748:	ac651040 	sw	a1,4160(v1)
  IEC1bits.U2RXIE = 1;
9d00b74c:	3c03bf88 	lui	v1,0xbf88
9d00b750:	8c651070 	lw	a1,4208(v1)
9d00b754:	7c85b584 	ins	a1,a0,0x16,0x1
9d00b758:	ac651070 	sw	a1,4208(v1)

  // enable the uart
  U2MODEbits.ON = 1;
9d00b75c:	94436200 	lhu	v1,25088(v0)
9d00b760:	7c837bc4 	ins	v1,a0,0xf,0x1
9d00b764:	a4436200 	sh	v1,25088(v0)

  __builtin_enable_interrupts();
9d00b768:	41626020 	ei	v0
}
9d00b76c:	8fbf0004 	lw	ra,4(sp)
9d00b770:	03e00008 	jr	ra
9d00b774:	27bd0008 	addiu	sp,sp,8

Disassembly of section .text.__scan_i:

9d00b778 <__scan_i>:
9d00b778:	8cc20008 	lw	v0,8(a2)
9d00b77c:	27bdffb0 	addiu	sp,sp,-80
9d00b780:	afb60040 	sw	s6,64(sp)
9d00b784:	afb20030 	sw	s2,48(sp)
9d00b788:	afb1002c 	sw	s1,44(sp)
9d00b78c:	afb00028 	sw	s0,40(sp)
9d00b790:	afbf004c 	sw	ra,76(sp)
9d00b794:	afbe0048 	sw	s8,72(sp)
9d00b798:	afb70044 	sw	s7,68(sp)
9d00b79c:	afb5003c 	sw	s5,60(sp)
9d00b7a0:	afb40038 	sw	s4,56(sp)
9d00b7a4:	afb30034 	sw	s3,52(sp)
9d00b7a8:	0080b025 	move	s6,a0
9d00b7ac:	afa50054 	sw	a1,84(sp)
9d00b7b0:	00e09025 	move	s2,a3
9d00b7b4:	afa20018 	sw	v0,24(sp)
9d00b7b8:	8cd10010 	lw	s1,16(a2)
9d00b7bc:	0f403944 	jal	9d00e510 <__skipws>
9d00b7c0:	8cd0000c 	lw	s0,12(a2)
9d00b7c4:	8fa30018 	lw	v1,24(sp)
9d00b7c8:	14600002 	bnez	v1,9d00b7d4 <__scan_i+0x5c>
9d00b7cc:	2623ffff 	addiu	v1,s1,-1
9d00b7d0:	afa30018 	sw	v1,24(sp)
9d00b7d4:	8e430000 	lw	v1,0(s2)
9d00b7d8:	241e000a 	li	s8,10
9d00b7dc:	0000a825 	move	s5,zero
9d00b7e0:	00621821 	addu	v1,v1,v0
9d00b7e4:	2622ffff 	addiu	v0,s1,-1
9d00b7e8:	ae430000 	sw	v1,0(s2)
9d00b7ec:	0000a025 	move	s4,zero
9d00b7f0:	afa20020 	sw	v0,32(sp)
9d00b7f4:	24130008 	li	s3,8
9d00b7f8:	2411000a 	li	s1,10
9d00b7fc:	8fa20018 	lw	v0,24(sp)
9d00b800:	0282102a 	slt	v0,s4,v0
9d00b804:	10400043 	beqz	v0,9d00b914 <__scan_i+0x19c>
9d00b808:	8fa20020 	lw	v0,32(sp)
9d00b80c:	0282102a 	slt	v0,s4,v0
9d00b810:	10400041 	beqz	v0,9d00b918 <__scan_i+0x1a0>
9d00b814:	02141021 	addu	v0,s0,s4
9d00b818:	8ec2003c 	lw	v0,60(s6)
9d00b81c:	8ec3004c 	lw	v1,76(s6)
9d00b820:	0043182b 	sltu	v1,v0,v1
9d00b824:	1060000f 	beqz	v1,9d00b864 <__scan_i+0xec>
9d00b828:	24430001 	addiu	v1,v0,1
9d00b82c:	aec3003c 	sw	v1,60(s6)
9d00b830:	90570000 	lbu	s7,0(v0)
9d00b834:	26e2ffd5 	addiu	v0,s7,-43
9d00b838:	7c020844 	ins	v0,zero,0x1,0x1
9d00b83c:	00541025 	or	v0,v0,s4
9d00b840:	1440001d 	bnez	v0,9d00b8b8 <__scan_i+0x140>
9d00b844:	02141021 	addu	v0,s0,s4
9d00b848:	a2170000 	sb	s7,0(s0)
9d00b84c:	8e420000 	lw	v0,0(s2)
9d00b850:	24150001 	li	s5,1
9d00b854:	24140001 	li	s4,1
9d00b858:	24420001 	addiu	v0,v0,1
9d00b85c:	1000ffe7 	b	9d00b7fc <__scan_i+0x84>
9d00b860:	ae420000 	sw	v0,0(s2)
9d00b864:	0f403917 	jal	9d00e45c <__shgetc>
9d00b868:	02c02025 	move	a0,s6
9d00b86c:	0040b825 	move	s7,v0
9d00b870:	2402ffff 	li	v0,-1
9d00b874:	16e2fff0 	bne	s7,v0,9d00b838 <__scan_i+0xc0>
9d00b878:	26e2ffd5 	addiu	v0,s7,-43
9d00b87c:	16800026 	bnez	s4,9d00b918 <__scan_i+0x1a0>
9d00b880:	02141021 	addu	v0,s0,s4
9d00b884:	8fbf004c 	lw	ra,76(sp)
9d00b888:	02e01025 	move	v0,s7
9d00b88c:	8fbe0048 	lw	s8,72(sp)
9d00b890:	8fb70044 	lw	s7,68(sp)
9d00b894:	8fb60040 	lw	s6,64(sp)
9d00b898:	8fb5003c 	lw	s5,60(sp)
9d00b89c:	8fb40038 	lw	s4,56(sp)
9d00b8a0:	8fb30034 	lw	s3,52(sp)
9d00b8a4:	8fb20030 	lw	s2,48(sp)
9d00b8a8:	8fb1002c 	lw	s1,44(sp)
9d00b8ac:	8fb00028 	lw	s0,40(sp)
9d00b8b0:	03e00008 	jr	ra
9d00b8b4:	27bd0050 	addiu	sp,sp,80
9d00b8b8:	16950006 	bne	s4,s5,9d00b8d4 <__scan_i+0x15c>
9d00b8bc:	afa2001c 	sw	v0,28(sp)
9d00b8c0:	17d10026 	bne	s8,s1,9d00b95c <__scan_i+0x1e4>
9d00b8c4:	26950001 	addiu	s5,s4,1
9d00b8c8:	3ae20030 	xori	v0,s7,0x30
9d00b8cc:	0262f00a 	movz	s8,s3,v0
9d00b8d0:	0002a80b 	movn	s5,zero,v0
9d00b8d4:	26e2ffd0 	addiu	v0,s7,-48
9d00b8d8:	2c42000a 	sltiu	v0,v0,10
9d00b8dc:	14400043 	bnez	v0,9d00b9ec <__scan_i+0x274>
9d00b8e0:	24020010 	li	v0,16
9d00b8e4:	57c20006 	bnel	s8,v0,9d00b900 <__scan_i+0x188>
9d00b8e8:	8ec2004c 	lw	v0,76(s6)
9d00b8ec:	0f40408a 	jal	9d010228 <isxdigit>
9d00b8f0:	02e02025 	move	a0,s7
9d00b8f4:	14400041 	bnez	v0,9d00b9fc <__scan_i+0x284>
9d00b8f8:	8fa2001c 	lw	v0,28(sp)
9d00b8fc:	8ec2004c 	lw	v0,76(s6)
9d00b900:	10400005 	beqz	v0,9d00b918 <__scan_i+0x1a0>
9d00b904:	02141021 	addu	v0,s0,s4
9d00b908:	8ec2003c 	lw	v0,60(s6)
9d00b90c:	2442ffff 	addiu	v0,v0,-1
9d00b910:	aec2003c 	sw	v0,60(s6)
9d00b914:	02141021 	addu	v0,s0,s4
9d00b918:	a0400000 	sb	zero,0(v0)
9d00b91c:	2402000a 	li	v0,10
9d00b920:	17c2003c 	bne	s8,v0,9d00ba14 <__scan_i+0x29c>
9d00b924:	2406000a 	li	a2,10
9d00b928:	27a50010 	addiu	a1,sp,16
9d00b92c:	0f404001 	jal	9d010004 <strtoll>
9d00b930:	02002025 	move	a0,s0
9d00b934:	8fa40054 	lw	a0,84(sp)
9d00b938:	ac830004 	sw	v1,4(a0)
9d00b93c:	8fa30010 	lw	v1,16(sp)
9d00b940:	ac820000 	sw	v0,0(a0)
9d00b944:	2402fffe 	li	v0,-2
9d00b948:	00708026 	xor	s0,v1,s0
9d00b94c:	24030001 	li	v1,1
9d00b950:	0050180a 	movz	v1,v0,s0
9d00b954:	1000ffcb 	b	9d00b884 <__scan_i+0x10c>
9d00b958:	0060b825 	move	s7,v1
9d00b95c:	17d30021 	bne	s8,s3,9d00b9e4 <__scan_i+0x26c>
9d00b960:	36e20020 	ori	v0,s7,0x20
9d00b964:	24040078 	li	a0,120
9d00b968:	5444ffda 	bnel	v0,a0,9d00b8d4 <__scan_i+0x15c>
9d00b96c:	0000a825 	move	s5,zero
9d00b970:	8ec2003c 	lw	v0,60(s6)
9d00b974:	8ec4004c 	lw	a0,76(s6)
9d00b978:	0044202b 	sltu	a0,v0,a0
9d00b97c:	10800015 	beqz	a0,9d00b9d4 <__scan_i+0x25c>
9d00b980:	00000000 	nop
9d00b984:	24440001 	addiu	a0,v0,1
9d00b988:	aec4003c 	sw	a0,60(s6)
9d00b98c:	90420000 	lbu	v0,0(v0)
9d00b990:	8ec4004c 	lw	a0,76(s6)
9d00b994:	10800004 	beqz	a0,9d00b9a8 <__scan_i+0x230>
9d00b998:	00000000 	nop
9d00b99c:	8eca003c 	lw	t2,60(s6)
9d00b9a0:	254affff 	addiu	t2,t2,-1
9d00b9a4:	aeca003c 	sw	t2,60(s6)
9d00b9a8:	0f40408a 	jal	9d010228 <isxdigit>
9d00b9ac:	00402025 	move	a0,v0
9d00b9b0:	1040ffd2 	beqz	v0,9d00b8fc <__scan_i+0x184>
9d00b9b4:	8fa2001c 	lw	v0,28(sp)
9d00b9b8:	02a0a025 	move	s4,s5
9d00b9bc:	241e0010 	li	s8,16
9d00b9c0:	a0570000 	sb	s7,0(v0)
9d00b9c4:	8e420000 	lw	v0,0(s2)
9d00b9c8:	24420001 	addiu	v0,v0,1
9d00b9cc:	1000ff8b 	b	9d00b7fc <__scan_i+0x84>
9d00b9d0:	ae420000 	sw	v0,0(s2)
9d00b9d4:	0f403917 	jal	9d00e45c <__shgetc>
9d00b9d8:	02c02025 	move	a0,s6
9d00b9dc:	1000ffed 	b	9d00b994 <__scan_i+0x21c>
9d00b9e0:	8ec4004c 	lw	a0,76(s6)
9d00b9e4:	1000ffbb 	b	9d00b8d4 <__scan_i+0x15c>
9d00b9e8:	0000a825 	move	s5,zero
9d00b9ec:	17d30002 	bne	s8,s3,9d00b9f8 <__scan_i+0x280>
9d00b9f0:	2ae20038 	slti	v0,s7,56
9d00b9f4:	0222f00a 	movz	s8,s1,v0
9d00b9f8:	8fa2001c 	lw	v0,28(sp)
9d00b9fc:	26940001 	addiu	s4,s4,1
9d00ba00:	a0570000 	sb	s7,0(v0)
9d00ba04:	8e420000 	lw	v0,0(s2)
9d00ba08:	24420001 	addiu	v0,v0,1
9d00ba0c:	1000ff7b 	b	9d00b7fc <__scan_i+0x84>
9d00ba10:	ae420000 	sw	v0,0(s2)
9d00ba14:	03c03025 	move	a2,s8
9d00ba18:	27a50010 	addiu	a1,sp,16
9d00ba1c:	0f403ff6 	jal	9d00ffd8 <strtoull>
9d00ba20:	02002025 	move	a0,s0
9d00ba24:	1000ffc4 	b	9d00b938 <__scan_i+0x1c0>
9d00ba28:	8fa40054 	lw	a0,84(sp)

Disassembly of section .text.malloc:

9d00ba2c <malloc>:
9d00ba2c:	27bdffd8 	addiu	sp,sp,-40
9d00ba30:	afa40028 	sw	a0,40(sp)
9d00ba34:	27a40028 	addiu	a0,sp,40
9d00ba38:	afbf0024 	sw	ra,36(sp)
9d00ba3c:	afb10020 	sw	s1,32(sp)
9d00ba40:	0f403e17 	jal	9d00f85c <adjust_size>
9d00ba44:	afb0001c 	sw	s0,28(sp)
9d00ba48:	04410007 	bgez	v0,9d00ba68 <malloc+0x3c>
9d00ba4c:	8fa20028 	lw	v0,40(sp)
9d00ba50:	00001025 	move	v0,zero
9d00ba54:	8fbf0024 	lw	ra,36(sp)
9d00ba58:	8fb10020 	lw	s1,32(sp)
9d00ba5c:	8fb0001c 	lw	s0,28(sp)
9d00ba60:	03e00008 	jr	ra
9d00ba64:	27bd0028 	addiu	sp,sp,40
9d00ba68:	00021102 	srl	v0,v0,0x4
9d00ba6c:	2451ffff 	addiu	s1,v0,-1
9d00ba70:	2e230021 	sltiu	v1,s1,33
9d00ba74:	14600009 	bnez	v1,9d00ba9c <malloc+0x70>
9d00ba78:	2442fffe 	addiu	v0,v0,-2
9d00ba7c:	3c039d01 	lui	v1,0x9d01
9d00ba80:	2c440200 	sltiu	a0,v0,512
9d00ba84:	10800022 	beqz	a0,9d00bb10 <malloc+0xe4>
9d00ba88:	2463f7c8 	addiu	v1,v1,-2104
9d00ba8c:	000210c2 	srl	v0,v0,0x3
9d00ba90:	00621021 	addu	v0,v1,v0
9d00ba94:	9051fffc 	lbu	s1,-4(v0)
9d00ba98:	26310001 	addiu	s1,s1,1
9d00ba9c:	02203025 	move	a2,s1
9d00baa0:	24040001 	li	a0,1
9d00baa4:	0f403fb3 	jal	9d00fecc <__ashldi3>
9d00baa8:	00002825 	move	a1,zero
9d00baac:	00025823 	negu	t3,v0
9d00bab0:	000b382b 	sltu	a3,zero,t3
9d00bab4:	00031823 	negu	v1,v1
9d00bab8:	3c0aa000 	lui	t2,0xa000
9d00babc:	3c089d01 	lui	t0,0x9d01
9d00bac0:	00673823 	subu	a3,v1,a3
9d00bac4:	2508f7a8 	addiu	t0,t0,-2136
9d00bac8:	3c0c076b 	lui	t4,0x76b
9d00bacc:	25490148 	addiu	t1,t2,328
9d00bad0:	8d420148 	lw	v0,328(t2)
9d00bad4:	8d43014c 	lw	v1,332(t2)
9d00bad8:	01622824 	and	a1,t3,v0
9d00badc:	00e31824 	and	v1,a3,v1
9d00bae0:	00a32025 	or	a0,a1,v1
9d00bae4:	14800039 	bnez	a0,9d00bbcc <malloc+0x1a0>
9d00bae8:	8fa20028 	lw	v0,40(sp)
9d00baec:	27a40010 	addiu	a0,sp,16
9d00baf0:	24420010 	addiu	v0,v0,16
9d00baf4:	0f403f86 	jal	9d00fe18 <__expand_heap>
9d00baf8:	afa20010 	sw	v0,16(sp)
9d00bafc:	14400009 	bnez	v0,9d00bb24 <malloc+0xf8>
9d00bb00:	3c03a000 	lui	v1,0xa000
9d00bb04:	2404000c 	li	a0,12
9d00bb08:	1000ffd2 	b	9d00ba54 <malloc+0x28>
9d00bb0c:	ac6403c8 	sw	a0,968(v1)
9d00bb10:	000211c2 	srl	v0,v0,0x7
9d00bb14:	00621021 	addu	v0,v1,v0
9d00bb18:	9051fffc 	lbu	s1,-4(v0)
9d00bb1c:	1000ffdf 	b	9d00ba9c <malloc+0x70>
9d00bb20:	26310011 	addiu	s1,s1,17
9d00bb24:	3c03a000 	lui	v1,0xa000
9d00bb28:	8c710140 	lw	s1,320(v1)
9d00bb2c:	10510006 	beq	v0,s1,9d00bb48 <malloc+0x11c>
9d00bb30:	8fa40010 	lw	a0,16(sp)
9d00bb34:	24510010 	addiu	s1,v0,16
9d00bb38:	2484fff0 	addiu	a0,a0,-16
9d00bb3c:	afa40010 	sw	a0,16(sp)
9d00bb40:	24040001 	li	a0,1
9d00bb44:	ac440008 	sw	a0,8(v0)
9d00bb48:	8fa20010 	lw	v0,16(sp)
9d00bb4c:	2630fff8 	addiu	s0,s1,-8
9d00bb50:	02222021 	addu	a0,s1,v0
9d00bb54:	ac640140 	sw	a0,320(v1)
9d00bb58:	34420001 	ori	v0,v0,0x1
9d00bb5c:	24030001 	li	v1,1
9d00bb60:	ac82fff8 	sw	v0,-8(a0)
9d00bb64:	ac83fffc 	sw	v1,-4(a0)
9d00bb68:	1200ffb9 	beqz	s0,9d00ba50 <malloc+0x24>
9d00bb6c:	ae22fffc 	sw	v0,-4(s1)
9d00bb70:	0f403c78 	jal	9d00f1e0 <alloc_rev>
9d00bb74:	02002025 	move	a0,s0
9d00bb78:	10400010 	beqz	v0,9d00bbbc <malloc+0x190>
9d00bb7c:	8fa50028 	lw	a1,40(sp)
9d00bb80:	8e23fff8 	lw	v1,-8(s1)
9d00bb84:	2402fffe 	li	v0,-2
9d00bb88:	8e25fffc 	lw	a1,-4(s1)
9d00bb8c:	00431824 	and	v1,v0,v1
9d00bb90:	02031823 	subu	v1,s0,v1
9d00bb94:	8c640004 	lw	a0,4(v1)
9d00bb98:	00442024 	and	a0,v0,a0
9d00bb9c:	00852021 	addu	a0,a0,a1
9d00bba0:	ac640004 	sw	a0,4(v1)
9d00bba4:	8e25fffc 	lw	a1,-4(s1)
9d00bba8:	00451024 	and	v0,v0,a1
9d00bbac:	02028021 	addu	s0,s0,v0
9d00bbb0:	ae040000 	sw	a0,0(s0)
9d00bbb4:	00608025 	move	s0,v1
9d00bbb8:	8fa50028 	lw	a1,40(sp)
9d00bbbc:	0f403e2d 	jal	9d00f8b4 <trim>
9d00bbc0:	02002025 	move	a0,s0
9d00bbc4:	1000ffa3 	b	9d00ba54 <malloc+0x28>
9d00bbc8:	26020008 	addiu	v0,s0,8
9d00bbcc:	14a0002f 	bnez	a1,9d00bc8c <malloc+0x260>
9d00bbd0:	3582e629 	ori	v0,t4,0xe629
9d00bbd4:	00032023 	negu	a0,v1
9d00bbd8:	00832024 	and	a0,a0,v1
9d00bbdc:	70822002 	mul	a0,a0,v0
9d00bbe0:	000426c2 	srl	a0,a0,0x1b
9d00bbe4:	01042021 	addu	a0,t0,a0
9d00bbe8:	80860000 	lb	a2,0(a0)
9d00bbec:	24c60020 	addiu	a2,a2,32
9d00bbf0:	0f403fd0 	jal	9d00ff40 <lock_bin>
9d00bbf4:	00c02025 	move	a0,a2
9d00bbf8:	24c40001 	addiu	a0,a2,1
9d00bbfc:	000420c0 	sll	a0,a0,0x3
9d00bc00:	00891021 	addu	v0,a0,t1
9d00bc04:	8c500000 	lw	s0,0(v0)
9d00bc08:	2484fff8 	addiu	a0,a0,-8
9d00bc0c:	01242021 	addu	a0,t1,a0
9d00bc10:	1204ffaf 	beq	s0,a0,9d00bad0 <malloc+0xa4>
9d00bc14:	28c20028 	slti	v0,a2,40
9d00bc18:	14400023 	bnez	v0,9d00bca8 <malloc+0x27c>
9d00bc1c:	26310002 	addiu	s1,s1,2
9d00bc20:	0226882a 	slt	s1,s1,a2
9d00bc24:	16200003 	bnez	s1,9d00bc34 <malloc+0x208>
9d00bc28:	2402003f 	li	v0,63
9d00bc2c:	14c2001f 	bne	a2,v0,9d00bcac <malloc+0x280>
9d00bc30:	00c02825 	move	a1,a2
9d00bc34:	8e070004 	lw	a3,4(s0)
9d00bc38:	8fa50028 	lw	a1,40(sp)
9d00bc3c:	7c070004 	ins	a3,zero,0x0,0x1
9d00bc40:	00e54023 	subu	t0,a3,a1
9d00bc44:	0f403d8c 	jal	9d00f630 <bin_index>
9d00bc48:	01002025 	move	a0,t0
9d00bc4c:	14c20016 	bne	a2,v0,9d00bca8 <malloc+0x27c>
9d00bc50:	02073821 	addu	a3,s0,a3
9d00bc54:	8e03000c 	lw	v1,12(s0)
9d00bc58:	8e040008 	lw	a0,8(s0)
9d00bc5c:	02051021 	addu	v0,s0,a1
9d00bc60:	ac43000c 	sw	v1,12(v0)
9d00bc64:	ac440008 	sw	a0,8(v0)
9d00bc68:	ac620008 	sw	v0,8(v1)
9d00bc6c:	8c430008 	lw	v1,8(v0)
9d00bc70:	34a50001 	ori	a1,a1,0x1
9d00bc74:	ac62000c 	sw	v0,12(v1)
9d00bc78:	ac450000 	sw	a1,0(v0)
9d00bc7c:	ac480004 	sw	t0,4(v0)
9d00bc80:	ace80000 	sw	t0,0(a3)
9d00bc84:	1000ffcc 	b	9d00bbb8 <malloc+0x18c>
9d00bc88:	ae050004 	sw	a1,4(s0)
9d00bc8c:	00052023 	negu	a0,a1
9d00bc90:	00852024 	and	a0,a0,a1
9d00bc94:	70822002 	mul	a0,a0,v0
9d00bc98:	000426c2 	srl	a0,a0,0x1b
9d00bc9c:	01042021 	addu	a0,t0,a0
9d00bca0:	1000ffd3 	b	9d00bbf0 <malloc+0x1c4>
9d00bca4:	80860000 	lb	a2,0(a0)
9d00bca8:	00c02825 	move	a1,a2
9d00bcac:	0f40399c 	jal	9d00e670 <unbin>
9d00bcb0:	02002025 	move	a0,s0
9d00bcb4:	1000ffc1 	b	9d00bbbc <malloc+0x190>
9d00bcb8:	8fa50028 	lw	a1,40(sp)

Disassembly of section .text.__fmt_x:

9d00bcbc <__fmt_x>:
9d00bcbc:	8ca20004 	lw	v0,4(a1)
9d00bcc0:	27bdffa8 	addiu	sp,sp,-88
9d00bcc4:	afb60048 	sw	s6,72(sp)
9d00bcc8:	afb3003c 	sw	s3,60(sp)
9d00bccc:	afb20038 	sw	s2,56(sp)
9d00bcd0:	afbf0054 	sw	ra,84(sp)
9d00bcd4:	afbe0050 	sw	s8,80(sp)
9d00bcd8:	afb7004c 	sw	s7,76(sp)
9d00bcdc:	afb50044 	sw	s5,68(sp)
9d00bce0:	afb40040 	sw	s4,64(sp)
9d00bce4:	afb10034 	sw	s1,52(sp)
9d00bce8:	afb00030 	sw	s0,48(sp)
9d00bcec:	00809825 	move	s3,a0
9d00bcf0:	00a09025 	move	s2,a1
9d00bcf4:	00e04025 	move	t0,a3
9d00bcf8:	0440004d 	bltz	v0,9d00be30 <__fmt_x+0x174>
9d00bcfc:	8cb60000 	lw	s6,0(a1)
9d00bd00:	7c160844 	ins	s6,zero,0x1,0x1
9d00bd04:	8e470008 	lw	a3,8(s2)
9d00bd08:	32c90010 	andi	t1,s6,0x10
9d00bd0c:	8cd40000 	lw	s4,0(a2)
9d00bd10:	8cd70004 	lw	s7,4(a2)
9d00bd14:	11200004 	beqz	t1,9d00bd28 <__fmt_x+0x6c>
9d00bd18:	00e08825 	move	s1,a3
9d00bd1c:	02971825 	or	v1,s4,s7
9d00bd20:	54600001 	bnezl	v1,9d00bd28 <__fmt_x+0x6c>
9d00bd24:	24f1fffe 	addiu	s1,a3,-2
9d00bd28:	32ca0008 	andi	t2,s6,0x8
9d00bd2c:	55400001 	bnezl	t2,9d00bd34 <__fmt_x+0x78>
9d00bd30:	2631ffff 	addiu	s1,s1,-1
9d00bd34:	8e500010 	lw	s0,16(s2)
9d00bd38:	8e55000c 	lw	s5,12(s2)
9d00bd3c:	251effbf 	addiu	s8,t0,-65
9d00bd40:	2610ffff 	addiu	s0,s0,-1
9d00bd44:	02b01821 	addu	v1,s5,s0
9d00bd48:	a0600000 	sb	zero,0(v1)
9d00bd4c:	00512823 	subu	a1,v0,s1
9d00bd50:	32cb0002 	andi	t3,s6,0x2
9d00bd54:	2fde001a 	sltiu	s8,s8,26
9d00bd58:	2a020002 	slti	v0,s0,2
9d00bd5c:	1440000a 	bnez	v0,9d00bd88 <__fmt_x+0xcc>
9d00bd60:	02971025 	or	v0,s4,s7
9d00bd64:	14400034 	bnez	v0,9d00be38 <__fmt_x+0x17c>
9d00bd68:	3283000f 	andi	v1,s4,0xf
9d00bd6c:	00b11021 	addu	v0,a1,s1
9d00bd70:	1c400032 	bgtz	v0,9d00be3c <__fmt_x+0x180>
9d00bd74:	2864000a 	slti	a0,v1,10
9d00bd78:	1a200003 	blez	s1,9d00bd88 <__fmt_x+0xcc>
9d00bd7c:	00000000 	nop
9d00bd80:	1560002e 	bnez	t3,9d00be3c <__fmt_x+0x180>
9d00bd84:	00000000 	nop
9d00bd88:	1120000b 	beqz	t1,9d00bdb8 <__fmt_x+0xfc>
9d00bd8c:	00000000 	nop
9d00bd90:	8cc20000 	lw	v0,0(a2)
9d00bd94:	8cc30004 	lw	v1,4(a2)
9d00bd98:	00431025 	or	v0,v0,v1
9d00bd9c:	10400006 	beqz	v0,9d00bdb8 <__fmt_x+0xfc>
9d00bda0:	02b01021 	addu	v0,s5,s0
9d00bda4:	2610fffe 	addiu	s0,s0,-2
9d00bda8:	a048ffff 	sb	t0,-1(v0)
9d00bdac:	24030030 	li	v1,48
9d00bdb0:	02b01021 	addu	v0,s5,s0
9d00bdb4:	a0430000 	sb	v1,0(v0)
9d00bdb8:	11400004 	beqz	t2,9d00bdcc <__fmt_x+0x110>
9d00bdbc:	24030020 	li	v1,32
9d00bdc0:	2610ffff 	addiu	s0,s0,-1
9d00bdc4:	02b01021 	addu	v0,s5,s0
9d00bdc8:	a0430000 	sb	v1,0(v0)
9d00bdcc:	8e460010 	lw	a2,16(s2)
9d00bdd0:	afb60010 	sw	s6,16(sp)
9d00bdd4:	02b02821 	addu	a1,s5,s0
9d00bdd8:	24c6ffff 	addiu	a2,a2,-1
9d00bddc:	00d03023 	subu	a2,a2,s0
9d00bde0:	0f4036bd 	jal	9d00daf4 <__pad>
9d00bde4:	02602025 	move	a0,s3
9d00bde8:	8e630004 	lw	v1,4(s3)
9d00bdec:	30630100 	andi	v1,v1,0x100
9d00bdf0:	10600004 	beqz	v1,9d00be04 <__fmt_x+0x148>
9d00bdf4:	8fbf0054 	lw	ra,84(sp)
9d00bdf8:	8e430004 	lw	v1,4(s2)
9d00bdfc:	0043202a 	slt	a0,v0,v1
9d00be00:	0064100b 	movn	v0,v1,a0
9d00be04:	8fbe0050 	lw	s8,80(sp)
9d00be08:	8fb7004c 	lw	s7,76(sp)
9d00be0c:	8fb60048 	lw	s6,72(sp)
9d00be10:	8fb50044 	lw	s5,68(sp)
9d00be14:	8fb40040 	lw	s4,64(sp)
9d00be18:	8fb3003c 	lw	s3,60(sp)
9d00be1c:	8fb20038 	lw	s2,56(sp)
9d00be20:	8fb10034 	lw	s1,52(sp)
9d00be24:	8fb00030 	lw	s0,48(sp)
9d00be28:	03e00008 	jr	ra
9d00be2c:	27bd0058 	addiu	sp,sp,88
9d00be30:	1000ffb4 	b	9d00bd04 <__fmt_x+0x48>
9d00be34:	24020001 	li	v0,1
9d00be38:	2864000a 	slti	a0,v1,10
9d00be3c:	10800002 	beqz	a0,9d00be48 <__fmt_x+0x18c>
9d00be40:	24620057 	addiu	v0,v1,87
9d00be44:	24620030 	addiu	v0,v1,48
9d00be48:	13c00015 	beqz	s8,9d00bea0 <__fmt_x+0x1e4>
9d00be4c:	34430020 	ori	v1,v0,0x20
9d00be50:	2463ff9f 	addiu	v1,v1,-97
9d00be54:	2c63001a 	sltiu	v1,v1,26
9d00be58:	50600012 	beqzl	v1,9d00bea4 <__fmt_x+0x1e8>
9d00be5c:	2610ffff 	addiu	s0,s0,-1
9d00be60:	00402025 	move	a0,v0
9d00be64:	afab0028 	sw	t3,40(sp)
9d00be68:	afa50024 	sw	a1,36(sp)
9d00be6c:	afa80064 	sw	t0,100(sp)
9d00be70:	afa60060 	sw	a2,96(sp)
9d00be74:	afa70020 	sw	a3,32(sp)
9d00be78:	afaa001c 	sw	t2,28(sp)
9d00be7c:	0f4040d6 	jal	9d010358 <toupper>
9d00be80:	afa90018 	sw	t1,24(sp)
9d00be84:	8fab0028 	lw	t3,40(sp)
9d00be88:	8fa50024 	lw	a1,36(sp)
9d00be8c:	8fa80064 	lw	t0,100(sp)
9d00be90:	8fa60060 	lw	a2,96(sp)
9d00be94:	8fa70020 	lw	a3,32(sp)
9d00be98:	8faa001c 	lw	t2,28(sp)
9d00be9c:	8fa90018 	lw	t1,24(sp)
9d00bea0:	2610ffff 	addiu	s0,s0,-1
9d00bea4:	02b01821 	addu	v1,s5,s0
9d00bea8:	a0620000 	sb	v0,0(v1)
9d00beac:	0014a102 	srl	s4,s4,0x4
9d00beb0:	00171700 	sll	v0,s7,0x1c
9d00beb4:	2631ffff 	addiu	s1,s1,-1
9d00beb8:	0054a025 	or	s4,v0,s4
9d00bebc:	1000ffa6 	b	9d00bd58 <__fmt_x+0x9c>
9d00bec0:	0017b902 	srl	s7,s7,0x4

Disassembly of section .text.__scan_x:

9d00bec4 <__scan_x>:
9d00bec4:	27bdffc0 	addiu	sp,sp,-64
9d00bec8:	afb30024 	sw	s3,36(sp)
9d00becc:	8cd30008 	lw	s3,8(a2)
9d00bed0:	afb60030 	sw	s6,48(sp)
9d00bed4:	afb5002c 	sw	s5,44(sp)
9d00bed8:	afb20020 	sw	s2,32(sp)
9d00bedc:	afb1001c 	sw	s1,28(sp)
9d00bee0:	afbf003c 	sw	ra,60(sp)
9d00bee4:	afbe0038 	sw	s8,56(sp)
9d00bee8:	afb70034 	sw	s7,52(sp)
9d00beec:	afb40028 	sw	s4,40(sp)
9d00bef0:	afb00018 	sw	s0,24(sp)
9d00bef4:	0080b025 	move	s6,a0
9d00bef8:	afa50044 	sw	a1,68(sp)
9d00befc:	00e09025 	move	s2,a3
9d00bf00:	8cd50010 	lw	s5,16(a2)
9d00bf04:	0f403944 	jal	9d00e510 <__skipws>
9d00bf08:	8cd1000c 	lw	s1,12(a2)
9d00bf0c:	52600001 	beqzl	s3,9d00bf14 <__scan_x+0x50>
9d00bf10:	26b3ffff 	addiu	s3,s5,-1
9d00bf14:	8e440000 	lw	a0,0(s2)
9d00bf18:	00008025 	move	s0,zero
9d00bf1c:	26b5ffff 	addiu	s5,s5,-1
9d00bf20:	00822021 	addu	a0,a0,v0
9d00bf24:	ae440000 	sw	a0,0(s2)
9d00bf28:	24170078 	li	s7,120
9d00bf2c:	241e0030 	li	s8,48
9d00bf30:	0213102a 	slt	v0,s0,s3
9d00bf34:	1040002f 	beqz	v0,9d00bff4 <__scan_x+0x130>
9d00bf38:	0215102a 	slt	v0,s0,s5
9d00bf3c:	5040002e 	beqzl	v0,9d00bff8 <__scan_x+0x134>
9d00bf40:	02308021 	addu	s0,s1,s0
9d00bf44:	8ec2003c 	lw	v0,60(s6)
9d00bf48:	8ec4004c 	lw	a0,76(s6)
9d00bf4c:	0044202b 	sltu	a0,v0,a0
9d00bf50:	10800038 	beqz	a0,9d00c034 <__scan_x+0x170>
9d00bf54:	24440001 	addiu	a0,v0,1
9d00bf58:	aec4003c 	sw	a0,60(s6)
9d00bf5c:	90540000 	lbu	s4,0(v0)
9d00bf60:	0f40408a 	jal	9d010228 <isxdigit>
9d00bf64:	02802025 	move	a0,s4
9d00bf68:	1440004b 	bnez	v0,9d00c098 <__scan_x+0x1d4>
9d00bf6c:	24020001 	li	v0,1
9d00bf70:	5602001b 	bnel	s0,v0,9d00bfe0 <__scan_x+0x11c>
9d00bf74:	8ec2004c 	lw	v0,76(s6)
9d00bf78:	0f4040c8 	jal	9d010320 <tolower>
9d00bf7c:	02802025 	move	a0,s4
9d00bf80:	54570017 	bnel	v0,s7,9d00bfe0 <__scan_x+0x11c>
9d00bf84:	8ec2004c 	lw	v0,76(s6)
9d00bf88:	82220000 	lb	v0,0(s1)
9d00bf8c:	545e0014 	bnel	v0,s8,9d00bfe0 <__scan_x+0x11c>
9d00bf90:	8ec2004c 	lw	v0,76(s6)
9d00bf94:	8ec2003c 	lw	v0,60(s6)
9d00bf98:	8ec4004c 	lw	a0,76(s6)
9d00bf9c:	0044202b 	sltu	a0,v0,a0
9d00bfa0:	10800039 	beqz	a0,9d00c088 <__scan_x+0x1c4>
9d00bfa4:	00000000 	nop
9d00bfa8:	24440001 	addiu	a0,v0,1
9d00bfac:	aec4003c 	sw	a0,60(s6)
9d00bfb0:	90420000 	lbu	v0,0(v0)
9d00bfb4:	8ec4004c 	lw	a0,76(s6)
9d00bfb8:	10800004 	beqz	a0,9d00bfcc <__scan_x+0x108>
9d00bfbc:	00000000 	nop
9d00bfc0:	8ec6003c 	lw	a2,60(s6)
9d00bfc4:	24c6ffff 	addiu	a2,a2,-1
9d00bfc8:	aec6003c 	sw	a2,60(s6)
9d00bfcc:	0f40408a 	jal	9d010228 <isxdigit>
9d00bfd0:	00402025 	move	a0,v0
9d00bfd4:	14400031 	bnez	v0,9d00c09c <__scan_x+0x1d8>
9d00bfd8:	02301021 	addu	v0,s1,s0
9d00bfdc:	8ec2004c 	lw	v0,76(s6)
9d00bfe0:	50400005 	beqzl	v0,9d00bff8 <__scan_x+0x134>
9d00bfe4:	02308021 	addu	s0,s1,s0
9d00bfe8:	8ec2003c 	lw	v0,60(s6)
9d00bfec:	2442ffff 	addiu	v0,v0,-1
9d00bff0:	aec2003c 	sw	v0,60(s6)
9d00bff4:	02308021 	addu	s0,s1,s0
9d00bff8:	02202025 	move	a0,s1
9d00bffc:	27a50010 	addiu	a1,sp,16
9d00c000:	a2000000 	sb	zero,0(s0)
9d00c004:	0f403ff6 	jal	9d00ffd8 <strtoull>
9d00c008:	24060010 	li	a2,16
9d00c00c:	8fa40044 	lw	a0,68(sp)
9d00c010:	8fa50010 	lw	a1,16(sp)
9d00c014:	ac820000 	sw	v0,0(a0)
9d00c018:	00b18826 	xor	s1,a1,s1
9d00c01c:	2402fffe 	li	v0,-2
9d00c020:	24050001 	li	a1,1
9d00c024:	0051280a 	movz	a1,v0,s1
9d00c028:	ac830004 	sw	v1,4(a0)
9d00c02c:	10000009 	b	9d00c054 <__scan_x+0x190>
9d00c030:	00a0a025 	move	s4,a1
9d00c034:	0f403917 	jal	9d00e45c <__shgetc>
9d00c038:	02c02025 	move	a0,s6
9d00c03c:	0040a025 	move	s4,v0
9d00c040:	2402ffff 	li	v0,-1
9d00c044:	1682ffc6 	bne	s4,v0,9d00bf60 <__scan_x+0x9c>
9d00c048:	00000000 	nop
9d00c04c:	1600ffea 	bnez	s0,9d00bff8 <__scan_x+0x134>
9d00c050:	02308021 	addu	s0,s1,s0
9d00c054:	8fbf003c 	lw	ra,60(sp)
9d00c058:	02801025 	move	v0,s4
9d00c05c:	8fbe0038 	lw	s8,56(sp)
9d00c060:	8fb70034 	lw	s7,52(sp)
9d00c064:	8fb60030 	lw	s6,48(sp)
9d00c068:	8fb5002c 	lw	s5,44(sp)
9d00c06c:	8fb40028 	lw	s4,40(sp)
9d00c070:	8fb30024 	lw	s3,36(sp)
9d00c074:	8fb20020 	lw	s2,32(sp)
9d00c078:	8fb1001c 	lw	s1,28(sp)
9d00c07c:	8fb00018 	lw	s0,24(sp)
9d00c080:	03e00008 	jr	ra
9d00c084:	27bd0040 	addiu	sp,sp,64
9d00c088:	0f403917 	jal	9d00e45c <__shgetc>
9d00c08c:	02c02025 	move	a0,s6
9d00c090:	1000ffc9 	b	9d00bfb8 <__scan_x+0xf4>
9d00c094:	8ec4004c 	lw	a0,76(s6)
9d00c098:	02301021 	addu	v0,s1,s0
9d00c09c:	a0540000 	sb	s4,0(v0)
9d00c0a0:	8e420000 	lw	v0,0(s2)
9d00c0a4:	26100001 	addiu	s0,s0,1
9d00c0a8:	24420001 	addiu	v0,v0,1
9d00c0ac:	1000ffa0 	b	9d00bf30 <__scan_x+0x6c>
9d00c0b0:	ae420000 	sw	v0,0(s2)

Disassembly of section .text:

9d00c0b4 <NU32DIP_Startup>:
#include "nu32dip.h"

void NU32DIP_Startup() {
9d00c0b4:	27bdfff8 	addiu	sp,sp,-8
9d00c0b8:	afbf0004 	sw	ra,4(sp)
    __builtin_disable_interrupts(); // disable interrupts while initializing things
9d00c0bc:	41626000 	di	v0
9d00c0c0:	000000c0 	ehb

    // set the CP0 CONFIG register to indicate that kseg0 is cacheable (0x3)
    __builtin_mtc0(_CP0_CONFIG, _CP0_CONFIG_SELECT, 0xa4210583);
9d00c0c4:	3c02a421 	lui	v0,0xa421
9d00c0c8:	24420583 	addiu	v0,v0,1411
9d00c0cc:	40828000 	mtc0	v0,c0_config
9d00c0d0:	000000c0 	ehb

    // 0 data RAM access wait states
    BMXCONbits.BMXWSDRM = 0x0;
9d00c0d4:	3c02bf88 	lui	v0,0xbf88
9d00c0d8:	8c432000 	lw	v1,8192(v0)
9d00c0dc:	7c033184 	ins	v1,zero,0x6,0x1
9d00c0e0:	ac432000 	sw	v1,8192(v0)

    // enable multi vector interrupts
    INTCONbits.MVEC = 0x1;
9d00c0e4:	3c02bf88 	lui	v0,0xbf88
9d00c0e8:	8c441000 	lw	a0,4096(v0)
9d00c0ec:	24030001 	li	v1,1
9d00c0f0:	7c646304 	ins	a0,v1,0xc,0x1
9d00c0f4:	ac441000 	sw	a0,4096(v0)

    // disable JTAG to get pins back
    DDPCONbits.JTAGEN = 0;
9d00c0f8:	3c02bf81 	lui	v0,0xbf81
9d00c0fc:	9444f200 	lhu	a0,-3584(v0)
9d00c100:	7c0418c4 	ins	a0,zero,0x3,0x1
9d00c104:	a444f200 	sh	a0,-3584(v0)

    // do your TRIS and LAT commands here
    TRISBCLR = 0b110000; // B4 and B5 LEDs
9d00c108:	3c02bf88 	lui	v0,0xbf88
9d00c10c:	24040030 	li	a0,48
9d00c110:	ac446114 	sw	a0,24852(v0)
    TRISASET = 0b010000; // A4 user button
9d00c114:	3c02bf88 	lui	v0,0xbf88
9d00c118:	24040010 	li	a0,16
9d00c11c:	ac446018 	sw	a0,24600(v0)
    //NU32_LED1 = 1; // LED1 is off
    NU32DIP_YELLOW = 1;
9d00c120:	3c02bf88 	lui	v0,0xbf88
9d00c124:	94446130 	lhu	a0,24880(v0)
9d00c128:	7c642944 	ins	a0,v1,0x5,0x1
9d00c12c:	a4446130 	sh	a0,24880(v0)
    //NU32_LED2 = 0; // LED2 is on
    NU32DIP_GREEN = 0;
9d00c130:	94446130 	lhu	a0,24880(v0)
9d00c134:	7c042104 	ins	a0,zero,0x4,0x1
9d00c138:	a4446130 	sh	a0,24880(v0)

    //UART1 pins
    U1RXRbits.U1RXR = 0b0000; // Set A2 to U1RX
9d00c13c:	3c02bf81 	lui	v0,0xbf81
9d00c140:	9044fa50 	lbu	a0,-1456(v0)
9d00c144:	7c041804 	ins	a0,zero,0x0,0x4
9d00c148:	a044fa50 	sb	a0,-1456(v0)
    RPB3Rbits.RPB3R = 0b0001; // Set B3 to U1TX
9d00c14c:	3c02bf81 	lui	v0,0xbf81
9d00c150:	9044fb38 	lbu	a0,-1224(v0)
9d00c154:	7c641804 	ins	a0,v1,0x0,0x4
9d00c158:	a044fb38 	sb	a0,-1224(v0)

    // turn on UART1 without an interrupt
    U1MODEbits.BRGH = 0; // set baud to NU32_DESIRED_BAUD
9d00c15c:	3c02bf80 	lui	v0,0xbf80
9d00c160:	94446000 	lhu	a0,24576(v0)
9d00c164:	7c0418c4 	ins	a0,zero,0x3,0x1
9d00c168:	a4446000 	sh	a0,24576(v0)
    U1BRG = ((NU32DIP_SYS_FREQ / NU32DIP_DESIRED_BAUD) / 16) - 1;
9d00c16c:	3c04bf80 	lui	a0,0xbf80
9d00c170:	2405000c 	li	a1,12
9d00c174:	ac856040 	sw	a1,24640(a0)

    // 8 bit, no parity bit, and 1 stop bit (8N1 setup)
    U1MODEbits.PDSEL = 0;
9d00c178:	94446000 	lhu	a0,24576(v0)
9d00c17c:	7c041044 	ins	a0,zero,0x1,0x2
9d00c180:	a4446000 	sh	a0,24576(v0)
    U1MODEbits.STSEL = 0;
9d00c184:	94446000 	lhu	a0,24576(v0)
9d00c188:	7c040004 	ins	a0,zero,0x0,0x1
9d00c18c:	a4446000 	sh	a0,24576(v0)

    // configure TX & RX pins as output & input pins
    U1STAbits.UTXEN = 1;
9d00c190:	3c04bf80 	lui	a0,0xbf80
9d00c194:	8c856010 	lw	a1,24592(a0)
9d00c198:	7c655284 	ins	a1,v1,0xa,0x1
9d00c19c:	ac856010 	sw	a1,24592(a0)
    U1STAbits.URXEN = 1;
9d00c1a0:	8c856010 	lw	a1,24592(a0)
9d00c1a4:	7c656304 	ins	a1,v1,0xc,0x1
9d00c1a8:	ac856010 	sw	a1,24592(a0)
    // configure without hardware flow control
    U1MODEbits.UEN = 0;
9d00c1ac:	94446000 	lhu	a0,24576(v0)
9d00c1b0:	7c044a04 	ins	a0,zero,0x8,0x2
9d00c1b4:	a4446000 	sh	a0,24576(v0)

    // enable the uart
    U1MODEbits.ON = 1;
9d00c1b8:	94446000 	lhu	a0,24576(v0)
9d00c1bc:	7c647bc4 	ins	a0,v1,0xf,0x1
9d00c1c0:	a4446000 	sh	a0,24576(v0)

    __builtin_enable_interrupts();
9d00c1c4:	41626020 	ei	v0
}
9d00c1c8:	8fbf0004 	lw	ra,4(sp)
9d00c1cc:	03e00008 	jr	ra
9d00c1d0:	27bd0008 	addiu	sp,sp,8

9d00c1d4 <NU32DIP_ReadUART1>:
// block other functions until you get a '\r' or '\n'
// send the pointer to your char array and the number of elements in the array

void NU32DIP_ReadUART1(char * message, int maxLength) {
    char data = 0;
    int complete = 0, num_bytes = 0;
9d00c1d4:	00001025 	move	v0,zero
    // loop until you get a '\r' or '\n'
    while (!complete) {
        if (U1STAbits.URXDA) { // if data is available
9d00c1d8:	3c0abf80 	lui	t2,0xbf80
            data = U1RXREG; // read the data
9d00c1dc:	3c09bf80 	lui	t1,0xbf80
            if ((data == '\n') || (data == '\r')) {
9d00c1e0:	2408000a 	li	t0,10
9d00c1e4:	2407000d 	li	a3,13
        if (U1STAbits.URXDA) { // if data is available
9d00c1e8:	8d436010 	lw	v1,24592(t2)
9d00c1ec:	30630001 	andi	v1,v1,0x1
9d00c1f0:	1060fffd 	beqz	v1,9d00c1e8 <NU32DIP_ReadUART1+0x14>
9d00c1f4:	00000000 	nop
            data = U1RXREG; // read the data
9d00c1f8:	8d236030 	lw	v1,24624(t1)
9d00c1fc:	7c031c20 	seb	v1,v1
            if ((data == '\n') || (data == '\r')) {
9d00c200:	5068000b 	beql	v1,t0,9d00c230 <NU32DIP_ReadUART1+0x5c>
9d00c204:	00822021 	addu	a0,a0,v0
9d00c208:	10670008 	beq	v1,a3,9d00c22c <NU32DIP_ReadUART1+0x58>
9d00c20c:	24460001 	addiu	a2,v0,1
                complete = 1;
            } else {
                message[num_bytes] = data;
                ++num_bytes;
                // roll over if the array is too small
                if (num_bytes >= maxLength) {
9d00c210:	00c5302a 	slt	a2,a2,a1
                    num_bytes = 0;
9d00c214:	244b0001 	addiu	t3,v0,1
                message[num_bytes] = data;
9d00c218:	00821021 	addu	v0,a0,v0
9d00c21c:	a0430000 	sb	v1,0(v0)
9d00c220:	01601025 	move	v0,t3
9d00c224:	1000fff0 	b	9d00c1e8 <NU32DIP_ReadUART1+0x14>
9d00c228:	0006100a 	movz	v0,zero,a2
                }
            }
        }
    }
    // end the string
    message[num_bytes] = '\0';
9d00c22c:	00822021 	addu	a0,a0,v0
}
9d00c230:	03e00008 	jr	ra
9d00c234:	a0800000 	sb	zero,0(a0)

9d00c238 <NU32DIP_WriteUART1>:

// Write a character array using UART1

void NU32DIP_WriteUART1(const char * string) {
    while (*string != '\0') {
9d00c238:	80820000 	lb	v0,0(a0)
9d00c23c:	1040000b 	beqz	v0,9d00c26c <NU32DIP_WriteUART1+0x34>
9d00c240:	3c06bf80 	lui	a2,0xbf80
        while (U1STAbits.UTXBF) {
            ; // wait until tx buffer isn't full
        }
        U1TXREG = *string;
9d00c244:	3c05bf80 	lui	a1,0xbf80
        while (U1STAbits.UTXBF) {
9d00c248:	8cc36010 	lw	v1,24592(a2)
9d00c24c:	7c630240 	ext	v1,v1,0x9,0x1
9d00c250:	1460fffd 	bnez	v1,9d00c248 <NU32DIP_WriteUART1+0x10>
9d00c254:	00000000 	nop
        U1TXREG = *string;
9d00c258:	aca26020 	sw	v0,24608(a1)
        ++string;
9d00c25c:	24840001 	addiu	a0,a0,1
    while (*string != '\0') {
9d00c260:	80820000 	lb	v0,0(a0)
9d00c264:	1440fff8 	bnez	v0,9d00c248 <NU32DIP_WriteUART1+0x10>
9d00c268:	00000000 	nop
    }
}
9d00c26c:	03e00008 	jr	ra
9d00c270:	00000000 	nop

Disassembly of section .text.free:

9d00c274 <free>:
9d00c274:	10800063 	beqz	a0,9d00c404 <free+0x190>
9d00c278:	00000000 	nop
9d00c27c:	8c82fffc 	lw	v0,-4(a0)
9d00c280:	27bdffd0 	addiu	sp,sp,-48
9d00c284:	afb2001c 	sw	s2,28(sp)
9d00c288:	00409025 	move	s2,v0
9d00c28c:	afb00014 	sw	s0,20(sp)
9d00c290:	7c120004 	ins	s2,zero,0x0,0x1
9d00c294:	2490fff8 	addiu	s0,a0,-8
9d00c298:	afb10018 	sw	s1,24(sp)
9d00c29c:	02128821 	addu	s1,s0,s2
9d00c2a0:	8e230000 	lw	v1,0(s1)
9d00c2a4:	afb40024 	sw	s4,36(sp)
9d00c2a8:	afbf002c 	sw	ra,44(sp)
9d00c2ac:	afb50028 	sw	s5,40(sp)
9d00c2b0:	afb30020 	sw	s3,32(sp)
9d00c2b4:	10430003 	beq	v0,v1,9d00c2c4 <free+0x50>
9d00c2b8:	2414fffe 	li	s4,-2
9d00c2bc:	a0000000 	sb	zero,0(zero)
9d00c2c0:	00000034 	teq	zero,zero
9d00c2c4:	8e020000 	lw	v0,0(s0)
9d00c2c8:	8e230004 	lw	v1,4(s1)
9d00c2cc:	00431024 	and	v0,v0,v1
9d00c2d0:	30420001 	andi	v0,v0,0x1
9d00c2d4:	1440000e 	bnez	v0,9d00c310 <free+0x9c>
9d00c2d8:	36420001 	ori	v0,s2,0x1
9d00c2dc:	0f403c78 	jal	9d00f1e0 <alloc_rev>
9d00c2e0:	02002025 	move	a0,s0
9d00c2e4:	54400041 	bnezl	v0,9d00c3ec <free+0x178>
9d00c2e8:	8e020000 	lw	v0,0(s0)
9d00c2ec:	0f403d22 	jal	9d00f488 <alloc_fwd>
9d00c2f0:	02202025 	move	a0,s1
9d00c2f4:	5040fff4 	beqzl	v0,9d00c2c8 <free+0x54>
9d00c2f8:	8e020000 	lw	v0,0(s0)
9d00c2fc:	8e220004 	lw	v0,4(s1)
9d00c300:	02821024 	and	v0,s4,v0
9d00c304:	02429021 	addu	s2,s2,v0
9d00c308:	1000ffee 	b	9d00c2c4 <free+0x50>
9d00c30c:	02228821 	addu	s1,s1,v0
9d00c310:	ae020004 	sw	v0,4(s0)
9d00c314:	02402025 	move	a0,s2
9d00c318:	0f403d8c 	jal	9d00f630 <bin_index>
9d00c31c:	ae220000 	sw	v0,0(s1)
9d00c320:	00402025 	move	a0,v0
9d00c324:	0f403fd0 	jal	9d00ff40 <lock_bin>
9d00c328:	00409825 	move	s3,v0
9d00c32c:	8e020000 	lw	v0,0(s0)
9d00c330:	8e230004 	lw	v1,4(s1)
9d00c334:	00431024 	and	v0,v0,v1
9d00c338:	30420001 	andi	v0,v0,0x1
9d00c33c:	1040ffe7 	beqz	v0,9d00c2dc <free+0x68>
9d00c340:	3c15a000 	lui	s5,0xa000
9d00c344:	8ea40148 	lw	a0,328(s5)
9d00c348:	8ea5014c 	lw	a1,332(s5)
9d00c34c:	02603025 	move	a2,s3
9d00c350:	0f403fa4 	jal	9d00fe90 <__lshrdi3>
9d00c354:	26b40148 	addiu	s4,s5,328
9d00c358:	30420001 	andi	v0,v0,0x1
9d00c35c:	1440000e 	bnez	v0,9d00c398 <free+0x124>
9d00c360:	00002825 	move	a1,zero
9d00c364:	02603025 	move	a2,s3
9d00c368:	0f403fb3 	jal	9d00fecc <__ashldi3>
9d00c36c:	24040001 	li	a0,1
9d00c370:	10400004 	beqz	v0,9d00c384 <free+0x110>
9d00c374:	00602825 	move	a1,v1
9d00c378:	8ea40148 	lw	a0,328(s5)
9d00c37c:	00822025 	or	a0,a0,v0
9d00c380:	aea40148 	sw	a0,328(s5)
9d00c384:	50a00005 	beqzl	a1,9d00c39c <free+0x128>
9d00c388:	26730001 	addiu	s3,s3,1
9d00c38c:	8e820004 	lw	v0,4(s4)
9d00c390:	00431025 	or	v0,v0,v1
9d00c394:	ae820004 	sw	v0,4(s4)
9d00c398:	26730001 	addiu	s3,s3,1
9d00c39c:	001398c0 	sll	s3,s3,0x3
9d00c3a0:	02939821 	addu	s3,s4,s3
9d00c3a4:	2662fff8 	addiu	v0,s3,-8
9d00c3a8:	ae120004 	sw	s2,4(s0)
9d00c3ac:	ae320000 	sw	s2,0(s1)
9d00c3b0:	ae020008 	sw	v0,8(s0)
9d00c3b4:	8e620004 	lw	v0,4(s3)
9d00c3b8:	8fbf002c 	lw	ra,44(sp)
9d00c3bc:	8fb50028 	lw	s5,40(sp)
9d00c3c0:	ae02000c 	sw	v0,12(s0)
9d00c3c4:	ae700004 	sw	s0,4(s3)
9d00c3c8:	8e02000c 	lw	v0,12(s0)
9d00c3cc:	8fb40024 	lw	s4,36(sp)
9d00c3d0:	8fb30020 	lw	s3,32(sp)
9d00c3d4:	ac500008 	sw	s0,8(v0)
9d00c3d8:	8fb2001c 	lw	s2,28(sp)
9d00c3dc:	8fb10018 	lw	s1,24(sp)
9d00c3e0:	8fb00014 	lw	s0,20(sp)
9d00c3e4:	03e00008 	jr	ra
9d00c3e8:	27bd0030 	addiu	sp,sp,48
9d00c3ec:	02821024 	and	v0,s4,v0
9d00c3f0:	02028023 	subu	s0,s0,v0
9d00c3f4:	8e020004 	lw	v0,4(s0)
9d00c3f8:	02821024 	and	v0,s4,v0
9d00c3fc:	1000ffbb 	b	9d00c2ec <free+0x78>
9d00c400:	02429021 	addu	s2,s2,v0
9d00c404:	03e00008 	jr	ra
9d00c408:	00000000 	nop

Disassembly of section .text.__pop_int:

9d00c40c <__pop_int>:
9d00c40c:	24020088 	li	v0,136
9d00c410:	10a2003f 	beq	a1,v0,9d00c510 <__pop_int+0x104>
9d00c414:	28a20089 	slti	v0,a1,137
9d00c418:	1040001a 	beqz	v0,9d00c484 <__pop_int+0x78>
9d00c41c:	24020081 	li	v0,129
9d00c420:	10a20054 	beq	a1,v0,9d00c574 <__pop_int+0x168>
9d00c424:	28a20082 	slti	v0,a1,130
9d00c428:	10400005 	beqz	v0,9d00c440 <__pop_int+0x34>
9d00c42c:	24020080 	li	v0,128
9d00c430:	50a20051 	beql	a1,v0,9d00c578 <__pop_int+0x16c>
9d00c434:	8ce20000 	lw	v0,0(a3)
9d00c438:	03e00008 	jr	ra
9d00c43c:	00001025 	move	v0,zero
9d00c440:	24020082 	li	v0,130
9d00c444:	50a2003b 	beql	a1,v0,9d00c534 <__pop_int+0x128>
9d00c448:	8ce20000 	lw	v0,0(a3)
9d00c44c:	24020084 	li	v0,132
9d00c450:	14a2fff9 	bne	a1,v0,9d00c438 <__pop_int+0x2c>
9d00c454:	00000000 	nop
9d00c458:	8ce20000 	lw	v0,0(a3)
9d00c45c:	24430004 	addiu	v1,v0,4
9d00c460:	8c420000 	lw	v0,0(v0)
9d00c464:	10c00027 	beqz	a2,9d00c504 <__pop_int+0xf8>
9d00c468:	ace30000 	sw	v1,0(a3)
9d00c46c:	7c021620 	seh	v0,v0
9d00c470:	ac820000 	sw	v0,0(a0)
9d00c474:	000217c3 	sra	v0,v0,0x1f
9d00c478:	ac820004 	sw	v0,4(a0)
9d00c47c:	03e00008 	jr	ra
9d00c480:	24020001 	li	v0,1
9d00c484:	240200a0 	li	v0,160
9d00c488:	50a20036 	beql	a1,v0,9d00c564 <__pop_int+0x158>
9d00c48c:	8ce20000 	lw	v0,0(a3)
9d00c490:	28a200a1 	slti	v0,a1,161
9d00c494:	10400010 	beqz	v0,9d00c4d8 <__pop_int+0xcc>
9d00c498:	24020090 	li	v0,144
9d00c49c:	14a2ffe6 	bne	a1,v0,9d00c438 <__pop_int+0x2c>
9d00c4a0:	00000000 	nop
9d00c4a4:	8ce20000 	lw	v0,0(a3)
9d00c4a8:	24420007 	addiu	v0,v0,7
9d00c4ac:	7c021004 	ins	v0,zero,0x0,0x3
9d00c4b0:	8c480000 	lw	t0,0(v0)
9d00c4b4:	8c490004 	lw	t1,4(v0)
9d00c4b8:	24420008 	addiu	v0,v0,8
9d00c4bc:	ace20000 	sw	v0,0(a3)
9d00c4c0:	ac880000 	sw	t0,0(a0)
9d00c4c4:	ac890004 	sw	t1,4(a0)
9d00c4c8:	10c00001 	beqz	a2,9d00c4d0 <__pop_int+0xc4>
9d00c4cc:	24020001 	li	v0,1
9d00c4d0:	03e00008 	jr	ra
9d00c4d4:	00000000 	nop
9d00c4d8:	240200c0 	li	v0,192
9d00c4dc:	50a20005 	beql	a1,v0,9d00c4f4 <__pop_int+0xe8>
9d00c4e0:	8ce20000 	lw	v0,0(a3)
9d00c4e4:	240200f0 	li	v0,240
9d00c4e8:	14a2ffd3 	bne	a1,v0,9d00c438 <__pop_int+0x2c>
9d00c4ec:	00000000 	nop
9d00c4f0:	8ce20000 	lw	v0,0(a3)
9d00c4f4:	24430004 	addiu	v1,v0,4
9d00c4f8:	ace30000 	sw	v1,0(a3)
9d00c4fc:	10000002 	b	9d00c508 <__pop_int+0xfc>
9d00c500:	8c420000 	lw	v0,0(v0)
9d00c504:	3042ffff 	andi	v0,v0,0xffff
9d00c508:	10000020 	b	9d00c58c <__pop_int+0x180>
9d00c50c:	ac820000 	sw	v0,0(a0)
9d00c510:	8ce20000 	lw	v0,0(a3)
9d00c514:	24430004 	addiu	v1,v0,4
9d00c518:	8c420000 	lw	v0,0(v0)
9d00c51c:	10c00003 	beqz	a2,9d00c52c <__pop_int+0x120>
9d00c520:	ace30000 	sw	v1,0(a3)
9d00c524:	1000ffd2 	b	9d00c470 <__pop_int+0x64>
9d00c528:	7c021420 	seb	v0,v0
9d00c52c:	1000fff6 	b	9d00c508 <__pop_int+0xfc>
9d00c530:	304200ff 	andi	v0,v0,0xff
9d00c534:	24420007 	addiu	v0,v0,7
9d00c538:	7c021004 	ins	v0,zero,0x0,0x3
9d00c53c:	8c480000 	lw	t0,0(v0)
9d00c540:	8c490004 	lw	t1,4(v0)
9d00c544:	24420008 	addiu	v0,v0,8
9d00c548:	ace20000 	sw	v0,0(a3)
9d00c54c:	ac880000 	sw	t0,0(a0)
9d00c550:	ac890004 	sw	t1,4(a0)
9d00c554:	10c0ffde 	beqz	a2,9d00c4d0 <__pop_int+0xc4>
9d00c558:	24020001 	li	v0,1
9d00c55c:	03e00008 	jr	ra
9d00c560:	00000000 	nop
9d00c564:	24430004 	addiu	v1,v0,4
9d00c568:	ace30000 	sw	v1,0(a3)
9d00c56c:	1000ffc0 	b	9d00c470 <__pop_int+0x64>
9d00c570:	8c420000 	lw	v0,0(v0)
9d00c574:	8ce20000 	lw	v0,0(a3)
9d00c578:	24430004 	addiu	v1,v0,4
9d00c57c:	ace30000 	sw	v1,0(a3)
9d00c580:	8c420000 	lw	v0,0(v0)
9d00c584:	14c0ffbb 	bnez	a2,9d00c474 <__pop_int+0x68>
9d00c588:	ac820000 	sw	v0,0(a0)
9d00c58c:	1000ffbb 	b	9d00c47c <__pop_int+0x70>
9d00c590:	ac800004 	sw	zero,4(a0)

Disassembly of section .text:

9d00c594 <i2c_master_setup>:
// I2C Master utilities, 400 kHz, using polling rather than interrupts
// The functions must be callled in the correct order as per the I2C protocol
// Master will use I2C1 (SET PINS) SDA1 (D9) and SCL1 (D10)

void i2c_master_setup(void) {
  I2C1BRG = 53; //53 for 400kHz    // I2CBRG = [1/(2*Fsck) - PGD]*Pblck - 2 
9d00c594:	3c02bf80 	lui	v0,0xbf80
9d00c598:	24030035 	li	v1,53
9d00c59c:	ac435040 	sw	v1,20544(v0)
                                    // Fsck is the SCL freq, PGD = 104 ns
  I2C1CONbits.ON = 1;               // turn on the I2C1 module
9d00c5a0:	3c02bf80 	lui	v0,0xbf80
9d00c5a4:	94435000 	lhu	v1,20480(v0)
9d00c5a8:	24040001 	li	a0,1
9d00c5ac:	7c837bc4 	ins	v1,a0,0xf,0x1
9d00c5b0:	a4435000 	sh	v1,20480(v0)
}
9d00c5b4:	03e00008 	jr	ra
9d00c5b8:	00000000 	nop

9d00c5bc <i2c_master_start>:

// Start a transmission on the I2C bus
void i2c_master_start(void) {
    I2C1CONbits.SEN = 1;            // send the start bit
9d00c5bc:	3c02bf80 	lui	v0,0xbf80
9d00c5c0:	94435000 	lhu	v1,20480(v0)
9d00c5c4:	24040001 	li	a0,1
9d00c5c8:	7c830004 	ins	v1,a0,0x0,0x1
9d00c5cc:	a4435000 	sh	v1,20480(v0)
    while(I2C1CONbits.SEN) { ; }    // wait for the start bit to be sent
9d00c5d0:	00401825 	move	v1,v0
9d00c5d4:	8c625000 	lw	v0,20480(v1)
9d00c5d8:	30420001 	andi	v0,v0,0x1
9d00c5dc:	1440fffd 	bnez	v0,9d00c5d4 <i2c_master_start+0x18>
9d00c5e0:	00000000 	nop
}
9d00c5e4:	03e00008 	jr	ra
9d00c5e8:	00000000 	nop

9d00c5ec <i2c_master_restart>:

void i2c_master_restart(void) {     
    I2C1CONbits.RSEN = 1;           // send a restart 
9d00c5ec:	3c02bf80 	lui	v0,0xbf80
9d00c5f0:	94435000 	lhu	v1,20480(v0)
9d00c5f4:	24040001 	li	a0,1
9d00c5f8:	7c830844 	ins	v1,a0,0x1,0x1
9d00c5fc:	a4435000 	sh	v1,20480(v0)
    while(I2C1CONbits.RSEN) { ; }   // wait for the restart to clear
9d00c600:	00401825 	move	v1,v0
9d00c604:	8c625000 	lw	v0,20480(v1)
9d00c608:	7c420040 	ext	v0,v0,0x1,0x1
9d00c60c:	1440fffd 	bnez	v0,9d00c604 <i2c_master_restart+0x18>
9d00c610:	00000000 	nop
}
9d00c614:	03e00008 	jr	ra
9d00c618:	00000000 	nop

9d00c61c <i2c_master_send>:

void i2c_master_send(unsigned char byte) { // send a byte to slave
  I2C1TRN = byte;                   // if an address, bit 0 = 0 for write, 1 for read
9d00c61c:	3c02bf80 	lui	v0,0xbf80
9d00c620:	ac445050 	sw	a0,20560(v0)
  while(I2C1STATbits.TRSTAT) { ; }  // wait for the transmission to finish
9d00c624:	3c03bf80 	lui	v1,0xbf80
9d00c628:	8c625010 	lw	v0,20496(v1)
9d00c62c:	7c420380 	ext	v0,v0,0xe,0x1
9d00c630:	1440fffd 	bnez	v0,9d00c628 <i2c_master_send+0xc>
9d00c634:	3c02bf80 	lui	v0,0xbf80
  if(I2C1STATbits.ACKSTAT) {        // if this is high, slave has not acknowledged
9d00c638:	8c425010 	lw	v0,20496(v0)
9d00c63c:	7c4203c0 	ext	v0,v0,0xf,0x1
9d00c640:	10400008 	beqz	v0,9d00c664 <i2c_master_send+0x48>
9d00c644:	3c049d00 	lui	a0,0x9d00
void i2c_master_send(unsigned char byte) { // send a byte to slave
9d00c648:	27bdffe8 	addiu	sp,sp,-24
9d00c64c:	afbf0014 	sw	ra,20(sp)
    NU32DIP_WriteUART1("I2C2 Master: failed to receive ACK\r\n");
9d00c650:	0f40308e 	jal	9d00c238 <NU32DIP_WriteUART1>
9d00c654:	24847494 	addiu	a0,a0,29844
  }
}
9d00c658:	8fbf0014 	lw	ra,20(sp)
9d00c65c:	03e00008 	jr	ra
9d00c660:	27bd0018 	addiu	sp,sp,24
9d00c664:	03e00008 	jr	ra
9d00c668:	00000000 	nop

9d00c66c <i2c_master_recv>:

unsigned char i2c_master_recv(void) { // receive a byte from the slave
    I2C1CONbits.RCEN = 1;             // start receiving data
9d00c66c:	3c02bf80 	lui	v0,0xbf80
9d00c670:	94435000 	lhu	v1,20480(v0)
9d00c674:	24040001 	li	a0,1
9d00c678:	7c8318c4 	ins	v1,a0,0x3,0x1
9d00c67c:	a4435000 	sh	v1,20480(v0)
    while(!I2C1STATbits.RBF) { ; }    // wait to receive the data
9d00c680:	3c03bf80 	lui	v1,0xbf80
9d00c684:	8c625010 	lw	v0,20496(v1)
9d00c688:	7c420040 	ext	v0,v0,0x1,0x1
9d00c68c:	1040fffd 	beqz	v0,9d00c684 <i2c_master_recv+0x18>
9d00c690:	3c02bf80 	lui	v0,0xbf80
    return I2C1RCV;                   // read and return the data
9d00c694:	8c425060 	lw	v0,20576(v0)
}
9d00c698:	03e00008 	jr	ra
9d00c69c:	304200ff 	andi	v0,v0,0xff

9d00c6a0 <i2c_master_ack>:

void i2c_master_ack(int val) {        // sends ACK = 0 (slave should send another byte)
                                      // or NACK = 1 (no more bytes requested from slave)
    I2C1CONbits.ACKDT = val;          // store ACK/NACK in ACKDT
9d00c6a0:	3c02bf80 	lui	v0,0xbf80
9d00c6a4:	94435000 	lhu	v1,20480(v0)
9d00c6a8:	7c832944 	ins	v1,a0,0x5,0x1
9d00c6ac:	a4435000 	sh	v1,20480(v0)
    I2C1CONbits.ACKEN = 1;            // send ACKDT
9d00c6b0:	94435000 	lhu	v1,20480(v0)
9d00c6b4:	24040001 	li	a0,1
9d00c6b8:	7c832104 	ins	v1,a0,0x4,0x1
9d00c6bc:	a4435000 	sh	v1,20480(v0)
    while(I2C1CONbits.ACKEN) { ; }    // wait for ACK/NACK to be sent
9d00c6c0:	00401825 	move	v1,v0
9d00c6c4:	8c625000 	lw	v0,20480(v1)
9d00c6c8:	7c420100 	ext	v0,v0,0x4,0x1
9d00c6cc:	1440fffd 	bnez	v0,9d00c6c4 <i2c_master_ack+0x24>
9d00c6d0:	00000000 	nop
}
9d00c6d4:	03e00008 	jr	ra
9d00c6d8:	00000000 	nop

9d00c6dc <i2c_master_stop>:

void i2c_master_stop(void) {          // send a STOP:
  I2C1CONbits.PEN = 1;                // comm is complete and master relinquishes bus
9d00c6dc:	3c02bf80 	lui	v0,0xbf80
9d00c6e0:	94435000 	lhu	v1,20480(v0)
9d00c6e4:	24040001 	li	a0,1
9d00c6e8:	7c831084 	ins	v1,a0,0x2,0x1
9d00c6ec:	a4435000 	sh	v1,20480(v0)
  while(I2C1CONbits.PEN) { ; }        // wait for STOP to complete
9d00c6f0:	00401825 	move	v1,v0
9d00c6f4:	8c625000 	lw	v0,20480(v1)
9d00c6f8:	7c420080 	ext	v0,v0,0x2,0x1
9d00c6fc:	1440fffd 	bnez	v0,9d00c6f4 <i2c_master_stop+0x18>
9d00c700:	00000000 	nop
}
9d00c704:	03e00008 	jr	ra
9d00c708:	00000000 	nop

Disassembly of section .text.__push_int:

9d00c70c <__push_int>:
9d00c70c:	24020088 	li	v0,136
9d00c710:	50a2003c 	beql	a1,v0,9d00c804 <__push_int+0xf8>
9d00c714:	8ce20000 	lw	v0,0(a3)
9d00c718:	28a20089 	slti	v0,a1,137
9d00c71c:	10400019 	beqz	v0,9d00c784 <__push_int+0x78>
9d00c720:	24020081 	li	v0,129
9d00c724:	50a20040 	beql	a1,v0,9d00c828 <__push_int+0x11c>
9d00c728:	8ce20000 	lw	v0,0(a3)
9d00c72c:	28a20082 	slti	v0,a1,130
9d00c730:	10400005 	beqz	v0,9d00c748 <__push_int+0x3c>
9d00c734:	24020080 	li	v0,128
9d00c738:	50a20048 	beql	a1,v0,9d00c85c <__push_int+0x150>
9d00c73c:	8ce20000 	lw	v0,0(a3)
9d00c740:	03e00008 	jr	ra
9d00c744:	00001025 	move	v0,zero
9d00c748:	24020082 	li	v0,130
9d00c74c:	10a20015 	beq	a1,v0,9d00c7a4 <__push_int+0x98>
9d00c750:	24020084 	li	v0,132
9d00c754:	14a2fffa 	bne	a1,v0,9d00c740 <__push_int+0x34>
9d00c758:	00000000 	nop
9d00c75c:	8ce20000 	lw	v0,0(a3)
9d00c760:	8c830000 	lw	v1,0(a0)
9d00c764:	24440004 	addiu	a0,v0,4
9d00c768:	ace40000 	sw	a0,0(a3)
9d00c76c:	8c420000 	lw	v0,0(v0)
9d00c770:	a4430000 	sh	v1,0(v0)
9d00c774:	10c00001 	beqz	a2,9d00c77c <__push_int+0x70>
9d00c778:	24020001 	li	v0,1
9d00c77c:	03e00008 	jr	ra
9d00c780:	00000000 	nop
9d00c784:	240200a0 	li	v0,160
9d00c788:	50a20018 	beql	a1,v0,9d00c7ec <__push_int+0xe0>
9d00c78c:	8ce20000 	lw	v0,0(a3)
9d00c790:	28a200a1 	slti	v0,a1,161
9d00c794:	1040000e 	beqz	v0,9d00c7d0 <__push_int+0xc4>
9d00c798:	24020090 	li	v0,144
9d00c79c:	14a2ffe8 	bne	a1,v0,9d00c740 <__push_int+0x34>
9d00c7a0:	00000000 	nop
9d00c7a4:	8ce20000 	lw	v0,0(a3)
9d00c7a8:	10c00028 	beqz	a2,9d00c84c <__push_int+0x140>
9d00c7ac:	24430004 	addiu	v1,v0,4
9d00c7b0:	ace30000 	sw	v1,0(a3)
9d00c7b4:	8c850004 	lw	a1,4(a0)
9d00c7b8:	8c840000 	lw	a0,0(a0)
9d00c7bc:	8c420000 	lw	v0,0(v0)
9d00c7c0:	ac440000 	sw	a0,0(v0)
9d00c7c4:	ac450004 	sw	a1,4(v0)
9d00c7c8:	03e00008 	jr	ra
9d00c7cc:	24020001 	li	v0,1
9d00c7d0:	240200c0 	li	v0,192
9d00c7d4:	50a20005 	beql	a1,v0,9d00c7ec <__push_int+0xe0>
9d00c7d8:	8ce20000 	lw	v0,0(a3)
9d00c7dc:	240200f0 	li	v0,240
9d00c7e0:	14a2ffd7 	bne	a1,v0,9d00c740 <__push_int+0x34>
9d00c7e4:	00000000 	nop
9d00c7e8:	8ce20000 	lw	v0,0(a3)
9d00c7ec:	8c830000 	lw	v1,0(a0)
9d00c7f0:	24440004 	addiu	a0,v0,4
9d00c7f4:	ace40000 	sw	a0,0(a3)
9d00c7f8:	8c420000 	lw	v0,0(v0)
9d00c7fc:	1000fff2 	b	9d00c7c8 <__push_int+0xbc>
9d00c800:	ac430000 	sw	v1,0(v0)
9d00c804:	8c830000 	lw	v1,0(a0)
9d00c808:	24440004 	addiu	a0,v0,4
9d00c80c:	ace40000 	sw	a0,0(a3)
9d00c810:	8c420000 	lw	v0,0(v0)
9d00c814:	a0430000 	sb	v1,0(v0)
9d00c818:	10c0ffd8 	beqz	a2,9d00c77c <__push_int+0x70>
9d00c81c:	24020001 	li	v0,1
9d00c820:	03e00008 	jr	ra
9d00c824:	00000000 	nop
9d00c828:	8c830000 	lw	v1,0(a0)
9d00c82c:	24440004 	addiu	a0,v0,4
9d00c830:	ace40000 	sw	a0,0(a3)
9d00c834:	8c420000 	lw	v0,0(v0)
9d00c838:	ac430000 	sw	v1,0(v0)
9d00c83c:	10c0ffcf 	beqz	a2,9d00c77c <__push_int+0x70>
9d00c840:	24020001 	li	v0,1
9d00c844:	03e00008 	jr	ra
9d00c848:	00000000 	nop
9d00c84c:	8c850004 	lw	a1,4(a0)
9d00c850:	8c840000 	lw	a0,0(a0)
9d00c854:	1000ffd9 	b	9d00c7bc <__push_int+0xb0>
9d00c858:	ace30000 	sw	v1,0(a3)
9d00c85c:	8c830000 	lw	v1,0(a0)
9d00c860:	24440004 	addiu	a0,v0,4
9d00c864:	ace40000 	sw	a0,0(a3)
9d00c868:	8c420000 	lw	v0,0(v0)
9d00c86c:	ac430000 	sw	v1,0(v0)
9d00c870:	24020001 	li	v0,1
9d00c874:	03e00008 	jr	ra
9d00c878:	00000000 	nop

Disassembly of section .text:

9d00c87c <writeINA219>:
  float ma = value / 3.0;
  return ma;
}

// write 2 bytes
void writeINA219(unsigned char reg, unsigned short value){
9d00c87c:	27bdffe0 	addiu	sp,sp,-32
9d00c880:	afbf001c 	sw	ra,28(sp)
9d00c884:	afb10018 	sw	s1,24(sp)
9d00c888:	afb00014 	sw	s0,20(sp)
9d00c88c:	00808825 	move	s1,a0
  i2c_master_start();
9d00c890:	0f40316f 	jal	9d00c5bc <i2c_master_start>
9d00c894:	00a08025 	move	s0,a1
  i2c_master_send(INA219_ADDR<<1); // write to the INA219
9d00c898:	0f403187 	jal	9d00c61c <i2c_master_send>
9d00c89c:	24040080 	li	a0,128
  i2c_master_send(reg); // the reg to write to
9d00c8a0:	0f403187 	jal	9d00c61c <i2c_master_send>
9d00c8a4:	02202025 	move	a0,s1
  i2c_master_send(value>>8);
9d00c8a8:	0f403187 	jal	9d00c61c <i2c_master_send>
9d00c8ac:	00102202 	srl	a0,s0,0x8
  i2c_master_send(value&0xff);
9d00c8b0:	0f403187 	jal	9d00c61c <i2c_master_send>
9d00c8b4:	320400ff 	andi	a0,s0,0xff
  i2c_master_stop();
9d00c8b8:	0f4031b7 	jal	9d00c6dc <i2c_master_stop>
9d00c8bc:	00000000 	nop
}
9d00c8c0:	8fbf001c 	lw	ra,28(sp)
9d00c8c4:	8fb10018 	lw	s1,24(sp)
9d00c8c8:	8fb00014 	lw	s0,20(sp)
9d00c8cc:	03e00008 	jr	ra
9d00c8d0:	27bd0020 	addiu	sp,sp,32

9d00c8d4 <INA219_Startup>:
void INA219_Startup() {
9d00c8d4:	27bdffe8 	addiu	sp,sp,-24
9d00c8d8:	afbf0014 	sw	ra,20(sp)
  __builtin_disable_interrupts();
9d00c8dc:	41626000 	di	v0
9d00c8e0:	000000c0 	ehb
  i2c_master_setup();
9d00c8e4:	0f403165 	jal	9d00c594 <i2c_master_setup>
9d00c8e8:	00000000 	nop
  writeINA219(INA219_REG_CALIBRATION, ina219_calValue);
9d00c8ec:	24050400 	li	a1,1024
9d00c8f0:	0f40321f 	jal	9d00c87c <writeINA219>
9d00c8f4:	24040005 	li	a0,5
  writeINA219(INA219_REG_CONFIG, ina219_config);
9d00c8f8:	2405308f 	li	a1,12431
9d00c8fc:	0f40321f 	jal	9d00c87c <writeINA219>
9d00c900:	00002025 	move	a0,zero
  __builtin_enable_interrupts();
9d00c904:	41626020 	ei	v0
}
9d00c908:	8fbf0014 	lw	ra,20(sp)
9d00c90c:	03e00008 	jr	ra
9d00c910:	27bd0018 	addiu	sp,sp,24

9d00c914 <readINA219>:

// read 2 bytes
signed short readINA219(unsigned char reg){
9d00c914:	27bdffe0 	addiu	sp,sp,-32
9d00c918:	afbf001c 	sw	ra,28(sp)
9d00c91c:	afb10018 	sw	s1,24(sp)
9d00c920:	afb00014 	sw	s0,20(sp)
  i2c_master_start();
9d00c924:	0f40316f 	jal	9d00c5bc <i2c_master_start>
9d00c928:	00808025 	move	s0,a0
  i2c_master_send(INA219_ADDR<<1); // write to the INA219
9d00c92c:	0f403187 	jal	9d00c61c <i2c_master_send>
9d00c930:	24040080 	li	a0,128
  i2c_master_send(reg); // the reg to read from
9d00c934:	0f403187 	jal	9d00c61c <i2c_master_send>
9d00c938:	02002025 	move	a0,s0
  i2c_master_restart();
9d00c93c:	0f40317b 	jal	9d00c5ec <i2c_master_restart>
9d00c940:	00000000 	nop
  i2c_master_send((INA219_ADDR<<1)|0b1); // read from the INA219
9d00c944:	0f403187 	jal	9d00c61c <i2c_master_send>
9d00c948:	24040081 	li	a0,129
  unsigned char r1 = i2c_master_recv();
9d00c94c:	0f40319b 	jal	9d00c66c <i2c_master_recv>
9d00c950:	00000000 	nop
9d00c954:	00408025 	move	s0,v0
  i2c_master_ack(0); // read again
9d00c958:	0f4031a8 	jal	9d00c6a0 <i2c_master_ack>
9d00c95c:	00002025 	move	a0,zero
  unsigned char r2 = i2c_master_recv();
9d00c960:	0f40319b 	jal	9d00c66c <i2c_master_recv>
9d00c964:	00000000 	nop
9d00c968:	00408825 	move	s1,v0
  i2c_master_ack(1); // no more reads
9d00c96c:	0f4031a8 	jal	9d00c6a0 <i2c_master_ack>
9d00c970:	24040001 	li	a0,1
  i2c_master_stop();
9d00c974:	0f4031b7 	jal	9d00c6dc <i2c_master_stop>
9d00c978:	00000000 	nop

  signed short value = (r1<<8)|r2;
9d00c97c:	00101200 	sll	v0,s0,0x8
9d00c980:	00511025 	or	v0,v0,s1
  return value;
}
9d00c984:	7c021620 	seh	v0,v0
9d00c988:	8fbf001c 	lw	ra,28(sp)
9d00c98c:	8fb10018 	lw	s1,24(sp)
9d00c990:	8fb00014 	lw	s0,20(sp)
9d00c994:	03e00008 	jr	ra
9d00c998:	27bd0020 	addiu	sp,sp,32

9d00c99c <INA219_read_current>:
float INA219_read_current(){
9d00c99c:	27bdffe8 	addiu	sp,sp,-24
9d00c9a0:	afbf0014 	sw	ra,20(sp)
  signed short value = readINA219(INA219_REG_CURRENT);
9d00c9a4:	0f403245 	jal	9d00c914 <readINA219>
9d00c9a8:	24040004 	li	a0,4
  float ma = value / 3.0;
9d00c9ac:	0f403c5a 	jal	9d00f168 <__floatsidf>
9d00c9b0:	00402025 	move	a0,v0
9d00c9b4:	3c049d00 	lui	a0,0x9d00
9d00c9b8:	8c8674c8 	lw	a2,29896(a0)
9d00c9bc:	8c8774cc 	lw	a3,29900(a0)
9d00c9c0:	00402025 	move	a0,v0
9d00c9c4:	0f402666 	jal	9d009998 <__divdf3>
9d00c9c8:	00602825 	move	a1,v1
9d00c9cc:	00402025 	move	a0,v0
9d00c9d0:	0f4036fd 	jal	9d00dbf4 <__truncdfsf2>
9d00c9d4:	00602825 	move	a1,v1
}
9d00c9d8:	8fbf0014 	lw	ra,20(sp)
9d00c9dc:	03e00008 	jr	ra
9d00c9e0:	27bd0018 	addiu	sp,sp,24

Disassembly of section .text.__scan_s:

9d00c9e4 <__scan_s>:
9d00c9e4:	27bdffc8 	addiu	sp,sp,-56
9d00c9e8:	afb50028 	sw	s5,40(sp)
9d00c9ec:	afb30020 	sw	s3,32(sp)
9d00c9f0:	afb2001c 	sw	s2,28(sp)
9d00c9f4:	afb10018 	sw	s1,24(sp)
9d00c9f8:	afb00014 	sw	s0,20(sp)
9d00c9fc:	afbf0034 	sw	ra,52(sp)
9d00ca00:	afb70030 	sw	s7,48(sp)
9d00ca04:	afb6002c 	sw	s6,44(sp)
9d00ca08:	afb40024 	sw	s4,36(sp)
9d00ca0c:	0080a825 	move	s5,a0
9d00ca10:	00a08025 	move	s0,a1
9d00ca14:	00c09825 	move	s3,a2
9d00ca18:	00e09025 	move	s2,a3
9d00ca1c:	10c00006 	beqz	a2,9d00ca38 <__scan_s+0x54>
9d00ca20:	8fb10048 	lw	s1,72(sp)
9d00ca24:	0f403944 	jal	9d00e510 <__skipws>
9d00ca28:	00000000 	nop
9d00ca2c:	8e430000 	lw	v1,0(s2)
9d00ca30:	00621021 	addu	v0,v1,v0
9d00ca34:	ae420000 	sw	v0,0(s2)
9d00ca38:	8e140008 	lw	s4,8(s0)
9d00ca3c:	2416ffff 	li	s6,-1
9d00ca40:	00008025 	move	s0,zero
9d00ca44:	24170020 	li	s7,32
9d00ca48:	12800003 	beqz	s4,9d00ca58 <__scan_s+0x74>
9d00ca4c:	0214102a 	slt	v0,s0,s4
9d00ca50:	1040001f 	beqz	v0,9d00cad0 <__scan_s+0xec>
9d00ca54:	00000000 	nop
9d00ca58:	8ea2003c 	lw	v0,60(s5)
9d00ca5c:	8ea3004c 	lw	v1,76(s5)
9d00ca60:	0043182b 	sltu	v1,v0,v1
9d00ca64:	10600014 	beqz	v1,9d00cab8 <__scan_s+0xd4>
9d00ca68:	24430001 	addiu	v1,v0,1
9d00ca6c:	aea3003c 	sw	v1,60(s5)
9d00ca70:	90420000 	lbu	v0,0(v0)
9d00ca74:	12600024 	beqz	s3,9d00cb08 <__scan_s+0x124>
9d00ca78:	00000000 	nop
9d00ca7c:	10570004 	beq	v0,s7,9d00ca90 <__scan_s+0xac>
9d00ca80:	2443fff7 	addiu	v1,v0,-9
9d00ca84:	2c630005 	sltiu	v1,v1,5
9d00ca88:	1060001f 	beqz	v1,9d00cb08 <__scan_s+0x124>
9d00ca8c:	00000000 	nop
9d00ca90:	8ea2004c 	lw	v0,76(s5)
9d00ca94:	10400004 	beqz	v0,9d00caa8 <__scan_s+0xc4>
9d00ca98:	00000000 	nop
9d00ca9c:	8ea2003c 	lw	v0,60(s5)
9d00caa0:	2442ffff 	addiu	v0,v0,-1
9d00caa4:	aea2003c 	sw	v0,60(s5)
9d00caa8:	16200021 	bnez	s1,9d00cb30 <__scan_s+0x14c>
9d00caac:	0010102b 	sltu	v0,zero,s0
9d00cab0:	1000000b 	b	9d00cae0 <__scan_s+0xfc>
9d00cab4:	8fbf0034 	lw	ra,52(sp)
9d00cab8:	0f403917 	jal	9d00e45c <__shgetc>
9d00cabc:	02a02025 	move	a0,s5
9d00cac0:	1456ffec 	bne	v0,s6,9d00ca74 <__scan_s+0x90>
9d00cac4:	00000000 	nop
9d00cac8:	12000005 	beqz	s0,9d00cae0 <__scan_s+0xfc>
9d00cacc:	8fbf0034 	lw	ra,52(sp)
9d00cad0:	16200015 	bnez	s1,9d00cb28 <__scan_s+0x144>
9d00cad4:	00000000 	nop
9d00cad8:	0010102b 	sltu	v0,zero,s0
9d00cadc:	8fbf0034 	lw	ra,52(sp)
9d00cae0:	8fb70030 	lw	s7,48(sp)
9d00cae4:	8fb6002c 	lw	s6,44(sp)
9d00cae8:	8fb50028 	lw	s5,40(sp)
9d00caec:	8fb40024 	lw	s4,36(sp)
9d00caf0:	8fb30020 	lw	s3,32(sp)
9d00caf4:	8fb2001c 	lw	s2,28(sp)
9d00caf8:	8fb10018 	lw	s1,24(sp)
9d00cafc:	8fb00014 	lw	s0,20(sp)
9d00cb00:	03e00008 	jr	ra
9d00cb04:	27bd0038 	addiu	sp,sp,56
9d00cb08:	12200002 	beqz	s1,9d00cb14 <__scan_s+0x130>
9d00cb0c:	02301821 	addu	v1,s1,s0
9d00cb10:	a0620000 	sb	v0,0(v1)
9d00cb14:	8e420000 	lw	v0,0(s2)
9d00cb18:	26100001 	addiu	s0,s0,1
9d00cb1c:	24420001 	addiu	v0,v0,1
9d00cb20:	1000ffc9 	b	9d00ca48 <__scan_s+0x64>
9d00cb24:	ae420000 	sw	v0,0(s2)
9d00cb28:	1260ffec 	beqz	s3,9d00cadc <__scan_s+0xf8>
9d00cb2c:	0010102b 	sltu	v0,zero,s0
9d00cb30:	02308821 	addu	s1,s1,s0
9d00cb34:	1000ffe8 	b	9d00cad8 <__scan_s+0xf4>
9d00cb38:	a2200000 	sb	zero,0(s1)

Disassembly of section .text.__scan_o:

9d00cb3c <__scan_o>:
9d00cb3c:	27bdffc0 	addiu	sp,sp,-64
9d00cb40:	afb60034 	sw	s6,52(sp)
9d00cb44:	8cd60008 	lw	s6,8(a2)
9d00cb48:	afb50030 	sw	s5,48(sp)
9d00cb4c:	afb4002c 	sw	s4,44(sp)
9d00cb50:	afb30028 	sw	s3,40(sp)
9d00cb54:	afb20024 	sw	s2,36(sp)
9d00cb58:	afb10020 	sw	s1,32(sp)
9d00cb5c:	afbf003c 	sw	ra,60(sp)
9d00cb60:	afb70038 	sw	s7,56(sp)
9d00cb64:	afb0001c 	sw	s0,28(sp)
9d00cb68:	00808825 	move	s1,a0
9d00cb6c:	00a0a825 	move	s5,a1
9d00cb70:	00e0a025 	move	s4,a3
9d00cb74:	8cd30010 	lw	s3,16(a2)
9d00cb78:	0f403944 	jal	9d00e510 <__skipws>
9d00cb7c:	8cd2000c 	lw	s2,12(a2)
9d00cb80:	52c00001 	beqzl	s6,9d00cb88 <__scan_o+0x4c>
9d00cb84:	2676ffff 	addiu	s6,s3,-1
9d00cb88:	8e830000 	lw	v1,0(s4)
9d00cb8c:	00008025 	move	s0,zero
9d00cb90:	2673ffff 	addiu	s3,s3,-1
9d00cb94:	00621821 	addu	v1,v1,v0
9d00cb98:	ae830000 	sw	v1,0(s4)
9d00cb9c:	2417ffff 	li	s7,-1
9d00cba0:	0216102a 	slt	v0,s0,s6
9d00cba4:	1040001b 	beqz	v0,9d00cc14 <__scan_o+0xd8>
9d00cba8:	0213102a 	slt	v0,s0,s3
9d00cbac:	5040001a 	beqzl	v0,9d00cc18 <__scan_o+0xdc>
9d00cbb0:	02508021 	addu	s0,s2,s0
9d00cbb4:	8e22003c 	lw	v0,60(s1)
9d00cbb8:	8e23004c 	lw	v1,76(s1)
9d00cbbc:	0043182b 	sltu	v1,v0,v1
9d00cbc0:	1060000e 	beqz	v1,9d00cbfc <__scan_o+0xc0>
9d00cbc4:	24430001 	addiu	v1,v0,1
9d00cbc8:	ae23003c 	sw	v1,60(s1)
9d00cbcc:	90420000 	lbu	v0,0(v0)
9d00cbd0:	2443ffd0 	addiu	v1,v0,-48
9d00cbd4:	2c630008 	sltiu	v1,v1,8
9d00cbd8:	14600027 	bnez	v1,9d00cc78 <__scan_o+0x13c>
9d00cbdc:	02501821 	addu	v1,s2,s0
9d00cbe0:	8e22004c 	lw	v0,76(s1)
9d00cbe4:	5040000c 	beqzl	v0,9d00cc18 <__scan_o+0xdc>
9d00cbe8:	02508021 	addu	s0,s2,s0
9d00cbec:	8e22003c 	lw	v0,60(s1)
9d00cbf0:	2442ffff 	addiu	v0,v0,-1
9d00cbf4:	10000007 	b	9d00cc14 <__scan_o+0xd8>
9d00cbf8:	ae22003c 	sw	v0,60(s1)
9d00cbfc:	0f403917 	jal	9d00e45c <__shgetc>
9d00cc00:	02202025 	move	a0,s1
9d00cc04:	1457fff3 	bne	v0,s7,9d00cbd4 <__scan_o+0x98>
9d00cc08:	2443ffd0 	addiu	v1,v0,-48
9d00cc0c:	12000010 	beqz	s0,9d00cc50 <__scan_o+0x114>
9d00cc10:	8fbf003c 	lw	ra,60(sp)
9d00cc14:	02508021 	addu	s0,s2,s0
9d00cc18:	02402025 	move	a0,s2
9d00cc1c:	a2000000 	sb	zero,0(s0)
9d00cc20:	24060008 	li	a2,8
9d00cc24:	0f403ff6 	jal	9d00ffd8 <strtoull>
9d00cc28:	27a50010 	addiu	a1,sp,16
9d00cc2c:	aea20000 	sw	v0,0(s5)
9d00cc30:	8fa20010 	lw	v0,16(sp)
9d00cc34:	aea30004 	sw	v1,4(s5)
9d00cc38:	2404fffe 	li	a0,-2
9d00cc3c:	00521026 	xor	v0,v0,s2
9d00cc40:	24030001 	li	v1,1
9d00cc44:	0082180a 	movz	v1,a0,v0
9d00cc48:	00601025 	move	v0,v1
9d00cc4c:	8fbf003c 	lw	ra,60(sp)
9d00cc50:	8fb70038 	lw	s7,56(sp)
9d00cc54:	8fb60034 	lw	s6,52(sp)
9d00cc58:	8fb50030 	lw	s5,48(sp)
9d00cc5c:	8fb4002c 	lw	s4,44(sp)
9d00cc60:	8fb30028 	lw	s3,40(sp)
9d00cc64:	8fb20024 	lw	s2,36(sp)
9d00cc68:	8fb10020 	lw	s1,32(sp)
9d00cc6c:	8fb0001c 	lw	s0,28(sp)
9d00cc70:	03e00008 	jr	ra
9d00cc74:	27bd0040 	addiu	sp,sp,64
9d00cc78:	a0620000 	sb	v0,0(v1)
9d00cc7c:	8e820000 	lw	v0,0(s4)
9d00cc80:	26100001 	addiu	s0,s0,1
9d00cc84:	24420001 	addiu	v0,v0,1
9d00cc88:	1000ffc5 	b	9d00cba0 <__scan_o+0x64>
9d00cc8c:	ae820000 	sw	v0,0(s4)

Disassembly of section .text._sbrk_init:

9d00cc90 <_sbrk_init>:
9d00cc90:	27bdffd8 	addiu	sp,sp,-40
9d00cc94:	afb40020 	sw	s4,32(sp)
9d00cc98:	3c14a000 	lui	s4,0xa000
9d00cc9c:	8e8203b8 	lw	v0,952(s4)
9d00cca0:	afbf0024 	sw	ra,36(sp)
9d00cca4:	afb3001c 	sw	s3,28(sp)
9d00cca8:	afb20018 	sw	s2,24(sp)
9d00ccac:	afb10014 	sw	s1,20(sp)
9d00ccb0:	1440003a 	bnez	v0,9d00cd9c <_sbrk_init+0x10c>
9d00ccb4:	afb00010 	sw	s0,16(sp)
9d00ccb8:	3c12a000 	lui	s2,0xa000
9d00ccbc:	8e5103c0 	lw	s1,960(s2)
9d00ccc0:	16200003 	bnez	s1,9d00ccd0 <_sbrk_init+0x40>
9d00ccc4:	3c13a000 	lui	s3,0xa000
9d00ccc8:	3c11a000 	lui	s1,0xa000
9d00cccc:	263103d0 	addiu	s1,s1,976
9d00ccd0:	8e7003bc 	lw	s0,956(s3)
9d00ccd4:	16000005 	bnez	s0,9d00ccec <_sbrk_init+0x5c>
9d00ccd8:	3c020000 	lui	v0,0x0
9d00ccdc:	3c10a000 	lui	s0,0xa000
9d00cce0:	261003d0 	addiu	s0,s0,976
9d00cce4:	24420000 	addiu	v0,v0,0
9d00cce8:	02028021 	addu	s0,s0,v0
9d00ccec:	00111f82 	srl	v1,s1,0x1e
9d00ccf0:	24020002 	li	v0,2
9d00ccf4:	50620001 	beql	v1,v0,9d00ccfc <_sbrk_init+0x6c>
9d00ccf8:	7e31e000 	ext	s1,s1,0x0,0x1d
9d00ccfc:	00101f82 	srl	v1,s0,0x1e
9d00cd00:	24020002 	li	v0,2
9d00cd04:	50620001 	beql	v1,v0,9d00cd0c <_sbrk_init+0x7c>
9d00cd08:	7e10e000 	ext	s0,s0,0x0,0x1d
9d00cd0c:	0f40404e 	jal	9d010138 <_stub_sbd_memlayout>
9d00cd10:	00000000 	nop
9d00cd14:	8c430000 	lw	v1,0(v0)
9d00cd18:	8c420004 	lw	v0,4(v0)
9d00cd1c:	0223202b 	sltu	a0,s1,v1
9d00cd20:	14800004 	bnez	a0,9d00cd34 <_sbrk_init+0xa4>
9d00cd24:	00621021 	addu	v0,v1,v0
9d00cd28:	0222202b 	sltu	a0,s1,v0
9d00cd2c:	54800029 	bnezl	a0,9d00cdd4 <_sbrk_init+0x144>
9d00cd30:	0211182b 	sltu	v1,s0,s1
9d00cd34:	3c04a000 	lui	a0,0xa000
9d00cd38:	24840080 	addiu	a0,a0,128
9d00cd3c:	7c84e000 	ext	a0,a0,0x0,0x1d
9d00cd40:	0064202b 	sltu	a0,v1,a0
9d00cd44:	14800015 	bnez	a0,9d00cd9c <_sbrk_init+0x10c>
9d00cd48:	0203202b 	sltu	a0,s0,v1
9d00cd4c:	14800004 	bnez	a0,9d00cd60 <_sbrk_init+0xd0>
9d00cd50:	0062202b 	sltu	a0,v1,v0
9d00cd54:	0202202b 	sltu	a0,s0,v0
9d00cd58:	14800018 	bnez	a0,9d00cdbc <_sbrk_init+0x12c>
9d00cd5c:	0062202b 	sltu	a0,v1,v0
9d00cd60:	1080000f 	beqz	a0,9d00cda0 <_sbrk_init+0x110>
9d00cd64:	8fbf0024 	lw	ra,36(sp)
9d00cd68:	3c04a000 	lui	a0,0xa000
9d00cd6c:	24840080 	addiu	a0,a0,128
9d00cd70:	00042742 	srl	a0,a0,0x1d
9d00cd74:	24050005 	li	a1,5
9d00cd78:	14850012 	bne	a0,a1,9d00cdc4 <_sbrk_init+0x134>
9d00cd7c:	24050004 	li	a1,4
9d00cd80:	3c04a000 	lui	a0,0xa000
9d00cd84:	00641825 	or	v1,v1,a0
9d00cd88:	00441025 	or	v0,v0,a0
9d00cd8c:	ae4303c0 	sw	v1,960(s2)
9d00cd90:	ae6203bc 	sw	v0,956(s3)
9d00cd94:	8e4203c0 	lw	v0,960(s2)
9d00cd98:	ae8203b8 	sw	v0,952(s4)
9d00cd9c:	8fbf0024 	lw	ra,36(sp)
9d00cda0:	8fb40020 	lw	s4,32(sp)
9d00cda4:	8fb3001c 	lw	s3,28(sp)
9d00cda8:	8fb20018 	lw	s2,24(sp)
9d00cdac:	8fb10014 	lw	s1,20(sp)
9d00cdb0:	8fb00010 	lw	s0,16(sp)
9d00cdb4:	03e00008 	jr	ra
9d00cdb8:	27bd0028 	addiu	sp,sp,40
9d00cdbc:	1000ffea 	b	9d00cd68 <_sbrk_init+0xd8>
9d00cdc0:	02001025 	move	v0,s0
9d00cdc4:	1085ffef 	beq	a0,a1,9d00cd84 <_sbrk_init+0xf4>
9d00cdc8:	3c048000 	lui	a0,0x8000
9d00cdcc:	1000fff1 	b	9d00cd94 <_sbrk_init+0x104>
9d00cdd0:	ae4203c0 	sw	v0,960(s2)
9d00cdd4:	1460ffe4 	bnez	v1,9d00cd68 <_sbrk_init+0xd8>
9d00cdd8:	02201825 	move	v1,s1
9d00cddc:	1000ffde 	b	9d00cd58 <_sbrk_init+0xc8>
9d00cde0:	0202202b 	sltu	a0,s0,v0

Disassembly of section .text.__fmt_d:

9d00cde4 <__fmt_d>:
9d00cde4:	27bdffc0 	addiu	sp,sp,-64
9d00cde8:	afb1002c 	sw	s1,44(sp)
9d00cdec:	00808825 	move	s1,a0
9d00cdf0:	00c02025 	move	a0,a2
9d00cdf4:	8c870004 	lw	a3,4(a0)
9d00cdf8:	8ca20000 	lw	v0,0(a1)
9d00cdfc:	afb40038 	sw	s4,56(sp)
9d00ce00:	0007a7c2 	srl	s4,a3,0x1f
9d00ce04:	afb30034 	sw	s3,52(sp)
9d00ce08:	afb20030 	sw	s2,48(sp)
9d00ce0c:	afb00028 	sw	s0,40(sp)
9d00ce10:	afbf003c 	sw	ra,60(sp)
9d00ce14:	00a08025 	move	s0,a1
9d00ce18:	8ca30004 	lw	v1,4(a1)
9d00ce1c:	8cb20008 	lw	s2,8(a1)
9d00ce20:	afa20020 	sw	v0,32(sp)
9d00ce24:	8cb3000c 	lw	s3,12(a1)
9d00ce28:	1280003e 	beqz	s4,9d00cf24 <__fmt_d+0x140>
9d00ce2c:	8cc60000 	lw	a2,0(a2)
9d00ce30:	00063023 	negu	a2,a2
9d00ce34:	0006202b 	sltu	a0,zero,a2
9d00ce38:	00073823 	negu	a3,a3
9d00ce3c:	04600008 	bltz	v1,9d00ce60 <__fmt_d+0x7c>
9d00ce40:	00e43823 	subu	a3,a3,a0
9d00ce44:	7c020844 	ins	v0,zero,0x1,0x1
9d00ce48:	16800005 	bnez	s4,9d00ce60 <__fmt_d+0x7c>
9d00ce4c:	afa20020 	sw	v0,32(sp)
9d00ce50:	8fa20020 	lw	v0,32(sp)
9d00ce54:	30430004 	andi	v1,v0,0x4
9d00ce58:	1060002a 	beqz	v1,9d00cf04 <__fmt_d+0x120>
9d00ce5c:	7c4200c0 	ext	v0,v0,0x3,0x1
9d00ce60:	2642ffff 	addiu	v0,s2,-1
9d00ce64:	27a30020 	addiu	v1,sp,32
9d00ce68:	afa30018 	sw	v1,24(sp)
9d00ce6c:	2403000a 	li	v1,10
9d00ce70:	afa30014 	sw	v1,20(sp)
9d00ce74:	afa20010 	sw	v0,16(sp)
9d00ce78:	0f403475 	jal	9d00d1d4 <__cvt_u>
9d00ce7c:	02002025 	move	a0,s0
9d00ce80:	16800006 	bnez	s4,9d00ce9c <__fmt_d+0xb8>
9d00ce84:	2403002d 	li	v1,45
9d00ce88:	8fa30020 	lw	v1,32(sp)
9d00ce8c:	30640004 	andi	a0,v1,0x4
9d00ce90:	1080001e 	beqz	a0,9d00cf0c <__fmt_d+0x128>
9d00ce94:	30630008 	andi	v1,v1,0x8
9d00ce98:	2403002b 	li	v1,43
9d00ce9c:	2442ffff 	addiu	v0,v0,-1
9d00cea0:	02622021 	addu	a0,s3,v0
9d00cea4:	a0830000 	sb	v1,0(a0)
9d00cea8:	8e060010 	lw	a2,16(s0)
9d00ceac:	8fa30020 	lw	v1,32(sp)
9d00ceb0:	02403825 	move	a3,s2
9d00ceb4:	24c6ffff 	addiu	a2,a2,-1
9d00ceb8:	afa30010 	sw	v1,16(sp)
9d00cebc:	00c23023 	subu	a2,a2,v0
9d00cec0:	02622821 	addu	a1,s3,v0
9d00cec4:	0f4036bd 	jal	9d00daf4 <__pad>
9d00cec8:	02202025 	move	a0,s1
9d00cecc:	8e230004 	lw	v1,4(s1)
9d00ced0:	30630100 	andi	v1,v1,0x100
9d00ced4:	10600004 	beqz	v1,9d00cee8 <__fmt_d+0x104>
9d00ced8:	8fbf003c 	lw	ra,60(sp)
9d00cedc:	8e030004 	lw	v1,4(s0)
9d00cee0:	0043202a 	slt	a0,v0,v1
9d00cee4:	0064100b 	movn	v0,v1,a0
9d00cee8:	8fb40038 	lw	s4,56(sp)
9d00ceec:	8fb30034 	lw	s3,52(sp)
9d00cef0:	8fb20030 	lw	s2,48(sp)
9d00cef4:	8fb1002c 	lw	s1,44(sp)
9d00cef8:	8fb00028 	lw	s0,40(sp)
9d00cefc:	03e00008 	jr	ra
9d00cf00:	27bd0040 	addiu	sp,sp,64
9d00cf04:	1000ffd7 	b	9d00ce64 <__fmt_d+0x80>
9d00cf08:	02421023 	subu	v0,s2,v0
9d00cf0c:	1060ffe6 	beqz	v1,9d00cea8 <__fmt_d+0xc4>
9d00cf10:	24040020 	li	a0,32
9d00cf14:	2442ffff 	addiu	v0,v0,-1
9d00cf18:	02621821 	addu	v1,s3,v0
9d00cf1c:	1000ffe2 	b	9d00cea8 <__fmt_d+0xc4>
9d00cf20:	a0640000 	sb	a0,0(v1)
9d00cf24:	0463ffc8 	bgezl	v1,9d00ce48 <__fmt_d+0x64>
9d00cf28:	7c020844 	ins	v0,zero,0x1,0x1
9d00cf2c:	1000ffc9 	b	9d00ce54 <__fmt_d+0x70>
9d00cf30:	8fa20020 	lw	v0,32(sp)

Disassembly of section .text.__read_int:

9d00cf34 <__read_int>:
9d00cf34:	27bdffc8 	addiu	sp,sp,-56
9d00cf38:	afb50028 	sw	s5,40(sp)
9d00cf3c:	8cb50008 	lw	s5,8(a1)
9d00cf40:	afb40024 	sw	s4,36(sp)
9d00cf44:	afb30020 	sw	s3,32(sp)
9d00cf48:	afb2001c 	sw	s2,28(sp)
9d00cf4c:	afb10018 	sw	s1,24(sp)
9d00cf50:	afbf0034 	sw	ra,52(sp)
9d00cf54:	afb70030 	sw	s7,48(sp)
9d00cf58:	afb6002c 	sw	s6,44(sp)
9d00cf5c:	afb00014 	sw	s0,20(sp)
9d00cf60:	00808825 	move	s1,a0
9d00cf64:	00c09025 	move	s2,a2
9d00cf68:	8cb40010 	lw	s4,16(a1)
9d00cf6c:	0f403944 	jal	9d00e510 <__skipws>
9d00cf70:	8cb3000c 	lw	s3,12(a1)
9d00cf74:	52a00001 	beqzl	s5,9d00cf7c <__read_int+0x48>
9d00cf78:	2695ffff 	addiu	s5,s4,-1
9d00cf7c:	8e430000 	lw	v1,0(s2)
9d00cf80:	00008025 	move	s0,zero
9d00cf84:	2694ffff 	addiu	s4,s4,-1
9d00cf88:	00621821 	addu	v1,v1,v0
9d00cf8c:	ae430000 	sw	v1,0(s2)
9d00cf90:	2416ffff 	li	s6,-1
9d00cf94:	2417fffd 	li	s7,-3
9d00cf98:	0215102a 	slt	v0,s0,s5
9d00cf9c:	1040001b 	beqz	v0,9d00d00c <__read_int+0xd8>
9d00cfa0:	0214102a 	slt	v0,s0,s4
9d00cfa4:	5040001a 	beqzl	v0,9d00d010 <__read_int+0xdc>
9d00cfa8:	02708021 	addu	s0,s3,s0
9d00cfac:	8e22003c 	lw	v0,60(s1)
9d00cfb0:	8e23004c 	lw	v1,76(s1)
9d00cfb4:	0043182b 	sltu	v1,v0,v1
9d00cfb8:	1060000e 	beqz	v1,9d00cff4 <__read_int+0xc0>
9d00cfbc:	24430001 	addiu	v1,v0,1
9d00cfc0:	ae23003c 	sw	v1,60(s1)
9d00cfc4:	90420000 	lbu	v0,0(v0)
9d00cfc8:	2443ffd5 	addiu	v1,v0,-43
9d00cfcc:	00771824 	and	v1,v1,s7
9d00cfd0:	00701825 	or	v1,v1,s0
9d00cfd4:	1460001b 	bnez	v1,9d00d044 <__read_int+0x110>
9d00cfd8:	2443ffd0 	addiu	v1,v0,-48
9d00cfdc:	a2620000 	sb	v0,0(s3)
9d00cfe0:	8e420000 	lw	v0,0(s2)
9d00cfe4:	24100001 	li	s0,1
9d00cfe8:	24420001 	addiu	v0,v0,1
9d00cfec:	1000ffea 	b	9d00cf98 <__read_int+0x64>
9d00cff0:	ae420000 	sw	v0,0(s2)
9d00cff4:	0f403917 	jal	9d00e45c <__shgetc>
9d00cff8:	02202025 	move	a0,s1
9d00cffc:	1456fff3 	bne	v0,s6,9d00cfcc <__read_int+0x98>
9d00d000:	2443ffd5 	addiu	v1,v0,-43
9d00d004:	12000005 	beqz	s0,9d00d01c <__read_int+0xe8>
9d00d008:	8fbf0034 	lw	ra,52(sp)
9d00d00c:	02708021 	addu	s0,s3,s0
9d00d010:	a2000000 	sb	zero,0(s0)
9d00d014:	00001025 	move	v0,zero
9d00d018:	8fbf0034 	lw	ra,52(sp)
9d00d01c:	8fb70030 	lw	s7,48(sp)
9d00d020:	8fb6002c 	lw	s6,44(sp)
9d00d024:	8fb50028 	lw	s5,40(sp)
9d00d028:	8fb40024 	lw	s4,36(sp)
9d00d02c:	8fb30020 	lw	s3,32(sp)
9d00d030:	8fb2001c 	lw	s2,28(sp)
9d00d034:	8fb10018 	lw	s1,24(sp)
9d00d038:	8fb00014 	lw	s0,20(sp)
9d00d03c:	03e00008 	jr	ra
9d00d040:	27bd0038 	addiu	sp,sp,56
9d00d044:	2c63000a 	sltiu	v1,v1,10
9d00d048:	54600008 	bnezl	v1,9d00d06c <__read_int+0x138>
9d00d04c:	02701821 	addu	v1,s3,s0
9d00d050:	8e22004c 	lw	v0,76(s1)
9d00d054:	5040ffee 	beqzl	v0,9d00d010 <__read_int+0xdc>
9d00d058:	02708021 	addu	s0,s3,s0
9d00d05c:	8e22003c 	lw	v0,60(s1)
9d00d060:	2442ffff 	addiu	v0,v0,-1
9d00d064:	1000ffe9 	b	9d00d00c <__read_int+0xd8>
9d00d068:	ae22003c 	sw	v0,60(s1)
9d00d06c:	a0620000 	sb	v0,0(v1)
9d00d070:	8e420000 	lw	v0,0(s2)
9d00d074:	26100001 	addiu	s0,s0,1
9d00d078:	24420001 	addiu	v0,v0,1
9d00d07c:	1000ffc6 	b	9d00cf98 <__read_int+0x64>
9d00d080:	ae420000 	sw	v0,0(s2)

Disassembly of section .dinit:

9d00d084 <.dinit>:
9d00d084:	a0000004 	sb	zero,4(zero)
9d00d088:	0000000c 	syscall
9d00d08c:	00000000 	nop
9d00d090:	a000001c 	sb	zero,28(zero)
9d00d094:	00000064 	0x64
9d00d098:	00000000 	nop
9d00d09c:	a0000010 	sb	zero,16(zero)
9d00d0a0:	00000008 	jr	zero
9d00d0a4:	00000000 	nop
9d00d0a8:	a0000080 	sb	zero,128(zero)
9d00d0ac:	00000060 	0x60
9d00d0b0:	00000001 	movf	zero,zero,$fcc0
9d00d0b4:	00000001 	movf	zero,zero,$fcc0
9d00d0b8:	00000003 	sra	zero,zero,0x0
	...
9d00d0d0:	9d00e228 	0x9d00e228
	...
9d00d0e0:	9d01028c 	0x9d01028c
9d00d0e4:	9d00eb90 	0x9d00eb90
	...
9d00d114:	a00003c4 	sb	zero,964(zero)
9d00d118:	00000004 	sllv	zero,zero,zero
9d00d11c:	00000000 	nop
9d00d120:	a00000e0 	sb	zero,224(zero)
9d00d124:	00000060 	0x60
9d00d128:	00000001 	movf	zero,zero,$fcc0
9d00d12c:	00000001 	movf	zero,zero,$fcc0
9d00d130:	00000003 	sra	zero,zero,0x0
	...
9d00d148:	9d00e228 	0x9d00e228
	...
9d00d158:	9d01028c 	0x9d01028c
9d00d15c:	9d00eb90 	0x9d00eb90
	...
9d00d18c:	a0000140 	sb	zero,320(zero)
9d00d190:	00000210 	0x210
9d00d194:	00000000 	nop
9d00d198:	a0000350 	sb	zero,848(zero)
9d00d19c:	00000050 	0x50
9d00d1a0:	00000000 	nop
9d00d1a4:	a00003a0 	sb	zero,928(zero)
9d00d1a8:	00000024 	and	zero,zero,zero
9d00d1ac:	00000000 	nop
9d00d1b0:	a0000000 	sb	zero,0(zero)
9d00d1b4:	00000004 	sllv	zero,zero,zero
9d00d1b8:	00000001 	movf	zero,zero,$fcc0
9d00d1bc:	00000002 	srl	zero,zero,0x0
9d00d1c0:	a00003c8 	sb	zero,968(zero)
9d00d1c4:	00000004 	sllv	zero,zero,zero
	...
9d00d1d0:	44444444 	0x44444444

Disassembly of section .text.__cvt_u:

9d00d1d4 <__cvt_u>:
9d00d1d4:	8c820004 	lw	v0,4(a0)
9d00d1d8:	27bdffc0 	addiu	sp,sp,-64
9d00d1dc:	afbe0038 	sw	s8,56(sp)
9d00d1e0:	afb40028 	sw	s4,40(sp)
9d00d1e4:	afb20020 	sw	s2,32(sp)
9d00d1e8:	afb1001c 	sw	s1,28(sp)
9d00d1ec:	afbf003c 	sw	ra,60(sp)
9d00d1f0:	afb70034 	sw	s7,52(sp)
9d00d1f4:	afb60030 	sw	s6,48(sp)
9d00d1f8:	afb5002c 	sw	s5,44(sp)
9d00d1fc:	afb30024 	sw	s3,36(sp)
9d00d200:	afb00018 	sw	s0,24(sp)
9d00d204:	00c08825 	move	s1,a2
9d00d208:	00e09025 	move	s2,a3
9d00d20c:	8fb40054 	lw	s4,84(sp)
9d00d210:	04410002 	bgez	v0,9d00d21c <__cvt_u+0x48>
9d00d214:	8fbe0058 	lw	s8,88(sp)
9d00d218:	24020001 	li	v0,1
9d00d21c:	8c900010 	lw	s0,16(a0)
9d00d220:	8c95000c 	lw	s5,12(a0)
9d00d224:	8fd70000 	lw	s7,0(s8)
9d00d228:	8fb30050 	lw	s3,80(sp)
9d00d22c:	2610ffff 	addiu	s0,s0,-1
9d00d230:	02b01821 	addu	v1,s5,s0
9d00d234:	a0600000 	sb	zero,0(v1)
9d00d238:	24090001 	li	t1,1
9d00d23c:	00534023 	subu	t0,v0,s3
9d00d240:	32f70002 	andi	s7,s7,0x2
9d00d244:	0014b7c3 	sra	s6,s4,0x1f
9d00d248:	1e000010 	bgtz	s0,9d00d28c <__cvt_u+0xb8>
9d00d24c:	02321025 	or	v0,s1,s2
9d00d250:	5120002c 	beqzl	t1,9d00d304 <__cvt_u+0x130>
9d00d254:	8fc20000 	lw	v0,0(s8)
9d00d258:	8fbf003c 	lw	ra,60(sp)
9d00d25c:	02001025 	move	v0,s0
9d00d260:	8fbe0038 	lw	s8,56(sp)
9d00d264:	8fb70034 	lw	s7,52(sp)
9d00d268:	8fb60030 	lw	s6,48(sp)
9d00d26c:	8fb5002c 	lw	s5,44(sp)
9d00d270:	8fb40028 	lw	s4,40(sp)
9d00d274:	8fb30024 	lw	s3,36(sp)
9d00d278:	8fb20020 	lw	s2,32(sp)
9d00d27c:	8fb1001c 	lw	s1,28(sp)
9d00d280:	8fb00018 	lw	s0,24(sp)
9d00d284:	03e00008 	jr	ra
9d00d288:	27bd0040 	addiu	sp,sp,64
9d00d28c:	14400007 	bnez	v0,9d00d2ac <__cvt_u+0xd8>
9d00d290:	01131021 	addu	v0,t0,s3
9d00d294:	1c400006 	bgtz	v0,9d00d2b0 <__cvt_u+0xdc>
9d00d298:	02202025 	move	a0,s1
9d00d29c:	1a60ffec 	blez	s3,9d00d250 <__cvt_u+0x7c>
9d00d2a0:	00000000 	nop
9d00d2a4:	12e0ffea 	beqz	s7,9d00d250 <__cvt_u+0x7c>
9d00d2a8:	00000000 	nop
9d00d2ac:	02202025 	move	a0,s1
9d00d2b0:	02402825 	move	a1,s2
9d00d2b4:	02803025 	move	a2,s4
9d00d2b8:	02c03825 	move	a3,s6
9d00d2bc:	afa80014 	sw	t0,20(sp)
9d00d2c0:	0f402a9b 	jal	9d00aa6c <__umoddi3>
9d00d2c4:	2610ffff 	addiu	s0,s0,-1
9d00d2c8:	afa20010 	sw	v0,16(sp)
9d00d2cc:	02b01821 	addu	v1,s5,s0
9d00d2d0:	24420030 	addiu	v0,v0,48
9d00d2d4:	02202025 	move	a0,s1
9d00d2d8:	02402825 	move	a1,s2
9d00d2dc:	a0620000 	sb	v0,0(v1)
9d00d2e0:	02803025 	move	a2,s4
9d00d2e4:	0f4029ac 	jal	9d00a6b0 <__udivdi3>
9d00d2e8:	02c03825 	move	a3,s6
9d00d2ec:	2673ffff 	addiu	s3,s3,-1
9d00d2f0:	00408825 	move	s1,v0
9d00d2f4:	00609025 	move	s2,v1
9d00d2f8:	8fa80014 	lw	t0,20(sp)
9d00d2fc:	1000ffd2 	b	9d00d248 <__cvt_u+0x74>
9d00d300:	8fa90010 	lw	t1,16(sp)
9d00d304:	7c022104 	ins	v0,zero,0x4,0x1
9d00d308:	1000ffd3 	b	9d00d258 <__cvt_u+0x84>
9d00d30c:	afc20000 	sw	v0,0(s8)

Disassembly of section .text.read:

9d00d310 <read>:
9d00d310:	50a0004a 	beqzl	a1,9d00d43c <read+0x12c>
9d00d314:	00002025 	move	a0,zero
9d00d318:	50c00048 	beqzl	a2,9d00d43c <read+0x12c>
9d00d31c:	00002025 	move	a0,zero
9d00d320:	27bdffe0 	addiu	sp,sp,-32
9d00d324:	afb10014 	sw	s1,20(sp)
9d00d328:	afbf001c 	sw	ra,28(sp)
9d00d32c:	afb20018 	sw	s2,24(sp)
9d00d330:	afb00010 	sw	s0,16(sp)
9d00d334:	1480000b 	bnez	a0,9d00d364 <read+0x54>
9d00d338:	00c08825 	move	s1,a2
9d00d33c:	3c020000 	lui	v0,0x0
9d00d340:	24420000 	addiu	v0,v0,0
9d00d344:	1040000f 	beqz	v0,9d00d384 <read+0x74>
9d00d348:	00a08025 	move	s0,a1
9d00d34c:	00a69021 	addu	s2,a1,a2
9d00d350:	0c000000 	jal	90000000 <_bmxdudba_address+0x8fff0000>
9d00d354:	24040001 	li	a0,1
9d00d358:	26100001 	addiu	s0,s0,1
9d00d35c:	1650fffc 	bne	s2,s0,9d00d350 <read+0x40>
9d00d360:	a202ffff 	sb	v0,-1(s0)
9d00d364:	02202025 	move	a0,s1
9d00d368:	8fbf001c 	lw	ra,28(sp)
9d00d36c:	00801025 	move	v0,a0
9d00d370:	8fb20018 	lw	s2,24(sp)
9d00d374:	8fb10014 	lw	s1,20(sp)
9d00d378:	8fb00010 	lw	s0,16(sp)
9d00d37c:	03e00008 	jr	ra
9d00d380:	27bd0020 	addiu	sp,sp,32
9d00d384:	3c03bf80 	lui	v1,0xbf80
9d00d388:	24626010 	addiu	v0,v1,24592
9d00d38c:	1040fff6 	beqz	v0,9d00d368 <read+0x58>
9d00d390:	3c03a000 	lui	v1,0xa000
9d00d394:	8c640000 	lw	a0,0(v1)
9d00d398:	24030002 	li	v1,2
9d00d39c:	1083001d 	beq	a0,v1,9d00d414 <read+0x104>
9d00d3a0:	3c03bf80 	lui	v1,0xbf80
9d00d3a4:	3c03bf80 	lui	v1,0xbf80
9d00d3a8:	8c646000 	lw	a0,24576(v1)
9d00d3ac:	3c03bf80 	lui	v1,0xbf80
9d00d3b0:	24636030 	addiu	v1,v1,24624
9d00d3b4:	30848000 	andi	a0,a0,0x8000
9d00d3b8:	14800003 	bnez	a0,9d00d3c8 <read+0xb8>
9d00d3bc:	3c04bf80 	lui	a0,0xbf80
9d00d3c0:	34058000 	li	a1,0x8000
9d00d3c4:	ac856008 	sw	a1,24584(a0)
9d00d3c8:	02202025 	move	a0,s1
9d00d3cc:	240500a1 	li	a1,161
9d00d3d0:	8c460000 	lw	a2,0(v0)
9d00d3d4:	30c60001 	andi	a2,a2,0x1
9d00d3d8:	14c00003 	bnez	a2,9d00d3e8 <read+0xd8>
9d00d3dc:	24a5ffff 	addiu	a1,a1,-1
9d00d3e0:	14a0fffb 	bnez	a1,9d00d3d0 <read+0xc0>
9d00d3e4:	00000000 	nop
9d00d3e8:	8c450000 	lw	a1,0(v0)
9d00d3ec:	30a50001 	andi	a1,a1,0x1
9d00d3f0:	54a0ffdc 	bnezl	a1,9d00d364 <read+0x54>
9d00d3f4:	02248823 	subu	s1,s1,a0
9d00d3f8:	8c650000 	lw	a1,0(v1)
9d00d3fc:	26100001 	addiu	s0,s0,1
9d00d400:	2484ffff 	addiu	a0,a0,-1
9d00d404:	1480fff1 	bnez	a0,9d00d3cc <read+0xbc>
9d00d408:	a205ffff 	sb	a1,-1(s0)
9d00d40c:	1000ffd5 	b	9d00d364 <read+0x54>
9d00d410:	02248823 	subu	s1,s1,a0
9d00d414:	24636240 	addiu	v1,v1,25152
9d00d418:	5060ffe3 	beqzl	v1,9d00d3a8 <read+0x98>
9d00d41c:	3c03bf80 	lui	v1,0xbf80
9d00d420:	3c02bf80 	lui	v0,0xbf80
9d00d424:	8c446200 	lw	a0,25088(v0)
9d00d428:	3c03bf80 	lui	v1,0xbf80
9d00d42c:	3c02bf80 	lui	v0,0xbf80
9d00d430:	24636230 	addiu	v1,v1,25136
9d00d434:	1000ffdf 	b	9d00d3b4 <read+0xa4>
9d00d438:	24426210 	addiu	v0,v0,25104
9d00d43c:	03e00008 	jr	ra
9d00d440:	00801025 	move	v0,a0

Disassembly of section .text.dpcmp:

9d00d444 <__eqdf2>:
9d00d444:	2409fffe 00055040 00075840 01645825     ...$@P..@X..%Xd.
9d00d454:	01665825 014b5025 15400003 00000000     %Xf.%PK...@.....
9d00d464:	1000003c 24020000                       <......$

9d00d46c <i56>:
9d00d46c:	10800002 	beqz	a0,9d00d478 <i57>
9d00d470:	00054040 	sll	t0,a1,0x1
9d00d474:	25080001 	addiu	t0,t0,1

9d00d478 <i57>:
9d00d478:	3c01ffe0 	lui	at,0xffe0
9d00d47c:	34210001 	ori	at,at,0x1
9d00d480:	0101082b 	sltu	at,t0,at
9d00d484:	10200037 	beqz	at,9d00d564 <Lnan>
9d00d488:	00000000 	nop
9d00d48c:	10c00002 	beqz	a2,9d00d498 <i58>
9d00d490:	00074040 	sll	t0,a3,0x1
9d00d494:	25080001 	addiu	t0,t0,1

9d00d498 <i58>:
9d00d498:	3c01ffe0 	lui	at,0xffe0
9d00d49c:	34210001 	ori	at,at,0x1
9d00d4a0:	0101082b 	sltu	at,t0,at
9d00d4a4:	1020002f 	beqz	at,9d00d564 <Lnan>
9d00d4a8:	00000000 	nop
9d00d4ac:	04a10016 	bgez	a1,9d00d508 <i59>
9d00d4b0:	00000000 	nop
9d00d4b4:	04e00003 	bltz	a3,9d00d4c4 <i60>
9d00d4b8:	00000000 	nop
9d00d4bc:	10000026 	b	9d00d558 <L999>
9d00d4c0:	2402ffff 	li	v0,-1

9d00d4c4 <i60>:
9d00d4c4:	0086502b 	sltu	t2,a0,a2
9d00d4c8:	00862023 	subu	a0,a0,a2
9d00d4cc:	00aa582b 	sltu	t3,a1,t2
9d00d4d0:	00aa2823 	subu	a1,a1,t2
9d00d4d4:	00a7502b 	sltu	t2,a1,a3
9d00d4d8:	014b5025 	or	t2,t2,t3
9d00d4dc:	11400003 	beqz	t2,9d00d4ec <i61>
9d00d4e0:	00a72823 	subu	a1,a1,a3
9d00d4e4:	1000001c 	b	9d00d558 <L999>
9d00d4e8:	24020001 	li	v0,1

9d00d4ec <i61>:
9d00d4ec:	00a45025 	or	t2,a1,a0
9d00d4f0:	11400003 	beqz	t2,9d00d500 <i62>
9d00d4f4:	00000000 	nop
9d00d4f8:	10000017 	b	9d00d558 <L999>
9d00d4fc:	2402ffff 	li	v0,-1

9d00d500 <i62>:
9d00d500:	10000015 	b	9d00d558 <L999>
9d00d504:	24020000 	li	v0,0

9d00d508 <i59>:
9d00d508:	04e10003 	bgez	a3,9d00d518 <i63>
9d00d50c:	00000000 	nop
9d00d510:	10000011 	b	9d00d558 <L999>
9d00d514:	24020001 	li	v0,1

9d00d518 <i63>:
9d00d518:	0086502b 	sltu	t2,a0,a2
9d00d51c:	00862023 	subu	a0,a0,a2
9d00d520:	00aa582b 	sltu	t3,a1,t2
9d00d524:	00aa2823 	subu	a1,a1,t2
9d00d528:	00a7502b 	sltu	t2,a1,a3
9d00d52c:	014b5025 	or	t2,t2,t3
9d00d530:	11400003 	beqz	t2,9d00d540 <i64>
9d00d534:	00a72823 	subu	a1,a1,a3
9d00d538:	10000007 	b	9d00d558 <L999>
9d00d53c:	2402ffff 	li	v0,-1

9d00d540 <i64>:
9d00d540:	00a45025 	or	t2,a1,a0
9d00d544:	11400003 	beqz	t2,9d00d554 <i65>
9d00d548:	00000000 	nop
9d00d54c:	10000002 	b	9d00d558 <L999>
9d00d550:	24020001 	li	v0,1

9d00d554 <i65>:
9d00d554:	24020000 	li	v0,0

9d00d558 <L999>:
9d00d558:	03e00008 	jr	ra
9d00d55c:	00000000 	nop
9d00d560:	00000000 	nop

9d00d564 <Lnan>:
9d00d564:	1000fffc 	b	9d00d558 <L999>
9d00d568:	00091025 	or	v0,zero,t1
9d00d56c:	00000000 	nop

Disassembly of section .text.dfcmplt:

9d00d570 <dpcmplt>:
9d00d570:	2409fffe 	li	t1,-2
9d00d574:	00055040 	sll	t2,a1,0x1
9d00d578:	00075840 	sll	t3,a3,0x1
9d00d57c:	01645825 	or	t3,t3,a0
9d00d580:	01665825 	or	t3,t3,a2
9d00d584:	014b5025 	or	t2,t2,t3
9d00d588:	15400003 	bnez	t2,9d00d598 <dpcmplt+0x28>
9d00d58c:	00000000 	nop
9d00d590:	1000003c 	b	9d00d684 <dpcmplt+0x114>
9d00d594:	24020000 	li	v0,0
9d00d598:	10800002 	beqz	a0,9d00d5a4 <dpcmplt+0x34>
9d00d59c:	00054040 	sll	t0,a1,0x1
9d00d5a0:	25080001 	addiu	t0,t0,1
9d00d5a4:	3c01ffe0 	lui	at,0xffe0
9d00d5a8:	34210001 	ori	at,at,0x1
9d00d5ac:	0101082b 	sltu	at,t0,at
9d00d5b0:	10200037 	beqz	at,9d00d690 <dpcmplt+0x120>
9d00d5b4:	00000000 	nop
9d00d5b8:	10c00002 	beqz	a2,9d00d5c4 <dpcmplt+0x54>
9d00d5bc:	00074040 	sll	t0,a3,0x1
9d00d5c0:	25080001 	addiu	t0,t0,1
9d00d5c4:	3c01ffe0 	lui	at,0xffe0
9d00d5c8:	34210001 	ori	at,at,0x1
9d00d5cc:	0101082b 	sltu	at,t0,at
9d00d5d0:	1020002f 	beqz	at,9d00d690 <dpcmplt+0x120>
9d00d5d4:	00000000 	nop
9d00d5d8:	04a10016 	bgez	a1,9d00d634 <dpcmplt+0xc4>
9d00d5dc:	00000000 	nop
9d00d5e0:	04e00003 	bltz	a3,9d00d5f0 <dpcmplt+0x80>
9d00d5e4:	00000000 	nop
9d00d5e8:	10000026 	b	9d00d684 <dpcmplt+0x114>
9d00d5ec:	2402ffff 	li	v0,-1
9d00d5f0:	0086502b 	sltu	t2,a0,a2
9d00d5f4:	00862023 	subu	a0,a0,a2
9d00d5f8:	00aa582b 	sltu	t3,a1,t2
9d00d5fc:	00aa2823 	subu	a1,a1,t2
9d00d600:	00a7502b 	sltu	t2,a1,a3
9d00d604:	014b5025 	or	t2,t2,t3
9d00d608:	11400003 	beqz	t2,9d00d618 <dpcmplt+0xa8>
9d00d60c:	00a72823 	subu	a1,a1,a3
9d00d610:	1000001c 	b	9d00d684 <dpcmplt+0x114>
9d00d614:	24020001 	li	v0,1
9d00d618:	00a45025 	or	t2,a1,a0
9d00d61c:	11400003 	beqz	t2,9d00d62c <dpcmplt+0xbc>
9d00d620:	00000000 	nop
9d00d624:	10000017 	b	9d00d684 <dpcmplt+0x114>
9d00d628:	2402ffff 	li	v0,-1
9d00d62c:	10000015 	b	9d00d684 <dpcmplt+0x114>
9d00d630:	24020000 	li	v0,0
9d00d634:	04e10003 	bgez	a3,9d00d644 <dpcmplt+0xd4>
9d00d638:	00000000 	nop
9d00d63c:	10000011 	b	9d00d684 <dpcmplt+0x114>
9d00d640:	24020001 	li	v0,1
9d00d644:	0086502b 	sltu	t2,a0,a2
9d00d648:	00862023 	subu	a0,a0,a2
9d00d64c:	00aa582b 	sltu	t3,a1,t2
9d00d650:	00aa2823 	subu	a1,a1,t2
9d00d654:	00a7502b 	sltu	t2,a1,a3
9d00d658:	014b5025 	or	t2,t2,t3
9d00d65c:	11400003 	beqz	t2,9d00d66c <dpcmplt+0xfc>
9d00d660:	00a72823 	subu	a1,a1,a3
9d00d664:	10000007 	b	9d00d684 <dpcmplt+0x114>
9d00d668:	2402ffff 	li	v0,-1
9d00d66c:	00a45025 	or	t2,a1,a0
9d00d670:	11400003 	beqz	t2,9d00d680 <dpcmplt+0x110>
9d00d674:	00000000 	nop
9d00d678:	10000002 	b	9d00d684 <dpcmplt+0x114>
9d00d67c:	24020001 	li	v0,1
9d00d680:	24020000 	li	v0,0
9d00d684:	03e00008 	jr	ra
9d00d688:	00000000 	nop
9d00d68c:	00000000 	nop
9d00d690:	1000fffc 	b	9d00d684 <dpcmplt+0x114>
9d00d694:	34020001 	li	v0,0x1
9d00d698:	00000000 	nop

Disassembly of section .text._mon_putc:

9d00d69c <_mon_putc>:
9d00d69c:	3c02a000 	lui	v0,0xa000
9d00d6a0:	8c430000 	lw	v1,0(v0)
9d00d6a4:	14600013 	bnez	v1,9d00d6f4 <_mon_putc+0x58>
9d00d6a8:	00803025 	move	a2,a0
9d00d6ac:	3c020000 	lui	v0,0x0
9d00d6b0:	27bdffe8 	addiu	sp,sp,-24
9d00d6b4:	24420000 	addiu	v0,v0,0
9d00d6b8:	10400006 	beqz	v0,9d00d6d4 <_mon_putc+0x38>
9d00d6bc:	afbf0014 	sw	ra,20(sp)
9d00d6c0:	0c000000 	jal	90000000 <_bmxdudba_address+0x8fff0000>
9d00d6c4:	00000000 	nop
9d00d6c8:	8fbf0014 	lw	ra,20(sp)
9d00d6cc:	03e00008 	jr	ra
9d00d6d0:	27bd0018 	addiu	sp,sp,24
9d00d6d4:	3c020000 	lui	v0,0x0
9d00d6d8:	24420000 	addiu	v0,v0,0
9d00d6dc:	10400025 	beqz	v0,9d00d774 <_mon_putc+0xd8>
9d00d6e0:	3c05bf80 	lui	a1,0xbf80
9d00d6e4:	0c000000 	jal	90000000 <_bmxdudba_address+0x8fff0000>
9d00d6e8:	00000000 	nop
9d00d6ec:	1000fff7 	b	9d00d6cc <_mon_putc+0x30>
9d00d6f0:	8fbf0014 	lw	ra,20(sp)
9d00d6f4:	3c02bf80 	lui	v0,0xbf80
9d00d6f8:	24426010 	addiu	v0,v0,24592
9d00d6fc:	1040002f 	beqz	v0,9d00d7bc <_mon_putc+0x120>
9d00d700:	00000000 	nop
9d00d704:	24040001 	li	a0,1
9d00d708:	14640012 	bne	v1,a0,9d00d754 <_mon_putc+0xb8>
9d00d70c:	3c03bf80 	lui	v1,0xbf80
9d00d710:	3c03bf80 	lui	v1,0xbf80
9d00d714:	3c04bf80 	lui	a0,0xbf80
9d00d718:	3c05bf80 	lui	a1,0xbf80
9d00d71c:	24636020 	addiu	v1,v1,24608
9d00d720:	24846018 	addiu	a0,a0,24600
9d00d724:	24a56008 	addiu	a1,a1,24584
9d00d728:	34078000 	li	a3,0x8000
9d00d72c:	aca70000 	sw	a3,0(a1)
9d00d730:	24050400 	li	a1,1024
9d00d734:	ac850000 	sw	a1,0(a0)
9d00d738:	8c440000 	lw	a0,0(v0)
9d00d73c:	30840100 	andi	a0,a0,0x100
9d00d740:	1080fffd 	beqz	a0,9d00d738 <_mon_putc+0x9c>
9d00d744:	00000000 	nop
9d00d748:	ac660000 	sw	a2,0(v1)
9d00d74c:	03e00008 	jr	ra
9d00d750:	00000000 	nop
9d00d754:	3c04bf80 	lui	a0,0xbf80
9d00d758:	3c05bf80 	lui	a1,0xbf80
9d00d75c:	3c02bf80 	lui	v0,0xbf80
9d00d760:	24636220 	addiu	v1,v1,25120
9d00d764:	24846218 	addiu	a0,a0,25112
9d00d768:	24a56208 	addiu	a1,a1,25096
9d00d76c:	1000ffee 	b	9d00d728 <_mon_putc+0x8c>
9d00d770:	24426210 	addiu	v0,v0,25104
9d00d774:	24a56208 	addiu	a1,a1,25096
9d00d778:	3c04bf80 	lui	a0,0xbf80
9d00d77c:	34078000 	li	a3,0x8000
9d00d780:	aca70000 	sw	a3,0(a1)
9d00d784:	3c03bf80 	lui	v1,0xbf80
9d00d788:	24846218 	addiu	a0,a0,25112
9d00d78c:	3c02bf80 	lui	v0,0xbf80
9d00d790:	24050400 	li	a1,1024
9d00d794:	24636220 	addiu	v1,v1,25120
9d00d798:	24426210 	addiu	v0,v0,25104
9d00d79c:	ac850000 	sw	a1,0(a0)
9d00d7a0:	8c440000 	lw	a0,0(v0)
9d00d7a4:	30840100 	andi	a0,a0,0x100
9d00d7a8:	1080fffd 	beqz	a0,9d00d7a0 <_mon_putc+0x104>
9d00d7ac:	00000000 	nop
9d00d7b0:	ac660000 	sw	a2,0(v1)
9d00d7b4:	1000ffc5 	b	9d00d6cc <_mon_putc+0x30>
9d00d7b8:	8fbf0014 	lw	ra,20(sp)
9d00d7bc:	03e00008 	jr	ra
9d00d7c0:	00000000 	nop

Disassembly of section .text.realloc:

9d00d7c4 <realloc>:
9d00d7c4:	27bdffd8 	addiu	sp,sp,-40
9d00d7c8:	afbf0024 	sw	ra,36(sp)
9d00d7cc:	afb40020 	sw	s4,32(sp)
9d00d7d0:	afb3001c 	sw	s3,28(sp)
9d00d7d4:	afb20018 	sw	s2,24(sp)
9d00d7d8:	afb10014 	sw	s1,20(sp)
9d00d7dc:	afb00010 	sw	s0,16(sp)
9d00d7e0:	1480000d 	bnez	a0,9d00d818 <realloc+0x54>
9d00d7e4:	afa5002c 	sw	a1,44(sp)
9d00d7e8:	0f402e8b 	jal	9d00ba2c <malloc>
9d00d7ec:	00a02025 	move	a0,a1
9d00d7f0:	00408825 	move	s1,v0
9d00d7f4:	8fbf0024 	lw	ra,36(sp)
9d00d7f8:	02201025 	move	v0,s1
9d00d7fc:	8fb40020 	lw	s4,32(sp)
9d00d800:	8fb3001c 	lw	s3,28(sp)
9d00d804:	8fb20018 	lw	s2,24(sp)
9d00d808:	8fb10014 	lw	s1,20(sp)
9d00d80c:	8fb00010 	lw	s0,16(sp)
9d00d810:	03e00008 	jr	ra
9d00d814:	27bd0028 	addiu	sp,sp,40
9d00d818:	00808025 	move	s0,a0
9d00d81c:	0f403e17 	jal	9d00f85c <adjust_size>
9d00d820:	27a4002c 	addiu	a0,sp,44
9d00d824:	0440002b 	bltz	v0,9d00d8d4 <realloc+0x110>
9d00d828:	2413fffe 	li	s3,-2
9d00d82c:	8e02fffc 	lw	v0,-4(s0)
9d00d830:	2614fff8 	addiu	s4,s0,-8
9d00d834:	00539024 	and	s2,v0,s3
9d00d838:	02928821 	addu	s1,s4,s2
9d00d83c:	8e230000 	lw	v1,0(s1)
9d00d840:	10430003 	beq	v0,v1,9d00d850 <realloc+0x8c>
9d00d844:	8fa2002c 	lw	v0,44(sp)
9d00d848:	a0000000 	sb	zero,0(zero)
9d00d84c:	00000034 	teq	zero,zero
9d00d850:	0242102b 	sltu	v0,s2,v0
9d00d854:	10400009 	beqz	v0,9d00d87c <realloc+0xb8>
9d00d858:	02401825 	move	v1,s2
9d00d85c:	0f403d22 	jal	9d00f488 <alloc_fwd>
9d00d860:	02202025 	move	a0,s1
9d00d864:	10400005 	beqz	v0,9d00d87c <realloc+0xb8>
9d00d868:	02401825 	move	v1,s2
9d00d86c:	8e220004 	lw	v0,4(s1)
9d00d870:	02629824 	and	s3,s3,v0
9d00d874:	02721821 	addu	v1,s3,s2
9d00d878:	02338821 	addu	s1,s1,s3
9d00d87c:	8fa5002c 	lw	a1,44(sp)
9d00d880:	34620001 	ori	v0,v1,0x1
9d00d884:	ae02fffc 	sw	v0,-4(s0)
9d00d888:	0065182b 	sltu	v1,v1,a1
9d00d88c:	14600005 	bnez	v1,9d00d8a4 <realloc+0xe0>
9d00d890:	ae220000 	sw	v0,0(s1)
9d00d894:	0f403e2d 	jal	9d00f8b4 <trim>
9d00d898:	02802025 	move	a0,s4
9d00d89c:	1000ffd5 	b	9d00d7f4 <realloc+0x30>
9d00d8a0:	02008825 	move	s1,s0
9d00d8a4:	0f402e8b 	jal	9d00ba2c <malloc>
9d00d8a8:	24a4fff8 	addiu	a0,a1,-8
9d00d8ac:	1040ffd1 	beqz	v0,9d00d7f4 <realloc+0x30>
9d00d8b0:	00408825 	move	s1,v0
9d00d8b4:	2646fff8 	addiu	a2,s2,-8
9d00d8b8:	02002825 	move	a1,s0
9d00d8bc:	0f404022 	jal	9d010088 <memcpy>
9d00d8c0:	00402025 	move	a0,v0
9d00d8c4:	0f40309d 	jal	9d00c274 <free>
9d00d8c8:	02002025 	move	a0,s0
9d00d8cc:	1000ffca 	b	9d00d7f8 <realloc+0x34>
9d00d8d0:	8fbf0024 	lw	ra,36(sp)
9d00d8d4:	1000ffc7 	b	9d00d7f4 <realloc+0x30>
9d00d8d8:	00008825 	move	s1,zero

Disassembly of section .rodata:

9d00d8dc <table-0xc>:
9d00d8dc:	04020100 	bltzl	zero,9d00dce0 <i49+0x14>
9d00d8e0:	05060307 	0x5060307
9d00d8e4:	00000000 	nop

9d00d8e8 <table>:
9d00d8e8:	ffffffff ffffffff ffffffff ffffffff     ................
9d00d8f8:	ffffffff ffffffff ffffffff ffffffff     ................
9d00d908:	ffffffff ffffffff ffffffff ffffffff     ................
9d00d918:	020100ff 06050403 ff090807 ffffffff     ................
9d00d928:	0b0affff 0f0e0d0c 13121110 17161514     ................
9d00d938:	1b1a1918 1f1e1d1c 23222120 ffffffff     ........ !"#....
9d00d948:	0b0affff 0f0e0d0c 13121110 17161514     ................
9d00d958:	1b1a1918 1f1e1d1c 23222120 ffffffff     ........ !"#....
9d00d968:	ffffffff ffffffff ffffffff ffffffff     ................
9d00d978:	ffffffff ffffffff ffffffff ffffffff     ................
9d00d988:	ffffffff ffffffff ffffffff ffffffff     ................
9d00d998:	ffffffff ffffffff ffffffff ffffffff     ................
9d00d9a8:	ffffffff ffffffff ffffffff ffffffff     ................
9d00d9b8:	ffffffff ffffffff ffffffff ffffffff     ................
9d00d9c8:	ffffffff ffffffff ffffffff ffffffff     ................
9d00d9d8:	ffffffff ffffffff ffffffff ffffffff     ................
9d00d9e8:	000000ff                                ....

Disassembly of section .text:

9d00d9ec <dpfloor>:
9d00d9ec:	3c018000 00a13024 00053840 00073d42     ...<$0..@8..B=..
9d00d9fc:	240107ff 10e1002b 00000000 24090433     ...$+.......3..$
9d00da0c:	01273823 2ce10035 1420000b 00000000     #8'.5..,.. .....
9d00da1c:	04e00020 00000000 10c0002d 00000000      .......-.......
9d00da2c:	00054840 01244825 15200026 00000000     @H..%H$.&. .....
9d00da3c:	10000027 00000000                       '.......

9d00da44 <i1>:
9d00da44:	10c00005 	beqz	a2,9d00da5c <i3>
9d00da48:	00000000 	nop
9d00da4c:	0004482b 	sltu	t1,zero,a0
9d00da50:	00042023 	negu	a0,a0
9d00da54:	00052823 	negu	a1,a1
9d00da58:	00a92823 	subu	a1,a1,t1

9d00da5c <i3>:
9d00da5c:	30e9001f 	andi	t1,a3,0x1f
9d00da60:	24080001 	li	t0,1
9d00da64:	01284004 	sllv	t0,t0,t1
9d00da68:	00084023 	negu	t0,t0
9d00da6c:	2ce10020 	sltiu	at,a3,32
9d00da70:	14200004 	bnez	at,9d00da84 <i4>
9d00da74:	00000000 	nop
9d00da78:	24040000 	li	a0,0
9d00da7c:	10000002 	b	9d00da88 <e4>
9d00da80:	00a82824 	and	a1,a1,t0

9d00da84 <i4>:
9d00da84:	00882024 	and	a0,a0,t0

9d00da88 <e4>:
9d00da88:	10c00005 	beqz	a2,9d00daa0 <Aret>
9d00da8c:	00000000 	nop
9d00da90:	0004482b 	sltu	t1,zero,a0
9d00da94:	00042023 	negu	a0,a0
9d00da98:	00052823 	negu	a1,a1
9d00da9c:	00a92823 	subu	a1,a1,t1

9d00daa0 <Aret>:
9d00daa0:	00041025 	or	v0,zero,a0
9d00daa4:	00051825 	or	v1,zero,a1

9d00daa8 <A999>:
9d00daa8:	03e00008 	jr	ra
9d00daac:	00000000 	nop

9d00dab0 <Aspec>:
9d00dab0:	3c01000f 	lui	at,0xf
9d00dab4:	3421ffff 	ori	at,at,0xffff
9d00dab8:	00a14824 	and	t1,a1,at
9d00dabc:	01244825 	or	t1,t1,a0
9d00dac0:	15200009 	bnez	t1,9d00dae8 <Anan>
9d00dac4:	00000000 	nop
9d00dac8:	1000fff5 	b	9d00daa0 <Aret>
9d00dacc:	00000000 	nop

9d00dad0 <Amin1>:
9d00dad0:	3c05bff0 	lui	a1,0xbff0
9d00dad4:	1000fff2 	b	9d00daa0 <Aret>
9d00dad8:	24040000 	li	a0,0

9d00dadc <Azer>:
9d00dadc:	00062825 	or	a1,zero,a2
9d00dae0:	1000ffef 	b	9d00daa0 <Aret>
9d00dae4:	24040000 	li	a0,0

9d00dae8 <Anan>:
9d00dae8:	3c05fff8 	lui	a1,0xfff8
9d00daec:	1000ffec 	b	9d00daa0 <Aret>
9d00daf0:	24040000 	li	a0,0

Disassembly of section .text.__pad:

9d00daf4 <__pad>:
9d00daf4:	27bdffc0 	addiu	sp,sp,-64
9d00daf8:	afb3002c 	sw	s3,44(sp)
9d00dafc:	8fb30050 	lw	s3,80(sp)
9d00db00:	afb60038 	sw	s6,56(sp)
9d00db04:	afb40030 	sw	s4,48(sp)
9d00db08:	32730001 	andi	s3,s3,0x1
9d00db0c:	afb20028 	sw	s2,40(sp)
9d00db10:	afb10024 	sw	s1,36(sp)
9d00db14:	afb00020 	sw	s0,32(sp)
9d00db18:	afbf003c 	sw	ra,60(sp)
9d00db1c:	afb50034 	sw	s5,52(sp)
9d00db20:	00809025 	move	s2,a0
9d00db24:	00a0b025 	move	s6,a1
9d00db28:	00c08025 	move	s0,a2
9d00db2c:	00e08825 	move	s1,a3
9d00db30:	16600003 	bnez	s3,9d00db40 <__pad+0x4c>
9d00db34:	00c7a02b 	sltu	s4,a2,a3
9d00db38:	56800013 	bnezl	s4,9d00db88 <__pad+0x94>
9d00db3c:	0230a023 	subu	s4,s1,s0
9d00db40:	02003025 	move	a2,s0
9d00db44:	02c02825 	move	a1,s6
9d00db48:	0f403b52 	jal	9d00ed48 <__out>
9d00db4c:	02402025 	move	a0,s2
9d00db50:	1680000d 	bnez	s4,9d00db88 <__pad+0x94>
9d00db54:	0230a023 	subu	s4,s1,s0
9d00db58:	02008825 	move	s1,s0
9d00db5c:	8fbf003c 	lw	ra,60(sp)
9d00db60:	02201025 	move	v0,s1
9d00db64:	8fb60038 	lw	s6,56(sp)
9d00db68:	8fb50034 	lw	s5,52(sp)
9d00db6c:	8fb40030 	lw	s4,48(sp)
9d00db70:	8fb3002c 	lw	s3,44(sp)
9d00db74:	8fb20028 	lw	s2,40(sp)
9d00db78:	8fb10024 	lw	s1,36(sp)
9d00db7c:	8fb00020 	lw	s0,32(sp)
9d00db80:	03e00008 	jr	ra
9d00db84:	27bd0040 	addiu	sp,sp,64
9d00db88:	2e860011 	sltiu	a2,s4,17
9d00db8c:	24020010 	li	v0,16
9d00db90:	0286100b 	movn	v0,s4,a2
9d00db94:	00403025 	move	a2,v0
9d00db98:	24050020 	li	a1,32
9d00db9c:	27a40010 	addiu	a0,sp,16
9d00dba0:	0f404081 	jal	9d010204 <memset>
9d00dba4:	0280a825 	move	s5,s4
9d00dba8:	2ea20010 	sltiu	v0,s5,16
9d00dbac:	1040000b 	beqz	v0,9d00dbdc <__pad+0xe8>
9d00dbb0:	3286000f 	andi	a2,s4,0xf
9d00dbb4:	27a50010 	addiu	a1,sp,16
9d00dbb8:	0f403b52 	jal	9d00ed48 <__out>
9d00dbbc:	02402025 	move	a0,s2
9d00dbc0:	1660ffe6 	bnez	s3,9d00db5c <__pad+0x68>
9d00dbc4:	02003025 	move	a2,s0
9d00dbc8:	02c02825 	move	a1,s6
9d00dbcc:	0f403b52 	jal	9d00ed48 <__out>
9d00dbd0:	02402025 	move	a0,s2
9d00dbd4:	1000ffe2 	b	9d00db60 <__pad+0x6c>
9d00dbd8:	8fbf003c 	lw	ra,60(sp)
9d00dbdc:	24060010 	li	a2,16
9d00dbe0:	27a50010 	addiu	a1,sp,16
9d00dbe4:	0f403b52 	jal	9d00ed48 <__out>
9d00dbe8:	02402025 	move	a0,s2
9d00dbec:	1000ffee 	b	9d00dba8 <__pad+0xb4>
9d00dbf0:	26b5fff0 	addiu	s5,s5,-16

Disassembly of section .text.dptofp:

9d00dbf4 <__truncdfsf2>:
9d00dbf4:	00053ac0 00045d42 00eb3825 000432c0     .:..B]..%8...2..
9d00dc04:	3c018000 00e13825 3c018000 00a14824     ...<%8.....<$H..
9d00dc14:	00054040 00084542 2508fc80 250bffff     @@..BE.....%...%
9d00dc24:	2d6100fe 10200012 00000000              ..a-.. .....

9d00dc30 <Hlab1>:
9d00dc30:	10c00002 	beqz	a2,9d00dc3c <i45>
9d00dc34:	00000000 	nop
9d00dc38:	34e70001 	ori	a3,a3,0x1

9d00dc3c <i45>:
9d00dc3c:	24e70080 	addiu	a3,a3,128
9d00dc40:	2ceb0080 	sltiu	t3,a3,128
9d00dc44:	010b4021 	addu	t0,t0,t3
9d00dc48:	00075a02 	srl	t3,a3,0x8
9d00dc4c:	316b0001 	andi	t3,t3,0x1
9d00dc50:	00eb3823 	subu	a3,a3,t3
9d00dc54:	00073840 	sll	a3,a3,0x1
9d00dc58:	00073a42 	srl	a3,a3,0x9
9d00dc5c:	00085dc0 	sll	t3,t0,0x17
9d00dc60:	00eb3825 	or	a3,a3,t3
9d00dc64:	00e91025 	or	v0,a3,t1

9d00dc68 <H999>:
9d00dc68:	03e00008 	jr	ra
9d00dc6c:	00000000 	nop
9d00dc70:	00000000 	nop

9d00dc74 <Hspec>:
9d00dc74:	2401047f 	li	at,1151
9d00dc78:	15010007 	bne	t0,at,9d00dc98 <i46>
9d00dc7c:	00000000 	nop
9d00dc80:	00075840 	sll	t3,a3,0x1
9d00dc84:	01665825 	or	t3,t3,a2
9d00dc88:	11600003 	beqz	t3,9d00dc98 <i46>
9d00dc8c:	00000000 	nop
9d00dc90:	1000fff5 	b	9d00dc68 <H999>
9d00dc94:	3c02ffc0 	lui	v0,0xffc0

9d00dc98 <i46>:
9d00dc98:	290100ff 	slti	at,t0,255
9d00dc9c:	14200004 	bnez	at,9d00dcb0 <i48>
9d00dca0:	00000000 	nop
9d00dca4:	3c017f80 	lui	at,0x7f80
9d00dca8:	1000ffef 	b	9d00dc68 <H999>
9d00dcac:	01211025 	or	v0,t1,at

9d00dcb0 <i48>:
9d00dcb0:	240a0001 	li	t2,1
9d00dcb4:	01485023 	subu	t2,t2,t0
9d00dcb8:	2d410020 	sltiu	at,t2,32
9d00dcbc:	14200003 	bnez	at,9d00dccc <i49>
9d00dcc0:	00000000 	nop
9d00dcc4:	1000ffe8 	b	9d00dc68 <H999>
9d00dcc8:	00091025 	or	v0,zero,t1

9d00dccc <i49>:
9d00dccc:	240c0020 	li	t4,32
9d00dcd0:	018a6023 	subu	t4,t4,t2
9d00dcd4:	01875804 	sllv	t3,a3,t4
9d00dcd8:	00cb3025 	or	a2,a2,t3
9d00dcdc:	01473806 	srlv	a3,a3,t2
9d00dce0:	24080000 	li	t0,0
9d00dce4:	3c018000 	lui	at,0x8000
9d00dce8:	1000ffd1 	b	9d00dc30 <Hlab1>
9d00dcec:	00e13825 	or	a3,a3,at
9d00dcf0:	00000000 	nop

Disassembly of section .text.__fmt_o:

9d00dcf4 <__fmt_o>:
9d00dcf4:	8ca20000 	lw	v0,0(a1)
9d00dcf8:	8ca30004 	lw	v1,4(a1)
9d00dcfc:	27bdffc0 	addiu	sp,sp,-64
9d00dd00:	afb30038 	sw	s3,56(sp)
9d00dd04:	afb20034 	sw	s2,52(sp)
9d00dd08:	afb10030 	sw	s1,48(sp)
9d00dd0c:	afb0002c 	sw	s0,44(sp)
9d00dd10:	afbf003c 	sw	ra,60(sp)
9d00dd14:	00809025 	move	s2,a0
9d00dd18:	00a08025 	move	s0,a1
9d00dd1c:	8cb30008 	lw	s3,8(a1)
9d00dd20:	afa20020 	sw	v0,32(sp)
9d00dd24:	04600003 	bltz	v1,9d00dd34 <__fmt_o+0x40>
9d00dd28:	8cb1000c 	lw	s1,12(a1)
9d00dd2c:	7c020844 	ins	v0,zero,0x1,0x1
9d00dd30:	afa20020 	sw	v0,32(sp)
9d00dd34:	27a20020 	addiu	v0,sp,32
9d00dd38:	afa20018 	sw	v0,24(sp)
9d00dd3c:	24020008 	li	v0,8
9d00dd40:	afa20014 	sw	v0,20(sp)
9d00dd44:	afb30010 	sw	s3,16(sp)
9d00dd48:	8cc70004 	lw	a3,4(a2)
9d00dd4c:	8cc60000 	lw	a2,0(a2)
9d00dd50:	0f403475 	jal	9d00d1d4 <__cvt_u>
9d00dd54:	02002025 	move	a0,s0
9d00dd58:	8fa30020 	lw	v1,32(sp)
9d00dd5c:	30630010 	andi	v1,v1,0x10
9d00dd60:	10600004 	beqz	v1,9d00dd74 <__fmt_o+0x80>
9d00dd64:	24040030 	li	a0,48
9d00dd68:	2442ffff 	addiu	v0,v0,-1
9d00dd6c:	02221821 	addu	v1,s1,v0
9d00dd70:	a0640000 	sb	a0,0(v1)
9d00dd74:	8fa30020 	lw	v1,32(sp)
9d00dd78:	30630008 	andi	v1,v1,0x8
9d00dd7c:	10600004 	beqz	v1,9d00dd90 <__fmt_o+0x9c>
9d00dd80:	24040020 	li	a0,32
9d00dd84:	2442ffff 	addiu	v0,v0,-1
9d00dd88:	02221821 	addu	v1,s1,v0
9d00dd8c:	a0640000 	sb	a0,0(v1)
9d00dd90:	8e060010 	lw	a2,16(s0)
9d00dd94:	8fa30020 	lw	v1,32(sp)
9d00dd98:	02603825 	move	a3,s3
9d00dd9c:	24c6ffff 	addiu	a2,a2,-1
9d00dda0:	afa30010 	sw	v1,16(sp)
9d00dda4:	00c23023 	subu	a2,a2,v0
9d00dda8:	02222821 	addu	a1,s1,v0
9d00ddac:	0f4036bd 	jal	9d00daf4 <__pad>
9d00ddb0:	02402025 	move	a0,s2
9d00ddb4:	8e430004 	lw	v1,4(s2)
9d00ddb8:	30630100 	andi	v1,v1,0x100
9d00ddbc:	10600004 	beqz	v1,9d00ddd0 <__fmt_o+0xdc>
9d00ddc0:	8fbf003c 	lw	ra,60(sp)
9d00ddc4:	8e030004 	lw	v1,4(s0)
9d00ddc8:	0043202a 	slt	a0,v0,v1
9d00ddcc:	0064100b 	movn	v0,v1,a0
9d00ddd0:	8fb30038 	lw	s3,56(sp)
9d00ddd4:	8fb20034 	lw	s2,52(sp)
9d00ddd8:	8fb10030 	lw	s1,48(sp)
9d00dddc:	8fb0002c 	lw	s0,44(sp)
9d00dde0:	03e00008 	jr	ra
9d00dde4:	27bd0040 	addiu	sp,sp,64

Disassembly of section .text.scalbn:

9d00dde8 <scalbn>:
9d00dde8:	27bdffe0 	addiu	sp,sp,-32
9d00ddec:	afb10014 	sw	s1,20(sp)
9d00ddf0:	00c08825 	move	s1,a2
9d00ddf4:	28c60400 	slti	a2,a2,1024
9d00ddf8:	afbf001c 	sw	ra,28(sp)
9d00ddfc:	afb20018 	sw	s2,24(sp)
9d00de00:	14c0001f 	bnez	a2,9d00de80 <scalbn+0x98>
9d00de04:	afb00010 	sw	s0,16(sp)
9d00de08:	3c129d00 	lui	s2,0x9d00
9d00de0c:	8e467580 	lw	a2,30080(s2)
9d00de10:	8e477584 	lw	a3,30084(s2)
9d00de14:	0f402c54 	jal	9d00b150 <__muldf3>
9d00de18:	2630fc01 	addiu	s0,s1,-1023
9d00de1c:	2a040400 	slti	a0,s0,1024
9d00de20:	14800009 	bnez	a0,9d00de48 <scalbn+0x60>
9d00de24:	8e467580 	lw	a2,30080(s2)
9d00de28:	8e477584 	lw	a3,30084(s2)
9d00de2c:	00402025 	move	a0,v0
9d00de30:	00602825 	move	a1,v1
9d00de34:	0f402c54 	jal	9d00b150 <__muldf3>
9d00de38:	2630f802 	addiu	s0,s1,-2046
9d00de3c:	2a050400 	slti	a1,s0,1024
9d00de40:	240403ff 	li	a0,1023
9d00de44:	0085800a 	movz	s0,a0,a1
9d00de48:	261003ff 	addiu	s0,s0,1023
9d00de4c:	00102500 	sll	a0,s0,0x14
9d00de50:	00002825 	move	a1,zero
9d00de54:	00a03025 	move	a2,a1
9d00de58:	00803825 	move	a3,a0
9d00de5c:	00602825 	move	a1,v1
9d00de60:	0f402c54 	jal	9d00b150 <__muldf3>
9d00de64:	00402025 	move	a0,v0
9d00de68:	8fbf001c 	lw	ra,28(sp)
9d00de6c:	8fb20018 	lw	s2,24(sp)
9d00de70:	8fb10014 	lw	s1,20(sp)
9d00de74:	8fb00010 	lw	s0,16(sp)
9d00de78:	03e00008 	jr	ra
9d00de7c:	27bd0020 	addiu	sp,sp,32
9d00de80:	2a26fc02 	slti	a2,s1,-1022
9d00de84:	00801025 	move	v0,a0
9d00de88:	00a01825 	move	v1,a1
9d00de8c:	10c0ffee 	beqz	a2,9d00de48 <scalbn+0x60>
9d00de90:	02208025 	move	s0,s1
9d00de94:	3c129d00 	lui	s2,0x9d00
9d00de98:	8e467588 	lw	a2,30088(s2)
9d00de9c:	8e47758c 	lw	a3,30092(s2)
9d00dea0:	0f402c54 	jal	9d00b150 <__muldf3>
9d00dea4:	263003c9 	addiu	s0,s1,969
9d00dea8:	2a04fc02 	slti	a0,s0,-1022
9d00deac:	1080ffe6 	beqz	a0,9d00de48 <scalbn+0x60>
9d00deb0:	8e467588 	lw	a2,30088(s2)
9d00deb4:	8e47758c 	lw	a3,30092(s2)
9d00deb8:	00402025 	move	a0,v0
9d00debc:	00602825 	move	a1,v1
9d00dec0:	0f402c54 	jal	9d00b150 <__muldf3>
9d00dec4:	26300792 	addiu	s0,s1,1938
9d00dec8:	2a05fc02 	slti	a1,s0,-1022
9d00decc:	2404fc02 	li	a0,-1022
9d00ded0:	1000ffdd 	b	9d00de48 <scalbn+0x60>
9d00ded4:	0085800b 	movn	s0,a0,a1

Disassembly of section .text.__pop_ptr:

9d00ded8 <__pop_ptr>:
9d00ded8:	24020084 	li	v0,132
9d00dedc:	50a20022 	beql	a1,v0,9d00df68 <__pop_ptr+0x90>
9d00dee0:	8ce20000 	lw	v0,0(a3)
9d00dee4:	28a20085 	slti	v0,a1,133
9d00dee8:	10400010 	beqz	v0,9d00df2c <__pop_ptr+0x54>
9d00deec:	24020081 	li	v0,129
9d00def0:	50a20008 	beql	a1,v0,9d00df14 <__pop_ptr+0x3c>
9d00def4:	8ce20000 	lw	v0,0(a3)
9d00def8:	24020082 	li	v0,130
9d00defc:	50a20027 	beql	a1,v0,9d00df9c <__pop_ptr+0xc4>
9d00df00:	8ce20000 	lw	v0,0(a3)
9d00df04:	24020080 	li	v0,128
9d00df08:	14a20010 	bne	a1,v0,9d00df4c <__pop_ptr+0x74>
9d00df0c:	00000000 	nop
9d00df10:	8ce20000 	lw	v0,0(a3)
9d00df14:	24430004 	addiu	v1,v0,4
9d00df18:	ace30000 	sw	v1,0(a3)
9d00df1c:	8c420000 	lw	v0,0(v0)
9d00df20:	ac820000 	sw	v0,0(a0)
9d00df24:	10000015 	b	9d00df7c <__pop_ptr+0xa4>
9d00df28:	ac460000 	sw	a2,0(v0)
9d00df2c:	24020090 	li	v0,144
9d00df30:	50a2001a 	beql	a1,v0,9d00df9c <__pop_ptr+0xc4>
9d00df34:	8ce20000 	lw	v0,0(a3)
9d00df38:	28a20091 	slti	v0,a1,145
9d00df3c:	10400005 	beqz	v0,9d00df54 <__pop_ptr+0x7c>
9d00df40:	24020088 	li	v0,136
9d00df44:	50a2000f 	beql	a1,v0,9d00df84 <__pop_ptr+0xac>
9d00df48:	8ce20000 	lw	v0,0(a3)
9d00df4c:	03e00008 	jr	ra
9d00df50:	00001025 	move	v0,zero
9d00df54:	240200a0 	li	v0,160
9d00df58:	50a2ffee 	beql	a1,v0,9d00df14 <__pop_ptr+0x3c>
9d00df5c:	8ce20000 	lw	v0,0(a3)
9d00df60:	1000ffe9 	b	9d00df08 <__pop_ptr+0x30>
9d00df64:	240200c0 	li	v0,192
9d00df68:	24430004 	addiu	v1,v0,4
9d00df6c:	ace30000 	sw	v1,0(a3)
9d00df70:	8c420000 	lw	v0,0(v0)
9d00df74:	ac820000 	sw	v0,0(a0)
9d00df78:	a4460000 	sh	a2,0(v0)
9d00df7c:	03e00008 	jr	ra
9d00df80:	24020001 	li	v0,1
9d00df84:	24430004 	addiu	v1,v0,4
9d00df88:	ace30000 	sw	v1,0(a3)
9d00df8c:	8c420000 	lw	v0,0(v0)
9d00df90:	ac820000 	sw	v0,0(a0)
9d00df94:	1000fff9 	b	9d00df7c <__pop_ptr+0xa4>
9d00df98:	a0460000 	sb	a2,0(v0)
9d00df9c:	24430004 	addiu	v1,v0,4
9d00dfa0:	ace30000 	sw	v1,0(a3)
9d00dfa4:	8c420000 	lw	v0,0(v0)
9d00dfa8:	ac820000 	sw	v0,0(a0)
9d00dfac:	ac460000 	sw	a2,0(v0)
9d00dfb0:	000637c3 	sra	a2,a2,0x1f
9d00dfb4:	1000fff1 	b	9d00df7c <__pop_ptr+0xa4>
9d00dfb8:	ac460004 	sw	a2,4(v0)

Disassembly of section .text.general_exception:

9d00dfbc <_general_exception_context>:
9d00dfbc:	27bdffa8 	addiu	sp,sp,-88
9d00dfc0:	afa10004 	sw	at,4(sp)
9d00dfc4:	afa20008 	sw	v0,8(sp)
9d00dfc8:	afa3000c 	sw	v1,12(sp)
9d00dfcc:	afa40010 	sw	a0,16(sp)
9d00dfd0:	afa50014 	sw	a1,20(sp)
9d00dfd4:	afa60018 	sw	a2,24(sp)
9d00dfd8:	afa7001c 	sw	a3,28(sp)
9d00dfdc:	afa80020 	sw	t0,32(sp)
9d00dfe0:	afa90024 	sw	t1,36(sp)
9d00dfe4:	afaa0028 	sw	t2,40(sp)
9d00dfe8:	afab002c 	sw	t3,44(sp)
9d00dfec:	afac0030 	sw	t4,48(sp)
9d00dff0:	afad0034 	sw	t5,52(sp)
9d00dff4:	afae0038 	sw	t6,56(sp)
9d00dff8:	afaf003c 	sw	t7,60(sp)
9d00dffc:	afb80040 	sw	t8,64(sp)
9d00e000:	afb90044 	sw	t9,68(sp)
9d00e004:	afbf0048 	sw	ra,72(sp)
9d00e008:	00004012 	mflo	t0
9d00e00c:	afa8004c 	sw	t0,76(sp)
9d00e010:	00004010 	mfhi	t0
9d00e014:	afa80050 	sw	t0,80(sp)
9d00e018:	3c1a9d01 	lui	k0,0x9d01
9d00e01c:	275afb7c 	addiu	k0,k0,-1156
9d00e020:	00000000 	nop
9d00e024:	40046800 	mfc0	a0,c0_cause
9d00e028:	40056000 	mfc0	a1,c0_status
9d00e02c:	0340f809 	jalr	k0
9d00e030:	00000000 	nop
9d00e034:	8fa80050 	lw	t0,80(sp)
9d00e038:	01000011 	mthi	t0
9d00e03c:	8fa8004c 	lw	t0,76(sp)
9d00e040:	01000013 	mtlo	t0
9d00e044:	8fa10004 	lw	at,4(sp)
9d00e048:	8fa20008 	lw	v0,8(sp)
9d00e04c:	8fa3000c 	lw	v1,12(sp)
9d00e050:	8fa40010 	lw	a0,16(sp)
9d00e054:	8fa50014 	lw	a1,20(sp)
9d00e058:	8fa60018 	lw	a2,24(sp)
9d00e05c:	8fa7001c 	lw	a3,28(sp)
9d00e060:	8fa80020 	lw	t0,32(sp)
9d00e064:	8fa90024 	lw	t1,36(sp)
9d00e068:	8faa0028 	lw	t2,40(sp)
9d00e06c:	8fab002c 	lw	t3,44(sp)
9d00e070:	8fac0030 	lw	t4,48(sp)
9d00e074:	8fad0034 	lw	t5,52(sp)
9d00e078:	8fae0038 	lw	t6,56(sp)
9d00e07c:	8faf003c 	lw	t7,60(sp)
9d00e080:	8fb80040 	lw	t8,64(sp)
9d00e084:	8fb90044 	lw	t9,68(sp)
9d00e088:	8fbf0048 	lw	ra,72(sp)
9d00e08c:	27bd0058 	addiu	sp,sp,88
9d00e090:	000000c0 	ehb
9d00e094:	42000018 	eret

Disassembly of section .text.__stdio_read:

9d00e098 <__stdio_read>:
9d00e098:	8c83000c 	lw	v1,12(a0)
9d00e09c:	27bdffd0 	addiu	sp,sp,-48
9d00e0a0:	afb00020 	sw	s0,32(sp)
9d00e0a4:	0003102b 	sltu	v0,zero,v1
9d00e0a8:	00c21023 	subu	v0,a2,v0
9d00e0ac:	00808025 	move	s0,a0
9d00e0b0:	afa20014 	sw	v0,20(sp)
9d00e0b4:	8c820008 	lw	v0,8(a0)
9d00e0b8:	8c840000 	lw	a0,0(a0)
9d00e0bc:	afb20028 	sw	s2,40(sp)
9d00e0c0:	afb10024 	sw	s1,36(sp)
9d00e0c4:	00a09025 	move	s2,a1
9d00e0c8:	00c08825 	move	s1,a2
9d00e0cc:	afa50010 	sw	a1,16(sp)
9d00e0d0:	24060002 	li	a2,2
9d00e0d4:	27a50010 	addiu	a1,sp,16
9d00e0d8:	afbf002c 	sw	ra,44(sp)
9d00e0dc:	afa20018 	sw	v0,24(sp)
9d00e0e0:	0f403c3b 	jal	9d00f0ec <readv>
9d00e0e4:	afa3001c 	sw	v1,28(sp)
9d00e0e8:	1c400007 	bgtz	v0,9d00e108 <__stdio_read+0x70>
9d00e0ec:	30430018 	andi	v1,v0,0x18
9d00e0f0:	38640008 	xori	a0,v1,0x8
9d00e0f4:	8e030004 	lw	v1,4(s0)
9d00e0f8:	00641825 	or	v1,v1,a0
9d00e0fc:	ae030004 	sw	v1,4(s0)
9d00e100:	10000011 	b	9d00e148 <__stdio_read+0xb0>
9d00e104:	00408825 	move	s1,v0
9d00e108:	8fa40014 	lw	a0,20(sp)
9d00e10c:	0082182b 	sltu	v1,a0,v0
9d00e110:	5060000d 	beqzl	v1,9d00e148 <__stdio_read+0xb0>
9d00e114:	00408825 	move	s1,v0
9d00e118:	8e030008 	lw	v1,8(s0)
9d00e11c:	00441023 	subu	v0,v0,a0
9d00e120:	00621021 	addu	v0,v1,v0
9d00e124:	ae020040 	sw	v0,64(s0)
9d00e128:	8e02000c 	lw	v0,12(s0)
9d00e12c:	10400006 	beqz	v0,9d00e148 <__stdio_read+0xb0>
9d00e130:	ae03003c 	sw	v1,60(s0)
9d00e134:	24620001 	addiu	v0,v1,1
9d00e138:	ae02003c 	sw	v0,60(s0)
9d00e13c:	90620000 	lbu	v0,0(v1)
9d00e140:	02519021 	addu	s2,s2,s1
9d00e144:	a242ffff 	sb	v0,-1(s2)
9d00e148:	8fbf002c 	lw	ra,44(sp)
9d00e14c:	02201025 	move	v0,s1
9d00e150:	8fb20028 	lw	s2,40(sp)
9d00e154:	8fb10024 	lw	s1,36(sp)
9d00e158:	8fb00020 	lw	s0,32(sp)
9d00e15c:	03e00008 	jr	ra
9d00e160:	27bd0030 	addiu	sp,sp,48

Disassembly of section .text.__stdio_seek_rw:

9d00e164 <__stdio_seek_rw>:
9d00e164:	27bdffe0 	addiu	sp,sp,-32
9d00e168:	24020001 	li	v0,1
9d00e16c:	afb20018 	sw	s2,24(sp)
9d00e170:	afb10014 	sw	s1,20(sp)
9d00e174:	afb00010 	sw	s0,16(sp)
9d00e178:	afbf001c 	sw	ra,28(sp)
9d00e17c:	00808025 	move	s0,a0
9d00e180:	00c09025 	move	s2,a2
9d00e184:	14c20005 	bne	a2,v0,9d00e19c <__stdio_seek_rw+0x38>
9d00e188:	00a08825 	move	s1,a1
9d00e18c:	8c820040 	lw	v0,64(a0)
9d00e190:	8c83003c 	lw	v1,60(a0)
9d00e194:	00431023 	subu	v0,v0,v1
9d00e198:	00a28823 	subu	s1,a1,v0
9d00e19c:	8e020004 	lw	v0,4(s0)
9d00e1a0:	30420020 	andi	v0,v0,0x20
9d00e1a4:	1040000a 	beqz	v0,9d00e1d0 <__stdio_seek_rw+0x6c>
9d00e1a8:	02403025 	move	a2,s2
9d00e1ac:	8e020014 	lw	v0,20(s0)
9d00e1b0:	8e030018 	lw	v1,24(s0)
9d00e1b4:	0062102b 	sltu	v0,v1,v0
9d00e1b8:	5440000d 	bnezl	v0,9d00e1f0 <__stdio_seek_rw+0x8c>
9d00e1bc:	8e02002c 	lw	v0,44(s0)
9d00e1c0:	ae000028 	sw	zero,40(s0)
9d00e1c4:	ae000018 	sw	zero,24(s0)
9d00e1c8:	ae000014 	sw	zero,20(s0)
9d00e1cc:	02403025 	move	a2,s2
9d00e1d0:	02202825 	move	a1,s1
9d00e1d4:	0f403f15 	jal	9d00fc54 <__stdio_seek_unbuffered>
9d00e1d8:	02002025 	move	a0,s0
9d00e1dc:	0440000b 	bltz	v0,9d00e20c <__stdio_seek_rw+0xa8>
9d00e1e0:	00001025 	move	v0,zero
9d00e1e4:	ae000040 	sw	zero,64(s0)
9d00e1e8:	10000009 	b	9d00e210 <__stdio_seek_rw+0xac>
9d00e1ec:	ae00003c 	sw	zero,60(s0)
9d00e1f0:	00003025 	move	a2,zero
9d00e1f4:	00002825 	move	a1,zero
9d00e1f8:	0040f809 	jalr	v0
9d00e1fc:	02002025 	move	a0,s0
9d00e200:	8e020014 	lw	v0,20(s0)
9d00e204:	5440ffef 	bnezl	v0,9d00e1c4 <__stdio_seek_rw+0x60>
9d00e208:	ae000028 	sw	zero,40(s0)
9d00e20c:	2402ffff 	li	v0,-1
9d00e210:	8fbf001c 	lw	ra,28(sp)
9d00e214:	8fb20018 	lw	s2,24(sp)
9d00e218:	8fb10014 	lw	s1,20(sp)
9d00e21c:	8fb00010 	lw	s0,16(sp)
9d00e220:	03e00008 	jr	ra
9d00e224:	27bd0020 	addiu	sp,sp,32

Disassembly of section .text.__stdio_close_rw:

9d00e228 <__stdio_close_rw>:
9d00e228:	14800003 	bnez	a0,9d00e238 <__stdio_close_rw+0x10>
9d00e22c:	00001025 	move	v0,zero
9d00e230:	03e00008 	jr	ra
9d00e234:	00000000 	nop
9d00e238:	8c820004 	lw	v0,4(a0)
9d00e23c:	27bdffe0 	addiu	sp,sp,-32
9d00e240:	afb10018 	sw	s1,24(sp)
9d00e244:	30420020 	andi	v0,v0,0x20
9d00e248:	afb00014 	sw	s0,20(sp)
9d00e24c:	afbf001c 	sw	ra,28(sp)
9d00e250:	00808025 	move	s0,a0
9d00e254:	10400009 	beqz	v0,9d00e27c <__stdio_close_rw+0x54>
9d00e258:	00a08825 	move	s1,a1
9d00e25c:	8c820014 	lw	v0,20(a0)
9d00e260:	8c830018 	lw	v1,24(a0)
9d00e264:	0062102b 	sltu	v0,v1,v0
9d00e268:	54400014 	bnezl	v0,9d00e2bc <__stdio_close_rw+0x94>
9d00e26c:	8c82002c 	lw	v0,44(a0)
9d00e270:	ae000028 	sw	zero,40(s0)
9d00e274:	ae000018 	sw	zero,24(s0)
9d00e278:	ae000014 	sw	zero,20(s0)
9d00e27c:	8e05003c 	lw	a1,60(s0)
9d00e280:	8e020040 	lw	v0,64(s0)
9d00e284:	00a2182b 	sltu	v1,a1,v0
9d00e288:	10600004 	beqz	v1,9d00e29c <__stdio_close_rw+0x74>
9d00e28c:	24060001 	li	a2,1
9d00e290:	8e040000 	lw	a0,0(s0)
9d00e294:	0f404144 	jal	9d010510 <lseek>
9d00e298:	00a22823 	subu	a1,a1,v0
9d00e29c:	ae000040 	sw	zero,64(s0)
9d00e2a0:	ae00003c 	sw	zero,60(s0)
9d00e2a4:	1220000b 	beqz	s1,9d00e2d4 <__stdio_close_rw+0xac>
9d00e2a8:	00001025 	move	v0,zero
9d00e2ac:	0f404146 	jal	9d010518 <close>
9d00e2b0:	8e040000 	lw	a0,0(s0)
9d00e2b4:	10000008 	b	9d00e2d8 <__stdio_close_rw+0xb0>
9d00e2b8:	8fbf001c 	lw	ra,28(sp)
9d00e2bc:	00003025 	move	a2,zero
9d00e2c0:	0040f809 	jalr	v0
9d00e2c4:	00002825 	move	a1,zero
9d00e2c8:	8e030014 	lw	v1,20(s0)
9d00e2cc:	1460ffe8 	bnez	v1,9d00e270 <__stdio_close_rw+0x48>
9d00e2d0:	2402ffff 	li	v0,-1
9d00e2d4:	8fbf001c 	lw	ra,28(sp)
9d00e2d8:	8fb10018 	lw	s1,24(sp)
9d00e2dc:	8fb00014 	lw	s0,20(sp)
9d00e2e0:	03e00008 	jr	ra
9d00e2e4:	27bd0020 	addiu	sp,sp,32

Disassembly of section .text.__fmt_u:

9d00e2e8 <__fmt_u>:
9d00e2e8:	8ca20000 	lw	v0,0(a1)
9d00e2ec:	8ca30004 	lw	v1,4(a1)
9d00e2f0:	27bdffc0 	addiu	sp,sp,-64
9d00e2f4:	afb30038 	sw	s3,56(sp)
9d00e2f8:	afb20034 	sw	s2,52(sp)
9d00e2fc:	afb10030 	sw	s1,48(sp)
9d00e300:	afb0002c 	sw	s0,44(sp)
9d00e304:	afbf003c 	sw	ra,60(sp)
9d00e308:	00808825 	move	s1,a0
9d00e30c:	00a08025 	move	s0,a1
9d00e310:	8cb20008 	lw	s2,8(a1)
9d00e314:	afa20020 	sw	v0,32(sp)
9d00e318:	04600003 	bltz	v1,9d00e328 <__fmt_u+0x40>
9d00e31c:	8cb3000c 	lw	s3,12(a1)
9d00e320:	7c020844 	ins	v0,zero,0x1,0x1
9d00e324:	afa20020 	sw	v0,32(sp)
9d00e328:	27a20020 	addiu	v0,sp,32
9d00e32c:	afa20018 	sw	v0,24(sp)
9d00e330:	2402000a 	li	v0,10
9d00e334:	afa20014 	sw	v0,20(sp)
9d00e338:	afb20010 	sw	s2,16(sp)
9d00e33c:	8cc70004 	lw	a3,4(a2)
9d00e340:	8cc60000 	lw	a2,0(a2)
9d00e344:	0f403475 	jal	9d00d1d4 <__cvt_u>
9d00e348:	02002025 	move	a0,s0
9d00e34c:	8e060010 	lw	a2,16(s0)
9d00e350:	8fa30020 	lw	v1,32(sp)
9d00e354:	02403825 	move	a3,s2
9d00e358:	24c6ffff 	addiu	a2,a2,-1
9d00e35c:	afa30010 	sw	v1,16(sp)
9d00e360:	00c23023 	subu	a2,a2,v0
9d00e364:	02622821 	addu	a1,s3,v0
9d00e368:	0f4036bd 	jal	9d00daf4 <__pad>
9d00e36c:	02202025 	move	a0,s1
9d00e370:	8e230004 	lw	v1,4(s1)
9d00e374:	30630100 	andi	v1,v1,0x100
9d00e378:	10600004 	beqz	v1,9d00e38c <__fmt_u+0xa4>
9d00e37c:	8fbf003c 	lw	ra,60(sp)
9d00e380:	8e030004 	lw	v1,4(s0)
9d00e384:	0043202a 	slt	a0,v0,v1
9d00e388:	0064100b 	movn	v0,v1,a0
9d00e38c:	8fb30038 	lw	s3,56(sp)
9d00e390:	8fb20034 	lw	s2,52(sp)
9d00e394:	8fb10030 	lw	s1,48(sp)
9d00e398:	8fb0002c 	lw	s0,44(sp)
9d00e39c:	03e00008 	jr	ra
9d00e3a0:	27bd0040 	addiu	sp,sp,64

Disassembly of section .text.strtox:

9d00e3a4 <strtox>:
9d00e3a4:	27bdff78 	addiu	sp,sp,-136
9d00e3a8:	afb20080 	sw	s2,128(sp)
9d00e3ac:	afb1007c 	sw	s1,124(sp)
9d00e3b0:	afb00078 	sw	s0,120(sp)
9d00e3b4:	afbf0084 	sw	ra,132(sp)
9d00e3b8:	00808025 	move	s0,a0
9d00e3bc:	00a08825 	move	s1,a1
9d00e3c0:	00c09025 	move	s2,a2
9d00e3c4:	afa0001c 	sw	zero,28(sp)
9d00e3c8:	afa40054 	sw	a0,84(sp)
9d00e3cc:	afa40020 	sw	a0,32(sp)
9d00e3d0:	04800004 	bltz	a0,9d00e3e4 <strtox+0x40>
9d00e3d4:	2402ffff 	li	v0,-1
9d00e3d8:	3c027fff 	lui	v0,0x7fff
9d00e3dc:	3442ffff 	ori	v0,v0,0xffff
9d00e3e0:	00821021 	addu	v0,a0,v0
9d00e3e4:	00002825 	move	a1,zero
9d00e3e8:	27a40018 	addiu	a0,sp,24
9d00e3ec:	0f40402d 	jal	9d0100b4 <__shlim>
9d00e3f0:	afa20058 	sw	v0,88(sp)
9d00e3f4:	8fa20098 	lw	v0,152(sp)
9d00e3f8:	8fa3009c 	lw	v1,156(sp)
9d00e3fc:	02402825 	move	a1,s2
9d00e400:	27a40018 	addiu	a0,sp,24
9d00e404:	afa20010 	sw	v0,16(sp)
9d00e408:	afa30014 	sw	v1,20(sp)
9d00e40c:	0f402341 	jal	9d008d04 <__intscan>
9d00e410:	24060001 	li	a2,1
9d00e414:	00402025 	move	a0,v0
9d00e418:	12200008 	beqz	s1,9d00e43c <strtox+0x98>
9d00e41c:	00602825 	move	a1,v1
9d00e420:	8fa20058 	lw	v0,88(sp)
9d00e424:	8fa30054 	lw	v1,84(sp)
9d00e428:	00621823 	subu	v1,v1,v0
9d00e42c:	8fa2006c 	lw	v0,108(sp)
9d00e430:	00621821 	addu	v1,v1,v0
9d00e434:	02038021 	addu	s0,s0,v1
9d00e438:	ae300000 	sw	s0,0(s1)
9d00e43c:	8fbf0084 	lw	ra,132(sp)
9d00e440:	00801025 	move	v0,a0
9d00e444:	00a01825 	move	v1,a1
9d00e448:	8fb20080 	lw	s2,128(sp)
9d00e44c:	8fb1007c 	lw	s1,124(sp)
9d00e450:	8fb00078 	lw	s0,120(sp)
9d00e454:	03e00008 	jr	ra
9d00e458:	27bd0088 	addiu	sp,sp,136

Disassembly of section .text.__shgetc:

9d00e45c <__shgetc>:
9d00e45c:	8c820050 	lw	v0,80(a0)
9d00e460:	27bdffe8 	addiu	sp,sp,-24
9d00e464:	afb00010 	sw	s0,16(sp)
9d00e468:	afbf0014 	sw	ra,20(sp)
9d00e46c:	1040000b 	beqz	v0,9d00e49c <__shgetc+0x40>
9d00e470:	00808025 	move	s0,a0
9d00e474:	8c830054 	lw	v1,84(a0)
9d00e478:	0062102a 	slt	v0,v1,v0
9d00e47c:	14400007 	bnez	v0,9d00e49c <__shgetc+0x40>
9d00e480:	00000000 	nop
9d00e484:	ae00004c 	sw	zero,76(s0)
9d00e488:	2402ffff 	li	v0,-1
9d00e48c:	8fbf0014 	lw	ra,20(sp)
9d00e490:	8fb00010 	lw	s0,16(sp)
9d00e494:	03e00008 	jr	ra
9d00e498:	27bd0018 	addiu	sp,sp,24
9d00e49c:	0f403e58 	jal	9d00f960 <__uflow>
9d00e4a0:	02002025 	move	a0,s0
9d00e4a4:	0442fff8 	bltzl	v0,9d00e488 <__shgetc+0x2c>
9d00e4a8:	ae00004c 	sw	zero,76(s0)
9d00e4ac:	8e030040 	lw	v1,64(s0)
9d00e4b0:	8e040050 	lw	a0,80(s0)
9d00e4b4:	8e05003c 	lw	a1,60(s0)
9d00e4b8:	10800009 	beqz	a0,9d00e4e0 <__shgetc+0x84>
9d00e4bc:	00603025 	move	a2,v1
9d00e4c0:	8e060054 	lw	a2,84(s0)
9d00e4c4:	00653823 	subu	a3,v1,a1
9d00e4c8:	00862023 	subu	a0,a0,a2
9d00e4cc:	00e4382a 	slt	a3,a3,a0
9d00e4d0:	14e00003 	bnez	a3,9d00e4e0 <__shgetc+0x84>
9d00e4d4:	00603025 	move	a2,v1
9d00e4d8:	2484ffff 	addiu	a0,a0,-1
9d00e4dc:	00a43021 	addu	a2,a1,a0
9d00e4e0:	10600006 	beqz	v1,9d00e4fc <__shgetc+0xa0>
9d00e4e4:	ae06004c 	sw	a2,76(s0)
9d00e4e8:	8e040054 	lw	a0,84(s0)
9d00e4ec:	00651823 	subu	v1,v1,a1
9d00e4f0:	24630001 	addiu	v1,v1,1
9d00e4f4:	00831821 	addu	v1,a0,v1
9d00e4f8:	ae030054 	sw	v1,84(s0)
9d00e4fc:	90a3ffff 	lbu	v1,-1(a1)
9d00e500:	5462ffe2 	bnel	v1,v0,9d00e48c <__shgetc+0x30>
9d00e504:	a0a2ffff 	sb	v0,-1(a1)
9d00e508:	1000ffe1 	b	9d00e490 <__shgetc+0x34>
9d00e50c:	8fbf0014 	lw	ra,20(sp)

Disassembly of section .text.__skipws:

9d00e510 <__skipws>:
9d00e510:	27bdffd8 	addiu	sp,sp,-40
9d00e514:	afb30020 	sw	s3,32(sp)
9d00e518:	afb2001c 	sw	s2,28(sp)
9d00e51c:	afb10018 	sw	s1,24(sp)
9d00e520:	afb00014 	sw	s0,20(sp)
9d00e524:	afbf0024 	sw	ra,36(sp)
9d00e528:	00808025 	move	s0,a0
9d00e52c:	00008825 	move	s1,zero
9d00e530:	2412ffff 	li	s2,-1
9d00e534:	24130020 	li	s3,32
9d00e538:	8e02003c 	lw	v0,60(s0)
9d00e53c:	8e03004c 	lw	v1,76(s0)
9d00e540:	0043182b 	sltu	v1,v0,v1
9d00e544:	10600018 	beqz	v1,9d00e5a8 <__skipws+0x98>
9d00e548:	24430001 	addiu	v1,v0,1
9d00e54c:	ae03003c 	sw	v1,60(s0)
9d00e550:	90420000 	lbu	v0,0(v0)
9d00e554:	10530012 	beq	v0,s3,9d00e5a0 <__skipws+0x90>
9d00e558:	2442fff7 	addiu	v0,v0,-9
9d00e55c:	2c420005 	sltiu	v0,v0,5
9d00e560:	5440fff5 	bnezl	v0,9d00e538 <__skipws+0x28>
9d00e564:	26310001 	addiu	s1,s1,1
9d00e568:	8e02004c 	lw	v0,76(s0)
9d00e56c:	10400005 	beqz	v0,9d00e584 <__skipws+0x74>
9d00e570:	8fbf0024 	lw	ra,36(sp)
9d00e574:	8e02003c 	lw	v0,60(s0)
9d00e578:	2442ffff 	addiu	v0,v0,-1
9d00e57c:	ae02003c 	sw	v0,60(s0)
9d00e580:	8fbf0024 	lw	ra,36(sp)
9d00e584:	02201025 	move	v0,s1
9d00e588:	8fb30020 	lw	s3,32(sp)
9d00e58c:	8fb2001c 	lw	s2,28(sp)
9d00e590:	8fb10018 	lw	s1,24(sp)
9d00e594:	8fb00014 	lw	s0,20(sp)
9d00e598:	03e00008 	jr	ra
9d00e59c:	27bd0028 	addiu	sp,sp,40
9d00e5a0:	1000ffe5 	b	9d00e538 <__skipws+0x28>
9d00e5a4:	26310001 	addiu	s1,s1,1
9d00e5a8:	0f403917 	jal	9d00e45c <__shgetc>
9d00e5ac:	02002025 	move	a0,s0
9d00e5b0:	1452ffe8 	bne	v0,s2,9d00e554 <__skipws+0x44>
9d00e5b4:	8fbf0024 	lw	ra,36(sp)
9d00e5b8:	1000fff3 	b	9d00e588 <__skipws+0x78>
9d00e5bc:	02201025 	move	v0,s1

Disassembly of section .text._sbrk:

9d00e5c0 <_sbrk>:
9d00e5c0:	27bdffe0 	addiu	sp,sp,-32
9d00e5c4:	afb00014 	sw	s0,20(sp)
9d00e5c8:	3c10a000 	lui	s0,0xa000
9d00e5cc:	8e0203b8 	lw	v0,952(s0)
9d00e5d0:	afb10018 	sw	s1,24(sp)
9d00e5d4:	afbf001c 	sw	ra,28(sp)
9d00e5d8:	1440000f 	bnez	v0,9d00e618 <_sbrk+0x58>
9d00e5dc:	00808825 	move	s1,a0
9d00e5e0:	0f403324 	jal	9d00cc90 <_sbrk_init>
9d00e5e4:	00000000 	nop
9d00e5e8:	8e0203b8 	lw	v0,952(s0)
9d00e5ec:	1440000b 	bnez	v0,9d00e61c <_sbrk+0x5c>
9d00e5f0:	00000000 	nop
9d00e5f4:	3c02a000 	lui	v0,0xa000
9d00e5f8:	2403000c 	li	v1,12
9d00e5fc:	ac4303c8 	sw	v1,968(v0)
9d00e600:	2402ffff 	li	v0,-1
9d00e604:	8fbf001c 	lw	ra,28(sp)
9d00e608:	8fb10018 	lw	s1,24(sp)
9d00e60c:	8fb00014 	lw	s0,20(sp)
9d00e610:	03e00008 	jr	ra
9d00e614:	27bd0020 	addiu	sp,sp,32
9d00e618:	8e0203b8 	lw	v0,952(s0)
9d00e61c:	1a20000a 	blez	s1,9d00e648 <_sbrk+0x88>
9d00e620:	00511821 	addu	v1,v0,s1
9d00e624:	0062202b 	sltu	a0,v1,v0
9d00e628:	1480fff2 	bnez	a0,9d00e5f4 <_sbrk+0x34>
9d00e62c:	3c04a000 	lui	a0,0xa000
9d00e630:	8c8403bc 	lw	a0,956(a0)
9d00e634:	0083202b 	sltu	a0,a0,v1
9d00e638:	5480ffef 	bnezl	a0,9d00e5f8 <_sbrk+0x38>
9d00e63c:	3c02a000 	lui	v0,0xa000
9d00e640:	1000fff0 	b	9d00e604 <_sbrk+0x44>
9d00e644:	ae0303b8 	sw	v1,952(s0)
9d00e648:	0043202b 	sltu	a0,v0,v1
9d00e64c:	14800005 	bnez	a0,9d00e664 <_sbrk+0xa4>
9d00e650:	3c04a000 	lui	a0,0xa000
9d00e654:	8c8403c0 	lw	a0,960(a0)
9d00e658:	0064202b 	sltu	a0,v1,a0
9d00e65c:	5080ffe9 	beqzl	a0,9d00e604 <_sbrk+0x44>
9d00e660:	ae0303b8 	sw	v1,952(s0)
9d00e664:	3c02a000 	lui	v0,0xa000
9d00e668:	1000ffe4 	b	9d00e5fc <_sbrk+0x3c>
9d00e66c:	24030016 	li	v1,22

Disassembly of section .text.unbin:

9d00e670 <unbin>:
9d00e670:	27bdffe0 	addiu	sp,sp,-32
9d00e674:	afb20018 	sw	s2,24(sp)
9d00e678:	afb10014 	sw	s1,20(sp)
9d00e67c:	8c92000c 	lw	s2,12(a0)
9d00e680:	8c910008 	lw	s1,8(a0)
9d00e684:	afb00010 	sw	s0,16(sp)
9d00e688:	afbf001c 	sw	ra,28(sp)
9d00e68c:	16510013 	bne	s2,s1,9d00e6dc <unbin+0x6c>
9d00e690:	00808025 	move	s0,a0
9d00e694:	00a03025 	move	a2,a1
9d00e698:	24040001 	li	a0,1
9d00e69c:	0f403fb3 	jal	9d00fecc <__ashldi3>
9d00e6a0:	00002825 	move	a1,zero
9d00e6a4:	00031827 	nor	v1,zero,v1
9d00e6a8:	10400005 	beqz	v0,9d00e6c0 <unbin+0x50>
9d00e6ac:	00022827 	nor	a1,zero,v0
9d00e6b0:	3c04a000 	lui	a0,0xa000
9d00e6b4:	8c820148 	lw	v0,328(a0)
9d00e6b8:	00451024 	and	v0,v0,a1
9d00e6bc:	ac820148 	sw	v0,328(a0)
9d00e6c0:	2402ffff 	li	v0,-1
9d00e6c4:	10620005 	beq	v1,v0,9d00e6dc <unbin+0x6c>
9d00e6c8:	3c02a000 	lui	v0,0xa000
9d00e6cc:	24420148 	addiu	v0,v0,328
9d00e6d0:	8c440004 	lw	a0,4(v0)
9d00e6d4:	00641824 	and	v1,v1,a0
9d00e6d8:	ac430004 	sw	v1,4(v0)
9d00e6dc:	8e020004 	lw	v0,4(s0)
9d00e6e0:	ae510008 	sw	s1,8(s2)
9d00e6e4:	ae32000c 	sw	s2,12(s1)
9d00e6e8:	34430001 	ori	v1,v0,0x1
9d00e6ec:	7c020004 	ins	v0,zero,0x0,0x1
9d00e6f0:	ae030004 	sw	v1,4(s0)
9d00e6f4:	02028021 	addu	s0,s0,v0
9d00e6f8:	8e020000 	lw	v0,0(s0)
9d00e6fc:	8fbf001c 	lw	ra,28(sp)
9d00e700:	8fb20018 	lw	s2,24(sp)
9d00e704:	34420001 	ori	v0,v0,0x1
9d00e708:	ae020000 	sw	v0,0(s0)
9d00e70c:	8fb10014 	lw	s1,20(sp)
9d00e710:	8fb00010 	lw	s0,16(sp)
9d00e714:	03e00008 	jr	ra
9d00e718:	27bd0020 	addiu	sp,sp,32

Disassembly of section .text.fptodp:

9d00e71c <__extendsfdf2>:
9d00e71c:	00043dc2 30e700ff 3c018000 00813024     .=.....0...<$0..
9d00e72c:	24e9ffff 2d2100fe 1020000d 00000000     ...$..!-.. .....

9d00e73c <Glab1>:
9d00e73c:	24e70380 	addiu	a3,a3,896
9d00e740:	00044a40 	sll	t1,a0,0x9
9d00e744:	00094b02 	srl	t1,t1,0xc
9d00e748:	00c93025 	or	a2,a2,t1
9d00e74c:	00042f40 	sll	a1,a0,0x1d

9d00e750 <Gret>:
9d00e750:	00074d00 	sll	t1,a3,0x14
9d00e754:	00c93025 	or	a2,a2,t1
9d00e758:	00051025 	or	v0,zero,a1
9d00e75c:	00061825 	or	v1,zero,a2

9d00e760 <G999>:
9d00e760:	03e00008 	jr	ra
9d00e764:	00000000 	nop
9d00e768:	00000000 	nop

9d00e76c <Gspec>:
9d00e76c:	24050000 	li	a1,0
9d00e770:	00842021 	addu	a0,a0,a0
9d00e774:	1080fff6 	beqz	a0,9d00e750 <Gret>
9d00e778:	00000000 	nop
9d00e77c:	14e00009 	bnez	a3,9d00e7a4 <i42>
9d00e780:	00000000 	nop

9d00e784 <b43>:
9d00e784:	24e7ffff 	addiu	a3,a3,-1
9d00e788:	00842021 	addu	a0,a0,a0
9d00e78c:	3c010080 	lui	at,0x80
9d00e790:	0081082b 	sltu	at,a0,at
9d00e794:	1420fffb 	bnez	at,9d00e784 <b43>
9d00e798:	00000000 	nop
9d00e79c:	1000ffe7 	b	9d00e73c <Glab1>
9d00e7a0:	00000000 	nop

9d00e7a4 <i42>:
9d00e7a4:	240707ff 	li	a3,2047
9d00e7a8:	3c01ff00 	lui	at,0xff00
9d00e7ac:	34210001 	ori	at,at,0x1
9d00e7b0:	0081082b 	sltu	at,a0,at
9d00e7b4:	1420ffe6 	bnez	at,9d00e750 <Gret>
9d00e7b8:	00000000 	nop
9d00e7bc:	1000ffe4 	b	9d00e750 <Gret>
9d00e7c0:	3c06fff8 	lui	a2,0xfff8
9d00e7c4:	00000000 	nop

Disassembly of section .text.__push_float:

9d00e7c8 <__push_float>:
9d00e7c8:	24020081 	li	v0,129
9d00e7cc:	50a20012 	beql	a1,v0,9d00e818 <__push_float+0x50>
9d00e7d0:	8cc20000 	lw	v0,0(a2)
9d00e7d4:	24020083 	li	v0,131
9d00e7d8:	50a20006 	beql	a1,v0,9d00e7f4 <__push_float+0x2c>
9d00e7dc:	8cc20000 	lw	v0,0(a2)
9d00e7e0:	24020080 	li	v0,128
9d00e7e4:	10a20012 	beq	a1,v0,9d00e830 <__push_float+0x68>
9d00e7e8:	00001025 	move	v0,zero
9d00e7ec:	03e00008 	jr	ra
9d00e7f0:	00000000 	nop
9d00e7f4:	24430004 	addiu	v1,v0,4
9d00e7f8:	acc30000 	sw	v1,0(a2)
9d00e7fc:	8c850004 	lw	a1,4(a0)
9d00e800:	8c420000 	lw	v0,0(v0)
9d00e804:	8c840000 	lw	a0,0(a0)
9d00e808:	ac440000 	sw	a0,0(v0)
9d00e80c:	ac450004 	sw	a1,4(v0)
9d00e810:	03e00008 	jr	ra
9d00e814:	24020001 	li	v0,1
9d00e818:	24430004 	addiu	v1,v0,4
9d00e81c:	acc30000 	sw	v1,0(a2)
9d00e820:	8c850004 	lw	a1,4(a0)
9d00e824:	8c420000 	lw	v0,0(v0)
9d00e828:	1000fff7 	b	9d00e808 <__push_float+0x40>
9d00e82c:	8c840000 	lw	a0,0(a0)
9d00e830:	8cc20000 	lw	v0,0(a2)
9d00e834:	8c850004 	lw	a1,4(a0)
9d00e838:	8c840000 	lw	a0,0(a0)
9d00e83c:	24430004 	addiu	v1,v0,4
9d00e840:	27bdffe8 	addiu	sp,sp,-24
9d00e844:	acc30000 	sw	v1,0(a2)
9d00e848:	afb00010 	sw	s0,16(sp)
9d00e84c:	afbf0014 	sw	ra,20(sp)
9d00e850:	0f4036fd 	jal	9d00dbf4 <__truncdfsf2>
9d00e854:	8c500000 	lw	s0,0(v0)
9d00e858:	8fbf0014 	lw	ra,20(sp)
9d00e85c:	ae020000 	sw	v0,0(s0)
9d00e860:	24020001 	li	v0,1
9d00e864:	8fb00010 	lw	s0,16(sp)
9d00e868:	03e00008 	jr	ra
9d00e86c:	27bd0018 	addiu	sp,sp,24

Disassembly of section .text.normalize:

9d00e870 <normalize>:
9d00e870:	27bdffe0 	addiu	sp,sp,-32
9d00e874:	afb10018 	sw	s1,24(sp)
9d00e878:	00078d02 	srl	s1,a3,0x14
9d00e87c:	322507ff 	andi	a1,s1,0x7ff
9d00e880:	afb00014 	sw	s0,20(sp)
9d00e884:	afbf001c 	sw	ra,28(sp)
9d00e888:	00808025 	move	s0,a0
9d00e88c:	00c01025 	move	v0,a2
9d00e890:	14a0000e 	bnez	a1,9d00e8cc <normalize+0x5c>
9d00e894:	00e02025 	move	a0,a3
9d00e898:	3c029d00 	lui	v0,0x9d00
9d00e89c:	00c04025 	move	t0,a2
9d00e8a0:	00e01825 	move	v1,a3
9d00e8a4:	8c467560 	lw	a2,30048(v0)
9d00e8a8:	8c477564 	lw	a3,30052(v0)
9d00e8ac:	01002025 	move	a0,t0
9d00e8b0:	0f402c54 	jal	9d00b150 <__muldf3>
9d00e8b4:	00602825 	move	a1,v1
9d00e8b8:	00602025 	move	a0,v1
9d00e8bc:	7c635500 	ext	v1,v1,0x14,0xb
9d00e8c0:	10600002 	beqz	v1,9d00e8cc <normalize+0x5c>
9d00e8c4:	24050800 	li	a1,2048
9d00e8c8:	2465ffc1 	addiu	a1,v1,-63
9d00e8cc:	000237c2 	srl	a2,v0,0x1f
9d00e8d0:	00041840 	sll	v1,a0,0x1
9d00e8d4:	00021040 	sll	v0,v0,0x1
9d00e8d8:	00c31825 	or	v1,a2,v1
9d00e8dc:	8fbf001c 	lw	ra,28(sp)
9d00e8e0:	ae020000 	sw	v0,0(s0)
9d00e8e4:	7c63a000 	ext	v1,v1,0x0,0x15
9d00e8e8:	3c020020 	lui	v0,0x20
9d00e8ec:	00431825 	or	v1,v0,v1
9d00e8f0:	32310800 	andi	s1,s1,0x800
9d00e8f4:	24a5fbcc 	addiu	a1,a1,-1076
9d00e8f8:	ae11000c 	sw	s1,12(s0)
9d00e8fc:	02001025 	move	v0,s0
9d00e900:	ae030004 	sw	v1,4(s0)
9d00e904:	ae050008 	sw	a1,8(s0)
9d00e908:	8fb10018 	lw	s1,24(sp)
9d00e90c:	8fb00014 	lw	s0,20(sp)
9d00e910:	03e00008 	jr	ra
9d00e914:	27bd0020 	addiu	sp,sp,32

Disassembly of section .text.__fmt_s:

9d00e918 <__fmt_s>:
9d00e918:	3c036c75 	lui	v1,0x6c75
9d00e91c:	27bdffc8 	addiu	sp,sp,-56
9d00e920:	24636e28 	addiu	v1,v1,28200
9d00e924:	afa30018 	sw	v1,24(sp)
9d00e928:	2403296c 	li	v1,10604
9d00e92c:	afb20028 	sw	s2,40(sp)
9d00e930:	afb00020 	sw	s0,32(sp)
9d00e934:	afbf0034 	sw	ra,52(sp)
9d00e938:	afb40030 	sw	s4,48(sp)
9d00e93c:	afb3002c 	sw	s3,44(sp)
9d00e940:	afb10024 	sw	s1,36(sp)
9d00e944:	00809025 	move	s2,a0
9d00e948:	00e01025 	move	v0,a3
9d00e94c:	a7a3001c 	sh	v1,28(sp)
9d00e950:	a3a0001e 	sb	zero,30(sp)
9d00e954:	10c00002 	beqz	a2,9d00e960 <__fmt_s+0x48>
9d00e958:	27b00018 	addiu	s0,sp,24
9d00e95c:	00c08025 	move	s0,a2
9d00e960:	8cb10004 	lw	s1,4(a1)
9d00e964:	8cb30008 	lw	s3,8(a1)
9d00e968:	14400003 	bnez	v0,9d00e978 <__fmt_s+0x60>
9d00e96c:	8cb40000 	lw	s4,0(a1)
9d00e970:	0f40411a 	jal	9d010468 <strlen>
9d00e974:	02002025 	move	a0,s0
9d00e978:	06200002 	bltz	s1,9d00e984 <__fmt_s+0x6c>
9d00e97c:	0222182b 	sltu	v1,s1,v0
9d00e980:	0223100b 	movn	v0,s1,v1
9d00e984:	afb40010 	sw	s4,16(sp)
9d00e988:	02603825 	move	a3,s3
9d00e98c:	02002825 	move	a1,s0
9d00e990:	02402025 	move	a0,s2
9d00e994:	0f4036bd 	jal	9d00daf4 <__pad>
9d00e998:	00403025 	move	a2,v0
9d00e99c:	8fbf0034 	lw	ra,52(sp)
9d00e9a0:	8fb40030 	lw	s4,48(sp)
9d00e9a4:	8fb3002c 	lw	s3,44(sp)
9d00e9a8:	8fb20028 	lw	s2,40(sp)
9d00e9ac:	8fb10024 	lw	s1,36(sp)
9d00e9b0:	8fb00020 	lw	s0,32(sp)
9d00e9b4:	03e00008 	jr	ra
9d00e9b8:	27bd0038 	addiu	sp,sp,56

Disassembly of section .text.__string_read:

9d00e9bc <__string_read>:
9d00e9bc:	27bdffd0 	addiu	sp,sp,-48
9d00e9c0:	afb00014 	sw	s0,20(sp)
9d00e9c4:	8c900038 	lw	s0,56(a0)
9d00e9c8:	afb2001c 	sw	s2,28(sp)
9d00e9cc:	24d20100 	addiu	s2,a2,256
9d00e9d0:	afb50028 	sw	s5,40(sp)
9d00e9d4:	afb40024 	sw	s4,36(sp)
9d00e9d8:	afb30020 	sw	s3,32(sp)
9d00e9dc:	00a0a825 	move	s5,a1
9d00e9e0:	00809825 	move	s3,a0
9d00e9e4:	00c0a025 	move	s4,a2
9d00e9e8:	00002825 	move	a1,zero
9d00e9ec:	02403025 	move	a2,s2
9d00e9f0:	02002025 	move	a0,s0
9d00e9f4:	afbf002c 	sw	ra,44(sp)
9d00e9f8:	0f403fea 	jal	9d00ffa8 <memchr>
9d00e9fc:	afb10018 	sw	s1,24(sp)
9d00ea00:	54400001 	bnezl	v0,9d00ea08 <__string_read+0x4c>
9d00ea04:	00509023 	subu	s2,v0,s0
9d00ea08:	0292882b 	sltu	s1,s4,s2
9d00ea0c:	0251a00a 	movz	s4,s2,s1
9d00ea10:	02803025 	move	a2,s4
9d00ea14:	02002825 	move	a1,s0
9d00ea18:	0f404022 	jal	9d010088 <memcpy>
9d00ea1c:	02a02025 	move	a0,s5
9d00ea20:	8fbf002c 	lw	ra,44(sp)
9d00ea24:	02141021 	addu	v0,s0,s4
9d00ea28:	02128021 	addu	s0,s0,s2
9d00ea2c:	ae62003c 	sw	v0,60(s3)
9d00ea30:	ae700040 	sw	s0,64(s3)
9d00ea34:	ae700038 	sw	s0,56(s3)
9d00ea38:	02801025 	move	v0,s4
9d00ea3c:	8fb50028 	lw	s5,40(sp)
9d00ea40:	8fb40024 	lw	s4,36(sp)
9d00ea44:	8fb30020 	lw	s3,32(sp)
9d00ea48:	8fb2001c 	lw	s2,28(sp)
9d00ea4c:	8fb10018 	lw	s1,24(sp)
9d00ea50:	8fb00014 	lw	s0,20(sp)
9d00ea54:	03e00008 	jr	ra
9d00ea58:	27bd0030 	addiu	sp,sp,48

Disassembly of section .text.__stdio_close:

9d00ea5c <__stdio_close>:
9d00ea5c:	14800003 	bnez	a0,9d00ea6c <__stdio_close+0x10>
9d00ea60:	00001025 	move	v0,zero
9d00ea64:	03e00008 	jr	ra
9d00ea68:	00000000 	nop
9d00ea6c:	8c820004 	lw	v0,4(a0)
9d00ea70:	27bdffe0 	addiu	sp,sp,-32
9d00ea74:	afb10018 	sw	s1,24(sp)
9d00ea78:	30420020 	andi	v0,v0,0x20
9d00ea7c:	afb00014 	sw	s0,20(sp)
9d00ea80:	afbf001c 	sw	ra,28(sp)
9d00ea84:	00808025 	move	s0,a0
9d00ea88:	1440000b 	bnez	v0,9d00eab8 <__stdio_close+0x5c>
9d00ea8c:	00a08825 	move	s1,a1
9d00ea90:	ae000028 	sw	zero,40(s0)
9d00ea94:	ae000018 	sw	zero,24(s0)
9d00ea98:	16200014 	bnez	s1,9d00eaec <__stdio_close+0x90>
9d00ea9c:	ae000014 	sw	zero,20(s0)
9d00eaa0:	00001025 	move	v0,zero
9d00eaa4:	8fbf001c 	lw	ra,28(sp)
9d00eaa8:	8fb10018 	lw	s1,24(sp)
9d00eaac:	8fb00014 	lw	s0,20(sp)
9d00eab0:	03e00008 	jr	ra
9d00eab4:	27bd0020 	addiu	sp,sp,32
9d00eab8:	8c820014 	lw	v0,20(a0)
9d00eabc:	8c830018 	lw	v1,24(a0)
9d00eac0:	0062102b 	sltu	v0,v1,v0
9d00eac4:	1040fff2 	beqz	v0,9d00ea90 <__stdio_close+0x34>
9d00eac8:	00003025 	move	a2,zero
9d00eacc:	8c82002c 	lw	v0,44(a0)
9d00ead0:	0040f809 	jalr	v0
9d00ead4:	00002825 	move	a1,zero
9d00ead8:	8e030014 	lw	v1,20(s0)
9d00eadc:	1060fff1 	beqz	v1,9d00eaa4 <__stdio_close+0x48>
9d00eae0:	2402ffff 	li	v0,-1
9d00eae4:	1000ffeb 	b	9d00ea94 <__stdio_close+0x38>
9d00eae8:	ae000028 	sw	zero,40(s0)
9d00eaec:	0f404146 	jal	9d010518 <close>
9d00eaf0:	8e040000 	lw	a0,0(s0)
9d00eaf4:	1000ffec 	b	9d00eaa8 <__stdio_close+0x4c>
9d00eaf8:	8fbf001c 	lw	ra,28(sp)

Disassembly of section .text.__toread:

9d00eafc <__toread>:
9d00eafc:	27bdffe8 	addiu	sp,sp,-24
9d00eb00:	afb00010 	sw	s0,16(sp)
9d00eb04:	afbf0014 	sw	ra,20(sp)
9d00eb08:	80820048 	lb	v0,72(a0)
9d00eb0c:	2443ffff 	addiu	v1,v0,-1
9d00eb10:	00431025 	or	v0,v0,v1
9d00eb14:	a0820048 	sb	v0,72(a0)
9d00eb18:	8c830018 	lw	v1,24(a0)
9d00eb1c:	8c820014 	lw	v0,20(a0)
9d00eb20:	0062102b 	sltu	v0,v1,v0
9d00eb24:	10400005 	beqz	v0,9d00eb3c <__toread+0x40>
9d00eb28:	00808025 	move	s0,a0
9d00eb2c:	8c82002c 	lw	v0,44(a0)
9d00eb30:	00003025 	move	a2,zero
9d00eb34:	0040f809 	jalr	v0
9d00eb38:	00002825 	move	a1,zero
9d00eb3c:	8e020004 	lw	v0,4(s0)
9d00eb40:	ae000028 	sw	zero,40(s0)
9d00eb44:	ae000018 	sw	zero,24(s0)
9d00eb48:	30430002 	andi	v1,v0,0x2
9d00eb4c:	10600008 	beqz	v1,9d00eb70 <__toread+0x74>
9d00eb50:	ae000014 	sw	zero,20(s0)
9d00eb54:	34420010 	ori	v0,v0,0x10
9d00eb58:	ae020004 	sw	v0,4(s0)
9d00eb5c:	2402ffff 	li	v0,-1
9d00eb60:	8fbf0014 	lw	ra,20(sp)
9d00eb64:	8fb00010 	lw	s0,16(sp)
9d00eb68:	03e00008 	jr	ra
9d00eb6c:	27bd0018 	addiu	sp,sp,24
9d00eb70:	8e030008 	lw	v1,8(s0)
9d00eb74:	8e04000c 	lw	a0,12(s0)
9d00eb78:	7c4200c0 	ext	v0,v0,0x3,0x1
9d00eb7c:	00021023 	negu	v0,v0
9d00eb80:	00641821 	addu	v1,v1,a0
9d00eb84:	ae030040 	sw	v1,64(s0)
9d00eb88:	1000fff5 	b	9d00eb60 <__toread+0x64>
9d00eb8c:	ae03003c 	sw	v1,60(s0)

Disassembly of section .text.__stdio_seek:

9d00eb90 <__stdio_seek>:
9d00eb90:	8c820004 	lw	v0,4(a0)
9d00eb94:	27bdffe0 	addiu	sp,sp,-32
9d00eb98:	afb20018 	sw	s2,24(sp)
9d00eb9c:	30420020 	andi	v0,v0,0x20
9d00eba0:	afb10014 	sw	s1,20(sp)
9d00eba4:	afb00010 	sw	s0,16(sp)
9d00eba8:	afbf001c 	sw	ra,28(sp)
9d00ebac:	00808025 	move	s0,a0
9d00ebb0:	00a08825 	move	s1,a1
9d00ebb4:	10400009 	beqz	v0,9d00ebdc <__stdio_seek+0x4c>
9d00ebb8:	00c09025 	move	s2,a2
9d00ebbc:	8c820014 	lw	v0,20(a0)
9d00ebc0:	8c830018 	lw	v1,24(a0)
9d00ebc4:	0062102b 	sltu	v0,v1,v0
9d00ebc8:	5440000a 	bnezl	v0,9d00ebf4 <__stdio_seek+0x64>
9d00ebcc:	8c82002c 	lw	v0,44(a0)
9d00ebd0:	ae000028 	sw	zero,40(s0)
9d00ebd4:	ae000018 	sw	zero,24(s0)
9d00ebd8:	ae000014 	sw	zero,20(s0)
9d00ebdc:	02403025 	move	a2,s2
9d00ebe0:	02202825 	move	a1,s1
9d00ebe4:	0f403f15 	jal	9d00fc54 <__stdio_seek_unbuffered>
9d00ebe8:	02002025 	move	a0,s0
9d00ebec:	10000008 	b	9d00ec10 <__stdio_seek+0x80>
9d00ebf0:	8fbf001c 	lw	ra,28(sp)
9d00ebf4:	00003025 	move	a2,zero
9d00ebf8:	0040f809 	jalr	v0
9d00ebfc:	00002825 	move	a1,zero
9d00ec00:	8e030014 	lw	v1,20(s0)
9d00ec04:	1460fff2 	bnez	v1,9d00ebd0 <__stdio_seek+0x40>
9d00ec08:	2402ffff 	li	v0,-1
9d00ec0c:	8fbf001c 	lw	ra,28(sp)
9d00ec10:	8fb20018 	lw	s2,24(sp)
9d00ec14:	8fb10014 	lw	s1,20(sp)
9d00ec18:	8fb00010 	lw	s0,16(sp)
9d00ec1c:	03e00008 	jr	ra
9d00ec20:	27bd0020 	addiu	sp,sp,32

Disassembly of section .text.__overflow:

9d00ec24 <__overflow>:
9d00ec24:	8c820028 	lw	v0,40(a0)
9d00ec28:	27bdffe0 	addiu	sp,sp,-32
9d00ec2c:	afb00018 	sw	s0,24(sp)
9d00ec30:	afbf001c 	sw	ra,28(sp)
9d00ec34:	00808025 	move	s0,a0
9d00ec38:	10400010 	beqz	v0,9d00ec7c <__overflow+0x58>
9d00ec3c:	a3a50010 	sb	a1,16(sp)
9d00ec40:	8e030014 	lw	v1,20(s0)
9d00ec44:	8e020028 	lw	v0,40(s0)
9d00ec48:	0062102b 	sltu	v0,v1,v0
9d00ec4c:	14400014 	bnez	v0,9d00eca0 <__overflow+0x7c>
9d00ec50:	93a20010 	lbu	v0,16(sp)
9d00ec54:	8e02002c 	lw	v0,44(s0)
9d00ec58:	24060001 	li	a2,1
9d00ec5c:	27a50010 	addiu	a1,sp,16
9d00ec60:	0040f809 	jalr	v0
9d00ec64:	02002025 	move	a0,s0
9d00ec68:	24030001 	li	v1,1
9d00ec6c:	14430007 	bne	v0,v1,9d00ec8c <__overflow+0x68>
9d00ec70:	93a20010 	lbu	v0,16(sp)
9d00ec74:	10000007 	b	9d00ec94 <__overflow+0x70>
9d00ec78:	8fbf001c 	lw	ra,28(sp)
9d00ec7c:	0f403f38 	jal	9d00fce0 <__towrite>
9d00ec80:	00000000 	nop
9d00ec84:	5040ffef 	beqzl	v0,9d00ec44 <__overflow+0x20>
9d00ec88:	8e030014 	lw	v1,20(s0)
9d00ec8c:	2402ffff 	li	v0,-1
9d00ec90:	8fbf001c 	lw	ra,28(sp)
9d00ec94:	8fb00018 	lw	s0,24(sp)
9d00ec98:	03e00008 	jr	ra
9d00ec9c:	27bd0020 	addiu	sp,sp,32
9d00eca0:	82040034 	lb	a0,52(s0)
9d00eca4:	1044ffeb 	beq	v0,a0,9d00ec54 <__overflow+0x30>
9d00eca8:	24640001 	addiu	a0,v1,1
9d00ecac:	ae040014 	sw	a0,20(s0)
9d00ecb0:	1000fff7 	b	9d00ec90 <__overflow+0x6c>
9d00ecb4:	a0620000 	sb	v0,0(v1)

Disassembly of section .text.dptoli:

9d00ecb8 <__fixdfsi>:
9d00ecb8:	00053ac0 00045542 00ea3825 3c018000     .:..BU..%8.....<
9d00ecc8:	00e13825 00055040 000a5542 2406041e     %8..@P..BU.....$
9d00ecd8:	00ca3023 18c0000c 00000000 2cc10020     #0.......... ..,
9d00ece8:	14200002 00000000 34070000              .. ........4

9d00ecf4 <L42>:
9d00ecf4:	04a10002 	bgez	a1,9d00ed00 <i50>
9d00ecf8:	00c73806 	srlv	a3,a3,a2
9d00ecfc:	00073823 	negu	a3,a3

9d00ed00 <i50>:
9d00ed00:	00071025 	or	v0,zero,a3

9d00ed04 <I999>:
9d00ed04:	03e00008 	jr	ra
9d00ed08:	00000000 	nop
9d00ed0c:	00000000 	nop

9d00ed10 <Inaninf>:
9d00ed10:	10800002 	beqz	a0,9d00ed1c <i51>
9d00ed14:	00000000 	nop
9d00ed18:	34a50001 	ori	a1,a1,0x1

9d00ed1c <i51>:
9d00ed1c:	3c017ff0 	lui	at,0x7ff0
9d00ed20:	34210001 	ori	at,at,0x1
9d00ed24:	00a1082b 	sltu	at,a1,at
9d00ed28:	14200003 	bnez	at,9d00ed38 <i52>
9d00ed2c:	00000000 	nop
9d00ed30:	1000fff4 	b	9d00ed04 <I999>
9d00ed34:	3c028000 	lui	v0,0x8000

9d00ed38 <i52>:
9d00ed38:	3c027fff 	lui	v0,0x7fff
9d00ed3c:	1000fff1 	b	9d00ed04 <I999>
9d00ed40:	3442ffff 	ori	v0,v0,0xffff
9d00ed44:	00000000 	nop

Disassembly of section .text.__out:

9d00ed48 <__out>:
9d00ed48:	8c820004 	lw	v0,4(a0)
9d00ed4c:	27bdffe0 	addiu	sp,sp,-32
9d00ed50:	afbf001c 	sw	ra,28(sp)
9d00ed54:	30470100 	andi	a3,v0,0x100
9d00ed58:	afb10018 	sw	s1,24(sp)
9d00ed5c:	10e00016 	beqz	a3,9d00edb8 <__out+0x70>
9d00ed60:	afb00014 	sw	s0,20(sp)
9d00ed64:	8c820010 	lw	v0,16(a0)
9d00ed68:	00808025 	move	s0,a0
9d00ed6c:	00c01825 	move	v1,a2
9d00ed70:	00c2882b 	sltu	s1,a2,v0
9d00ed74:	8c840014 	lw	a0,20(a0)
9d00ed78:	0051180a 	movz	v1,v0,s1
9d00ed7c:	00603025 	move	a2,v1
9d00ed80:	0f404022 	jal	9d010088 <memcpy>
9d00ed84:	00608825 	move	s1,v1
9d00ed88:	8e020014 	lw	v0,20(s0)
9d00ed8c:	8e030010 	lw	v1,16(s0)
9d00ed90:	00511021 	addu	v0,v0,s1
9d00ed94:	00718823 	subu	s1,v1,s1
9d00ed98:	ae020014 	sw	v0,20(s0)
9d00ed9c:	ae110010 	sw	s1,16(s0)
9d00eda0:	a0400000 	sb	zero,0(v0)
9d00eda4:	8fbf001c 	lw	ra,28(sp)
9d00eda8:	8fb10018 	lw	s1,24(sp)
9d00edac:	8fb00014 	lw	s0,20(sp)
9d00edb0:	03e00008 	jr	ra
9d00edb4:	27bd0020 	addiu	sp,sp,32
9d00edb8:	30420010 	andi	v0,v0,0x10
9d00edbc:	5440fffa 	bnezl	v0,9d00eda8 <__out+0x60>
9d00edc0:	8fbf001c 	lw	ra,28(sp)
9d00edc4:	0f403fdd 	jal	9d00ff74 <__fwrite>
9d00edc8:	00000000 	nop
9d00edcc:	1000fff6 	b	9d00eda8 <__out+0x60>
9d00edd0:	8fbf001c 	lw	ra,28(sp)

Disassembly of section .text.dptoul:

9d00edd4 <__fixunsdfsi>:
9d00edd4:	00053ac0 00045542 00ea3825 3c018000     .:..BU..%8.....<
9d00ede4:	00e13825 00055040 000a5542 2406041e     %8..@P..BU.....$
9d00edf4:	00ca3023 04c0000c 00000000 2cc10020     #0.......... ..,
9d00ee04:	14200002 00000000 34070000              .. ........4

9d00ee10 <L43>:
9d00ee10:	04a10002 	bgez	a1,9d00ee1c <i53>
9d00ee14:	00c73806 	srlv	a3,a3,a2
9d00ee18:	00073823 	negu	a3,a3

9d00ee1c <i53>:
9d00ee1c:	00071025 	or	v0,zero,a3

9d00ee20 <K999>:
9d00ee20:	03e00008 	jr	ra
9d00ee24:	00000000 	nop
9d00ee28:	00000000 	nop

9d00ee2c <Knaninf>:
9d00ee2c:	10800002 	beqz	a0,9d00ee38 <i54>
9d00ee30:	00000000 	nop
9d00ee34:	34a50001 	ori	a1,a1,0x1

9d00ee38 <i54>:
9d00ee38:	3c017ff0 	lui	at,0x7ff0
9d00ee3c:	34210001 	ori	at,at,0x1
9d00ee40:	00a1082b 	sltu	at,a1,at
9d00ee44:	14200003 	bnez	at,9d00ee54 <i55>
9d00ee48:	00000000 	nop
9d00ee4c:	1000fff4 	b	9d00ee20 <K999>
9d00ee50:	3c028000 	lui	v0,0x8000

9d00ee54 <i55>:
9d00ee54:	1000fff2 	b	9d00ee20 <K999>
9d00ee58:	2402ffff 	li	v0,-1
9d00ee5c:	00000000 	nop

Disassembly of section .text.__fopen_rw:

9d00ee60 <__fopen_rw>:
9d00ee60:	27bdffe8 	addiu	sp,sp,-24
9d00ee64:	afb00010 	sw	s0,16(sp)
9d00ee68:	afbf0014 	sw	ra,20(sp)
9d00ee6c:	0f402e8b 	jal	9d00ba2c <malloc>
9d00ee70:	24040468 	li	a0,1128
9d00ee74:	10400017 	beqz	v0,9d00eed4 <__fopen_rw+0x74>
9d00ee78:	00408025 	move	s0,v0
9d00ee7c:	24060060 	li	a2,96
9d00ee80:	00002825 	move	a1,zero
9d00ee84:	0f404081 	jal	9d010204 <memset>
9d00ee88:	00402025 	move	a0,v0
9d00ee8c:	3c029d01 	lui	v0,0x9d01
9d00ee90:	2442028c 	addiu	v0,v0,652
9d00ee94:	ae02002c 	sw	v0,44(s0)
9d00ee98:	3c029d01 	lui	v0,0x9d01
9d00ee9c:	2442e164 	addiu	v0,v0,-7836
9d00eea0:	ae020030 	sw	v0,48(s0)
9d00eea4:	3c029d01 	lui	v0,0x9d01
9d00eea8:	2442e228 	addiu	v0,v0,-7640
9d00eeac:	ae02001c 	sw	v0,28(s0)
9d00eeb0:	3c029d01 	lui	v0,0x9d01
9d00eeb4:	2442e098 	addiu	v0,v0,-8040
9d00eeb8:	ae020044 	sw	v0,68(s0)
9d00eebc:	2402ffff 	li	v0,-1
9d00eec0:	a2020034 	sb	v0,52(s0)
9d00eec4:	26020068 	addiu	v0,s0,104
9d00eec8:	ae020008 	sw	v0,8(s0)
9d00eecc:	24020400 	li	v0,1024
9d00eed0:	ae02000c 	sw	v0,12(s0)
9d00eed4:	8fbf0014 	lw	ra,20(sp)
9d00eed8:	02001025 	move	v0,s0
9d00eedc:	8fb00010 	lw	s0,16(sp)
9d00eee0:	03e00008 	jr	ra
9d00eee4:	27bd0018 	addiu	sp,sp,24

Disassembly of section .text.write:

9d00eee8 <write>:
9d00eee8:	27bdffe0 	addiu	sp,sp,-32
9d00eeec:	afb10014 	sw	s1,20(sp)
9d00eef0:	afbf001c 	sw	ra,28(sp)
9d00eef4:	afb20018 	sw	s2,24(sp)
9d00eef8:	afb00010 	sw	s0,16(sp)
9d00eefc:	10a0000d 	beqz	a1,9d00ef34 <write+0x4c>
9d00ef00:	00008825 	move	s1,zero
9d00ef04:	50c0000c 	beqzl	a2,9d00ef38 <write+0x50>
9d00ef08:	8fbf001c 	lw	ra,28(sp)
9d00ef0c:	2c840003 	sltiu	a0,a0,3
9d00ef10:	10800008 	beqz	a0,9d00ef34 <write+0x4c>
9d00ef14:	00c08825 	move	s1,a2
9d00ef18:	3c020000 	lui	v0,0x0
9d00ef1c:	24420000 	addiu	v0,v0,0
9d00ef20:	1040000b 	beqz	v0,9d00ef50 <write+0x68>
9d00ef24:	00a08025 	move	s0,a1
9d00ef28:	00c02825 	move	a1,a2
9d00ef2c:	0c000000 	jal	90000000 <_bmxdudba_address+0x8fff0000>
9d00ef30:	02002025 	move	a0,s0
9d00ef34:	8fbf001c 	lw	ra,28(sp)
9d00ef38:	02201025 	move	v0,s1
9d00ef3c:	8fb20018 	lw	s2,24(sp)
9d00ef40:	8fb10014 	lw	s1,20(sp)
9d00ef44:	8fb00010 	lw	s0,16(sp)
9d00ef48:	03e00008 	jr	ra
9d00ef4c:	27bd0020 	addiu	sp,sp,32
9d00ef50:	00a69021 	addu	s2,a1,a2
9d00ef54:	82040000 	lb	a0,0(s0)
9d00ef58:	0f4035a7 	jal	9d00d69c <_mon_putc>
9d00ef5c:	26100001 	addiu	s0,s0,1
9d00ef60:	1650fffc 	bne	s2,s0,9d00ef54 <write+0x6c>
9d00ef64:	8fbf001c 	lw	ra,28(sp)
9d00ef68:	1000fff4 	b	9d00ef3c <write+0x54>
9d00ef6c:	02201025 	move	v0,s1

Disassembly of section .text.dinit.startup:

9d00ef70 <__pic32_data_init_impl>:
9d00ef70:	3c089d01 	lui	t0,0x9d01
9d00ef74:	2508d084 	addiu	t0,t0,-12156
9d00ef78:	1100001b 	beqz	t0,9d00efe8 <_dinit_end+0x18>
9d00ef7c:	00000000 	nop
9d00ef80:	8d090000 	lw	t1,0(t0)
9d00ef84:	11200018 	beqz	t1,9d00efe8 <_dinit_end+0x18>
9d00ef88:	25080004 	addiu	t0,t0,4
9d00ef8c:	8d0a0000 	lw	t2,0(t0)
9d00ef90:	25080004 	addiu	t0,t0,4
9d00ef94:	8d0b0000 	lw	t3,0(t0)
9d00ef98:	11600009 	beqz	t3,9d00efc0 <_dinit_clear>
9d00ef9c:	25080004 	addiu	t0,t0,4

9d00efa0 <_dinit_copy>:
9d00efa0:	910c0000 	lbu	t4,0(t0)
9d00efa4:	254affff 	addiu	t2,t2,-1
9d00efa8:	25080001 	addiu	t0,t0,1
9d00efac:	a12c0000 	sb	t4,0(t1)
9d00efb0:	1540fffb 	bnez	t2,9d00efa0 <_dinit_copy>
9d00efb4:	25290001 	addiu	t1,t1,1
9d00efb8:	10000005 	b	9d00efd0 <_dinit_end>
9d00efbc:	00000000 	nop

9d00efc0 <_dinit_clear>:
9d00efc0:	a1200000 	sb	zero,0(t1)
9d00efc4:	254affff 	addiu	t2,t2,-1
9d00efc8:	1540fffd 	bnez	t2,9d00efc0 <_dinit_clear>
9d00efcc:	25290001 	addiu	t1,t1,1

9d00efd0 <_dinit_end>:
9d00efd0:	25080003 	addiu	t0,t0,3
9d00efd4:	240afffc 	li	t2,-4
9d00efd8:	01484024 	and	t0,t2,t0
9d00efdc:	8d090000 	lw	t1,0(t0)
9d00efe0:	1520ffe7 	bnez	t1,9d00ef80 <__pic32_data_init_impl+0x10>
9d00efe4:	00000000 	nop
9d00efe8:	03e00008 	jr	ra
9d00efec:	00000000 	nop

Disassembly of section .text.__vsnprintf:

9d00eff0 <__vsnprintf>:
9d00eff0:	27bdffc8 	addiu	sp,sp,-56
9d00eff4:	2403ffff 	li	v1,-1
9d00eff8:	afa30010 	sw	v1,16(sp)
9d00effc:	24030102 	li	v1,258
9d00f000:	00a01025 	move	v0,a1
9d00f004:	afbf0034 	sw	ra,52(sp)
9d00f008:	00c02825 	move	a1,a2
9d00f00c:	afa30014 	sw	v1,20(sp)
9d00f010:	14800002 	bnez	a0,9d00f01c <__vsnprintf+0x2c>
9d00f014:	00e03025 	move	a2,a3
9d00f018:	27a4002c 	addiu	a0,sp,44
9d00f01c:	afa40018 	sw	a0,24(sp)
9d00f020:	afa2001c 	sw	v0,28(sp)
9d00f024:	10400002 	beqz	v0,9d00f030 <__vsnprintf+0x40>
9d00f028:	00001825 	move	v1,zero
9d00f02c:	2443ffff 	addiu	v1,v0,-1
9d00f030:	04410008 	bgez	v0,9d00f054 <__vsnprintf+0x64>
9d00f034:	afa30020 	sw	v1,32(sp)
9d00f038:	3c02a000 	lui	v0,0xa000
9d00f03c:	2403004f 	li	v1,79
9d00f040:	ac4303c8 	sw	v1,968(v0)
9d00f044:	2402ffff 	li	v0,-1
9d00f048:	8fbf0034 	lw	ra,52(sp)
9d00f04c:	03e00008 	jr	ra
9d00f050:	27bd0038 	addiu	sp,sp,56
9d00f054:	afa40028 	sw	a0,40(sp)
9d00f058:	afa40024 	sw	a0,36(sp)
9d00f05c:	a0800000 	sb	zero,0(a0)
9d00f060:	0f403f95 	jal	9d00fe54 <__vfprintf>
9d00f064:	27a40010 	addiu	a0,sp,16
9d00f068:	1000fff8 	b	9d00f04c <__vsnprintf+0x5c>
9d00f06c:	8fbf0034 	lw	ra,52(sp)

Disassembly of section .text.atoi:

9d00f070 <atoi>:
9d00f070:	24050020 	li	a1,32
9d00f074:	80820000 	lb	v0,0(a0)
9d00f078:	1045000d 	beq	v0,a1,9d00f0b0 <atoi+0x40>
9d00f07c:	2443fff7 	addiu	v1,v0,-9
9d00f080:	2c630005 	sltiu	v1,v1,5
9d00f084:	1460000a 	bnez	v1,9d00f0b0 <atoi+0x40>
9d00f088:	2403002b 	li	v1,43
9d00f08c:	1043000a 	beq	v0,v1,9d00f0b8 <atoi+0x48>
9d00f090:	2403002d 	li	v1,45
9d00f094:	14430003 	bne	v0,v1,9d00f0a4 <atoi+0x34>
9d00f098:	00002825 	move	a1,zero
9d00f09c:	24050001 	li	a1,1
9d00f0a0:	24840001 	addiu	a0,a0,1
9d00f0a4:	00001025 	move	v0,zero
9d00f0a8:	10000007 	b	9d00f0c8 <atoi+0x58>
9d00f0ac:	2407000a 	li	a3,10
9d00f0b0:	1000fff0 	b	9d00f074 <atoi+0x4>
9d00f0b4:	24840001 	addiu	a0,a0,1
9d00f0b8:	1000fff9 	b	9d00f0a0 <atoi+0x30>
9d00f0bc:	00002825 	move	a1,zero
9d00f0c0:	24840001 	addiu	a0,a0,1
9d00f0c4:	00431023 	subu	v0,v0,v1
9d00f0c8:	80830000 	lb	v1,0(a0)
9d00f0cc:	2463ffd0 	addiu	v1,v1,-48
9d00f0d0:	2c66000a 	sltiu	a2,v1,10
9d00f0d4:	54c0fffa 	bnezl	a2,9d00f0c0 <atoi+0x50>
9d00f0d8:	70471002 	mul	v0,v0,a3
9d00f0dc:	50a00001 	beqzl	a1,9d00f0e4 <atoi+0x74>
9d00f0e0:	00021023 	negu	v0,v0
9d00f0e4:	03e00008 	jr	ra
9d00f0e8:	00000000 	nop

Disassembly of section .text.__readv:

9d00f0ec <readv>:
9d00f0ec:	27bdffd8 	addiu	sp,sp,-40
9d00f0f0:	afb40020 	sw	s4,32(sp)
9d00f0f4:	afb3001c 	sw	s3,28(sp)
9d00f0f8:	afb20018 	sw	s2,24(sp)
9d00f0fc:	afb10014 	sw	s1,20(sp)
9d00f100:	afb00010 	sw	s0,16(sp)
9d00f104:	afbf0024 	sw	ra,36(sp)
9d00f108:	0080a025 	move	s4,a0
9d00f10c:	00c09825 	move	s3,a2
9d00f110:	00a08025 	move	s0,a1
9d00f114:	00008825 	move	s1,zero
9d00f118:	00009025 	move	s2,zero
9d00f11c:	0253102a 	slt	v0,s2,s3
9d00f120:	14400009 	bnez	v0,9d00f148 <readv+0x5c>
9d00f124:	8fbf0024 	lw	ra,36(sp)
9d00f128:	02201025 	move	v0,s1
9d00f12c:	8fb40020 	lw	s4,32(sp)
9d00f130:	8fb3001c 	lw	s3,28(sp)
9d00f134:	8fb20018 	lw	s2,24(sp)
9d00f138:	8fb10014 	lw	s1,20(sp)
9d00f13c:	8fb00010 	lw	s0,16(sp)
9d00f140:	03e00008 	jr	ra
9d00f144:	27bd0028 	addiu	sp,sp,40
9d00f148:	8e060004 	lw	a2,4(s0)
9d00f14c:	8e050000 	lw	a1,0(s0)
9d00f150:	02802025 	move	a0,s4
9d00f154:	0f4034c4 	jal	9d00d310 <read>
9d00f158:	26520001 	addiu	s2,s2,1
9d00f15c:	02228821 	addu	s1,s1,v0
9d00f160:	1000ffee 	b	9d00f11c <readv+0x30>
9d00f164:	26100008 	addiu	s0,s0,8

Disassembly of section .text.litodp:

9d00f168 <__floatsidf>:
9d00f168:	24050000 00054825 00053825 00043025     ...$%H..%8..%0..
9d00f178:	10c0000c 00000000 04c10006 00000000     ................
9d00f188:	3c098000 0005502b 00052823 00063023     ...<+P..#(..#0..
9d00f198:	00ca3023                                #0..

9d00f19c <i40>:
9d00f19c:	2407041e 	li	a3,1054
9d00f1a0:	70c84020 	clz	t0,a2
9d00f1a4:	00e83823 	subu	a3,a3,t0
9d00f1a8:	01063004 	sllv	a2,a2,t0

9d00f1ac <i39>:
9d00f1ac:	000542c2 	srl	t0,a1,0xb
9d00f1b0:	00065540 	sll	t2,a2,0x15
9d00f1b4:	010a4025 	or	t0,t0,t2
9d00f1b8:	00065040 	sll	t2,a2,0x1
9d00f1bc:	000a5302 	srl	t2,t2,0xc
9d00f1c0:	012a4825 	or	t1,t1,t2
9d00f1c4:	00075500 	sll	t2,a3,0x14
9d00f1c8:	012a4825 	or	t1,t1,t2
9d00f1cc:	00081025 	or	v0,zero,t0
9d00f1d0:	00091825 	or	v1,zero,t1

9d00f1d4 <E999>:
9d00f1d4:	03e00008 	jr	ra
9d00f1d8:	00000000 	nop
9d00f1dc:	00000000 	nop

Disassembly of section .text.alloc_rev:

9d00f1e0 <alloc_rev>:
9d00f1e0:	8c860000 	lw	a2,0(a0)
9d00f1e4:	30c20001 	andi	v0,a2,0x1
9d00f1e8:	10400009 	beqz	v0,9d00f210 <alloc_rev+0x30>
9d00f1ec:	00803825 	move	a3,a0
9d00f1f0:	03e00008 	jr	ra
9d00f1f4:	00001025 	move	v0,zero
9d00f1f8:	8ce60000 	lw	a2,0(a3)
9d00f1fc:	30c20001 	andi	v0,a2,0x1
9d00f200:	10400005 	beqz	v0,9d00f218 <alloc_rev+0x38>
9d00f204:	00001025 	move	v0,zero
9d00f208:	10000010 	b	9d00f24c <alloc_rev+0x6c>
9d00f20c:	8fbf0014 	lw	ra,20(sp)
9d00f210:	27bdffe8 	addiu	sp,sp,-24
9d00f214:	afbf0014 	sw	ra,20(sp)
9d00f218:	0f403d8c 	jal	9d00f630 <bin_index>
9d00f21c:	00c02025 	move	a0,a2
9d00f220:	00402025 	move	a0,v0
9d00f224:	0f403fd0 	jal	9d00ff40 <lock_bin>
9d00f228:	00404025 	move	t0,v0
9d00f22c:	8ce40000 	lw	a0,0(a3)
9d00f230:	1486fff1 	bne	a0,a2,9d00f1f8 <alloc_rev+0x18>
9d00f234:	7c040004 	ins	a0,zero,0x0,0x1
9d00f238:	01002825 	move	a1,t0
9d00f23c:	0f40399c 	jal	9d00e670 <unbin>
9d00f240:	00e42023 	subu	a0,a3,a0
9d00f244:	24020001 	li	v0,1
9d00f248:	8fbf0014 	lw	ra,20(sp)
9d00f24c:	03e00008 	jr	ra
9d00f250:	27bd0018 	addiu	sp,sp,24

Disassembly of section .text:

9d00f254 <__floatdidf>:
9d00f254:	27bdffe0 	addiu	sp,sp,-32
9d00f258:	afb20018 	sw	s2,24(sp)
9d00f25c:	00809025 	move	s2,a0
9d00f260:	00a02025 	move	a0,a1
9d00f264:	afbf001c 	sw	ra,28(sp)
9d00f268:	afb10014 	sw	s1,20(sp)
9d00f26c:	0f403c5a 	jal	9d00f168 <__floatsidf>
9d00f270:	afb00010 	sw	s0,16(sp)
9d00f274:	3c049d00 	lui	a0,0x9d00
9d00f278:	8c867590 	lw	a2,30096(a0)
9d00f27c:	8c877594 	lw	a3,30100(a0)
9d00f280:	00602825 	move	a1,v1
9d00f284:	0f402c54 	jal	9d00b150 <__muldf3>
9d00f288:	00402025 	move	a0,v0
9d00f28c:	02402025 	move	a0,s2
9d00f290:	00408025 	move	s0,v0
9d00f294:	0f403f49 	jal	9d00fd24 <__floatunsidf>
9d00f298:	00608825 	move	s1,v1
9d00f29c:	00402025 	move	a0,v0
9d00f2a0:	02003025 	move	a2,s0
9d00f2a4:	02203825 	move	a3,s1
9d00f2a8:	0f4028a2 	jal	9d00a288 <__adddf3>
9d00f2ac:	00602825 	move	a1,v1
9d00f2b0:	8fbf001c 	lw	ra,28(sp)
9d00f2b4:	8fb20018 	lw	s2,24(sp)
9d00f2b8:	8fb10014 	lw	s1,20(sp)
9d00f2bc:	8fb00010 	lw	s0,16(sp)
9d00f2c0:	03e00008 	jr	ra
9d00f2c4:	27bd0020 	addiu	sp,sp,32

Disassembly of section .text.__scan_d:

9d00f2c8 <__scan_d>:
9d00f2c8:	27bdffd8 	addiu	sp,sp,-40
9d00f2cc:	afb10020 	sw	s1,32(sp)
9d00f2d0:	afb0001c 	sw	s0,28(sp)
9d00f2d4:	00a08825 	move	s1,a1
9d00f2d8:	8cd0000c 	lw	s0,12(a2)
9d00f2dc:	00c02825 	move	a1,a2
9d00f2e0:	afbf0024 	sw	ra,36(sp)
9d00f2e4:	0f4033cd 	jal	9d00cf34 <__read_int>
9d00f2e8:	00e03025 	move	a2,a3
9d00f2ec:	2403ffff 	li	v1,-1
9d00f2f0:	1043000c 	beq	v0,v1,9d00f324 <__scan_d+0x5c>
9d00f2f4:	02002025 	move	a0,s0
9d00f2f8:	2406000a 	li	a2,10
9d00f2fc:	0f404001 	jal	9d010004 <strtoll>
9d00f300:	27a50010 	addiu	a1,sp,16
9d00f304:	ae220000 	sw	v0,0(s1)
9d00f308:	8fa20010 	lw	v0,16(sp)
9d00f30c:	ae230004 	sw	v1,4(s1)
9d00f310:	2404fffe 	li	a0,-2
9d00f314:	00501026 	xor	v0,v0,s0
9d00f318:	24030001 	li	v1,1
9d00f31c:	0082180a 	movz	v1,a0,v0
9d00f320:	00601025 	move	v0,v1
9d00f324:	8fbf0024 	lw	ra,36(sp)
9d00f328:	8fb10020 	lw	s1,32(sp)
9d00f32c:	8fb0001c 	lw	s0,28(sp)
9d00f330:	03e00008 	jr	ra
9d00f334:	27bd0028 	addiu	sp,sp,40

Disassembly of section .text.__scan_u:

9d00f338 <__scan_u>:
9d00f338:	27bdffd8 	addiu	sp,sp,-40
9d00f33c:	afb10020 	sw	s1,32(sp)
9d00f340:	afb0001c 	sw	s0,28(sp)
9d00f344:	00a08825 	move	s1,a1
9d00f348:	8cd0000c 	lw	s0,12(a2)
9d00f34c:	00c02825 	move	a1,a2
9d00f350:	afbf0024 	sw	ra,36(sp)
9d00f354:	0f4033cd 	jal	9d00cf34 <__read_int>
9d00f358:	00e03025 	move	a2,a3
9d00f35c:	2403ffff 	li	v1,-1
9d00f360:	1043000c 	beq	v0,v1,9d00f394 <__scan_u+0x5c>
9d00f364:	02002025 	move	a0,s0
9d00f368:	2406000a 	li	a2,10
9d00f36c:	0f403ff6 	jal	9d00ffd8 <strtoull>
9d00f370:	27a50010 	addiu	a1,sp,16
9d00f374:	ae220000 	sw	v0,0(s1)
9d00f378:	8fa20010 	lw	v0,16(sp)
9d00f37c:	ae230004 	sw	v1,4(s1)
9d00f380:	2404fffe 	li	a0,-2
9d00f384:	00501026 	xor	v0,v0,s0
9d00f388:	24030001 	li	v1,1
9d00f38c:	0082180a 	movz	v1,a0,v0
9d00f390:	00601025 	move	v0,v1
9d00f394:	8fbf0024 	lw	ra,36(sp)
9d00f398:	8fb10020 	lw	s1,32(sp)
9d00f39c:	8fb0001c 	lw	s0,28(sp)
9d00f3a0:	03e00008 	jr	ra
9d00f3a4:	27bd0028 	addiu	sp,sp,40

Disassembly of section .text.__consumews:

9d00f3a8 <__consumews>:
9d00f3a8:	8ca20000 	lw	v0,0(a1)
9d00f3ac:	24030020 	li	v1,32
9d00f3b0:	80420000 	lb	v0,0(v0)
9d00f3b4:	10430004 	beq	v0,v1,9d00f3c8 <__consumews+0x20>
9d00f3b8:	2442fff7 	addiu	v0,v0,-9
9d00f3bc:	2c430005 	sltiu	v1,v0,5
9d00f3c0:	10600013 	beqz	v1,9d00f410 <__consumews+0x68>
9d00f3c4:	00001025 	move	v0,zero
9d00f3c8:	27bdffe8 	addiu	sp,sp,-24
9d00f3cc:	afb00010 	sw	s0,16(sp)
9d00f3d0:	afbf0014 	sw	ra,20(sp)
9d00f3d4:	0f403944 	jal	9d00e510 <__skipws>
9d00f3d8:	00a08025 	move	s0,a1
9d00f3dc:	24040020 	li	a0,32
9d00f3e0:	8e030000 	lw	v1,0(s0)
9d00f3e4:	24650001 	addiu	a1,v1,1
9d00f3e8:	ae050000 	sw	a1,0(s0)
9d00f3ec:	80630001 	lb	v1,1(v1)
9d00f3f0:	1064fffb 	beq	v1,a0,9d00f3e0 <__consumews+0x38>
9d00f3f4:	2463fff7 	addiu	v1,v1,-9
9d00f3f8:	2c630005 	sltiu	v1,v1,5
9d00f3fc:	1460fff8 	bnez	v1,9d00f3e0 <__consumews+0x38>
9d00f400:	8fbf0014 	lw	ra,20(sp)
9d00f404:	8fb00010 	lw	s0,16(sp)
9d00f408:	03e00008 	jr	ra
9d00f40c:	27bd0018 	addiu	sp,sp,24
9d00f410:	03e00008 	jr	ra
9d00f414:	00000000 	nop

Disassembly of section .text.__putc:

9d00f418 <__putc>:
9d00f418:	8ca20004 	lw	v0,4(a1)
9d00f41c:	27bdffe8 	addiu	sp,sp,-24
9d00f420:	30420020 	andi	v0,v0,0x20
9d00f424:	14400006 	bnez	v0,9d00f440 <__putc+0x28>
9d00f428:	afbf0014 	sw	ra,20(sp)
9d00f42c:	0f403d74 	jal	9d00f5d0 <__putc_unbuffered>
9d00f430:	00000000 	nop
9d00f434:	8fbf0014 	lw	ra,20(sp)
9d00f438:	03e00008 	jr	ra
9d00f43c:	27bd0018 	addiu	sp,sp,24
9d00f440:	00803025 	move	a2,a0
9d00f444:	308200ff 	andi	v0,a0,0xff
9d00f448:	80a40034 	lb	a0,52(a1)
9d00f44c:	10820009 	beq	a0,v0,9d00f474 <__putc+0x5c>
9d00f450:	00a01825 	move	v1,a1
9d00f454:	8ca40014 	lw	a0,20(a1)
9d00f458:	8ca50028 	lw	a1,40(a1)
9d00f45c:	0085282b 	sltu	a1,a0,a1
9d00f460:	10a00004 	beqz	a1,9d00f474 <__putc+0x5c>
9d00f464:	24850001 	addiu	a1,a0,1
9d00f468:	ac650014 	sw	a1,20(v1)
9d00f46c:	1000fff1 	b	9d00f434 <__putc+0x1c>
9d00f470:	a0860000 	sb	a2,0(a0)
9d00f474:	00c02825 	move	a1,a2
9d00f478:	0f403b09 	jal	9d00ec24 <__overflow>
9d00f47c:	00602025 	move	a0,v1
9d00f480:	1000ffed 	b	9d00f438 <__putc+0x20>
9d00f484:	8fbf0014 	lw	ra,20(sp)

Disassembly of section .text.alloc_fwd:

9d00f488 <alloc_fwd>:
9d00f488:	8c860004 	lw	a2,4(a0)
9d00f48c:	30c20001 	andi	v0,a2,0x1
9d00f490:	10400009 	beqz	v0,9d00f4b8 <alloc_fwd+0x30>
9d00f494:	00803825 	move	a3,a0
9d00f498:	03e00008 	jr	ra
9d00f49c:	00001025 	move	v0,zero
9d00f4a0:	8ce60004 	lw	a2,4(a3)
9d00f4a4:	30c20001 	andi	v0,a2,0x1
9d00f4a8:	10400005 	beqz	v0,9d00f4c0 <alloc_fwd+0x38>
9d00f4ac:	00001025 	move	v0,zero
9d00f4b0:	1000000f 	b	9d00f4f0 <alloc_fwd+0x68>
9d00f4b4:	8fbf0014 	lw	ra,20(sp)
9d00f4b8:	27bdffe8 	addiu	sp,sp,-24
9d00f4bc:	afbf0014 	sw	ra,20(sp)
9d00f4c0:	0f403d8c 	jal	9d00f630 <bin_index>
9d00f4c4:	00c02025 	move	a0,a2
9d00f4c8:	00402025 	move	a0,v0
9d00f4cc:	0f403fd0 	jal	9d00ff40 <lock_bin>
9d00f4d0:	00404025 	move	t0,v0
9d00f4d4:	8ce20004 	lw	v0,4(a3)
9d00f4d8:	1446fff1 	bne	v0,a2,9d00f4a0 <alloc_fwd+0x18>
9d00f4dc:	01002825 	move	a1,t0
9d00f4e0:	0f40399c 	jal	9d00e670 <unbin>
9d00f4e4:	00e02025 	move	a0,a3
9d00f4e8:	24020001 	li	v0,1
9d00f4ec:	8fbf0014 	lw	ra,20(sp)
9d00f4f0:	03e00008 	jr	ra
9d00f4f4:	27bd0018 	addiu	sp,sp,24

Disassembly of section .text.__vsscanf:

9d00f4f8 <__vsscanf>:
9d00f4f8:	27bdff80 	addiu	sp,sp,-128
9d00f4fc:	afb20078 	sw	s2,120(sp)
9d00f500:	afb10074 	sw	s1,116(sp)
9d00f504:	afb00070 	sw	s0,112(sp)
9d00f508:	00a08825 	move	s1,a1
9d00f50c:	00808025 	move	s0,a0
9d00f510:	00c09025 	move	s2,a2
9d00f514:	27a40010 	addiu	a0,sp,16
9d00f518:	24060060 	li	a2,96
9d00f51c:	afbf007c 	sw	ra,124(sp)
9d00f520:	0f404081 	jal	9d010204 <memset>
9d00f524:	00002825 	move	a1,zero
9d00f528:	3c029d01 	lui	v0,0x9d01
9d00f52c:	24420390 	addiu	v0,v0,912
9d00f530:	02403025 	move	a2,s2
9d00f534:	02202825 	move	a1,s1
9d00f538:	27a40010 	addiu	a0,sp,16
9d00f53c:	afb00018 	sw	s0,24(sp)
9d00f540:	afb00048 	sw	s0,72(sp)
9d00f544:	0f403f77 	jal	9d00fddc <__vfscanf>
9d00f548:	afa20054 	sw	v0,84(sp)
9d00f54c:	8fbf007c 	lw	ra,124(sp)
9d00f550:	8fb20078 	lw	s2,120(sp)
9d00f554:	8fb10074 	lw	s1,116(sp)
9d00f558:	8fb00070 	lw	s0,112(sp)
9d00f55c:	03e00008 	jr	ra
9d00f560:	27bd0080 	addiu	sp,sp,128

Disassembly of section .text.a_clz_64:

9d00f564 <a_clz_64>:
9d00f564:	24030020 	li	v1,32
9d00f568:	00a5200b 	movn	a0,a1,a1
9d00f56c:	0005180b 	movn	v1,zero,a1
9d00f570:	00042c02 	srl	a1,a0,0x10
9d00f574:	14a00004 	bnez	a1,9d00f588 <a_clz_64+0x24>
9d00f578:	00051202 	srl	v0,a1,0x8
9d00f57c:	34630010 	ori	v1,v1,0x10
9d00f580:	00802825 	move	a1,a0
9d00f584:	00051202 	srl	v0,a1,0x8
9d00f588:	14400004 	bnez	v0,9d00f59c <a_clz_64+0x38>
9d00f58c:	00022102 	srl	a0,v0,0x4
9d00f590:	34630008 	ori	v1,v1,0x8
9d00f594:	00a01025 	move	v0,a1
9d00f598:	00022102 	srl	a0,v0,0x4
9d00f59c:	54800004 	bnezl	a0,9d00f5b0 <a_clz_64+0x4c>
9d00f5a0:	00041082 	srl	v0,a0,0x2
9d00f5a4:	34630004 	ori	v1,v1,0x4
9d00f5a8:	00402025 	move	a0,v0
9d00f5ac:	00041082 	srl	v0,a0,0x2
9d00f5b0:	54400004 	bnezl	v0,9d00f5c4 <a_clz_64+0x60>
9d00f5b4:	00021042 	srl	v0,v0,0x1
9d00f5b8:	34630002 	ori	v1,v1,0x2
9d00f5bc:	00801025 	move	v0,a0
9d00f5c0:	00021042 	srl	v0,v0,0x1
9d00f5c4:	38420001 	xori	v0,v0,0x1
9d00f5c8:	03e00008 	jr	ra
9d00f5cc:	00431025 	or	v0,v0,v1

Disassembly of section .text.__putc_unbuffered:

9d00f5d0 <__putc_unbuffered>:
9d00f5d0:	8ca20004 	lw	v0,4(a1)
9d00f5d4:	27bdffe0 	addiu	sp,sp,-32
9d00f5d8:	308300ff 	andi	v1,a0,0xff
9d00f5dc:	30420100 	andi	v0,v0,0x100
9d00f5e0:	afbf001c 	sw	ra,28(sp)
9d00f5e4:	1040000a 	beqz	v0,9d00f610 <__putc_unbuffered+0x40>
9d00f5e8:	a3a30010 	sb	v1,16(sp)
9d00f5ec:	8ca20014 	lw	v0,20(a1)
9d00f5f0:	308400ff 	andi	a0,a0,0xff
9d00f5f4:	24460001 	addiu	a2,v0,1
9d00f5f8:	aca60014 	sw	a2,20(a1)
9d00f5fc:	a0430000 	sb	v1,0(v0)
9d00f600:	8fbf001c 	lw	ra,28(sp)
9d00f604:	00801025 	move	v0,a0
9d00f608:	03e00008 	jr	ra
9d00f60c:	27bd0020 	addiu	sp,sp,32
9d00f610:	00a02025 	move	a0,a1
9d00f614:	24060001 	li	a2,1
9d00f618:	0f403fdd 	jal	9d00ff74 <__fwrite>
9d00f61c:	27a50010 	addiu	a1,sp,16
9d00f620:	1040fff7 	beqz	v0,9d00f600 <__putc_unbuffered+0x30>
9d00f624:	2404ffff 	li	a0,-1
9d00f628:	1000fff5 	b	9d00f600 <__putc_unbuffered+0x30>
9d00f62c:	93a40010 	lbu	a0,16(sp)

Disassembly of section .text.bin_index:

9d00f630 <bin_index>:
9d00f630:	00042102 	srl	a0,a0,0x4
9d00f634:	2484ffff 	addiu	a0,a0,-1
9d00f638:	2c820021 	sltiu	v0,a0,33
9d00f63c:	14400012 	bnez	v0,9d00f688 <bin_index+0x58>
9d00f640:	00801025 	move	v0,a0
9d00f644:	2c820200 	sltiu	v0,a0,512
9d00f648:	10400007 	beqz	v0,9d00f668 <bin_index+0x38>
9d00f64c:	2c831c01 	sltiu	v1,a0,7169
9d00f650:	3c029d01 	lui	v0,0x9d01
9d00f654:	2442f7c8 	addiu	v0,v0,-2104
9d00f658:	000420c2 	srl	a0,a0,0x3
9d00f65c:	00822021 	addu	a0,a0,v0
9d00f660:	03e00008 	jr	ra
9d00f664:	9082fffc 	lbu	v0,-4(a0)
9d00f668:	10600007 	beqz	v1,9d00f688 <bin_index+0x58>
9d00f66c:	2402003f 	li	v0,63
9d00f670:	3c029d01 	lui	v0,0x9d01
9d00f674:	2442f7c8 	addiu	v0,v0,-2104
9d00f678:	000421c2 	srl	a0,a0,0x7
9d00f67c:	00822021 	addu	a0,a0,v0
9d00f680:	9082fffc 	lbu	v0,-4(a0)
9d00f684:	24420010 	addiu	v0,v0,16
9d00f688:	03e00008 	jr	ra
9d00f68c:	00000000 	nop

Disassembly of section .text.__fopen_std:

9d00f690 <__fopen_std>:
9d00f690:	27bdffe8 	addiu	sp,sp,-24
9d00f694:	afb00010 	sw	s0,16(sp)
9d00f698:	afbf0014 	sw	ra,20(sp)
9d00f69c:	0f402e8b 	jal	9d00ba2c <malloc>
9d00f6a0:	24040038 	li	a0,56
9d00f6a4:	1040000d 	beqz	v0,9d00f6dc <__fopen_std+0x4c>
9d00f6a8:	00408025 	move	s0,v0
9d00f6ac:	24060038 	li	a2,56
9d00f6b0:	00002825 	move	a1,zero
9d00f6b4:	0f404081 	jal	9d010204 <memset>
9d00f6b8:	00402025 	move	a0,v0
9d00f6bc:	3c029d01 	lui	v0,0x9d01
9d00f6c0:	2442028c 	addiu	v0,v0,652
9d00f6c4:	ae02002c 	sw	v0,44(s0)
9d00f6c8:	3c029d01 	lui	v0,0x9d01
9d00f6cc:	2442eb90 	addiu	v0,v0,-5232
9d00f6d0:	ae020030 	sw	v0,48(s0)
9d00f6d4:	2402ffff 	li	v0,-1
9d00f6d8:	a2020034 	sb	v0,52(s0)
9d00f6dc:	8fbf0014 	lw	ra,20(sp)
9d00f6e0:	02001025 	move	v0,s0
9d00f6e4:	8fb00010 	lw	s0,16(sp)
9d00f6e8:	03e00008 	jr	ra
9d00f6ec:	27bd0018 	addiu	sp,sp,24

Disassembly of section .text.__sio_sprintf_dfoux:

9d00f6f0 <__sio_sprintf_dfoux>:
9d00f6f0:	27bdffe8 	addiu	sp,sp,-24
9d00f6f4:	afbf0014 	sw	ra,20(sp)
9d00f6f8:	0f403379 	jal	9d00cde4 <__fmt_d>
9d00f6fc:	00000000 	nop
9d00f700:	0f401d66 	jal	9d007598 <__fmt_fp>
9d00f704:	00000000 	nop
9d00f708:	0f40373d 	jal	9d00dcf4 <__fmt_o>
9d00f70c:	00000000 	nop
9d00f710:	0f4038ba 	jal	9d00e2e8 <__fmt_u>
9d00f714:	00000000 	nop
9d00f718:	0f402f2f 	jal	9d00bcbc <__fmt_x>
9d00f71c:	00000000 	nop
9d00f720:	0f403a46 	jal	9d00e918 <__fmt_s>
9d00f724:	00000000 	nop
9d00f728:	0f403e6d 	jal	9d00f9b4 <__pop_float>
9d00f72c:	00000000 	nop
9d00f730:	0f4037b6 	jal	9d00ded8 <__pop_ptr>
9d00f734:	00000000 	nop
9d00f738:	0f403103 	jal	9d00c40c <__pop_int>
9d00f73c:	00000000 	nop
9d00f740:	8fbf0014 	lw	ra,20(sp)
9d00f744:	03e00008 	jr	ra
9d00f748:	27bd0018 	addiu	sp,sp,24

Disassembly of section .text.__string_out:

9d00f74c <__string_out>:
9d00f74c:	8c820010 	lw	v0,16(a0)
9d00f750:	27bdffe0 	addiu	sp,sp,-32
9d00f754:	afb00014 	sw	s0,20(sp)
9d00f758:	00808025 	move	s0,a0
9d00f75c:	8c840014 	lw	a0,20(a0)
9d00f760:	afb10018 	sw	s1,24(sp)
9d00f764:	00c2882b 	sltu	s1,a2,v0
9d00f768:	0051300a 	movz	a2,v0,s1
9d00f76c:	afbf001c 	sw	ra,28(sp)
9d00f770:	0f404022 	jal	9d010088 <memcpy>
9d00f774:	00c08825 	move	s1,a2
9d00f778:	8e020014 	lw	v0,20(s0)
9d00f77c:	8e060010 	lw	a2,16(s0)
9d00f780:	00511021 	addu	v0,v0,s1
9d00f784:	00d18823 	subu	s1,a2,s1
9d00f788:	ae110010 	sw	s1,16(s0)
9d00f78c:	ae020014 	sw	v0,20(s0)
9d00f790:	a0400000 	sb	zero,0(v0)
9d00f794:	8fbf001c 	lw	ra,28(sp)
9d00f798:	8fb10018 	lw	s1,24(sp)
9d00f79c:	8fb00014 	lw	s0,20(sp)
9d00f7a0:	03e00008 	jr	ra
9d00f7a4:	27bd0020 	addiu	sp,sp,32

Disassembly of section .rodata:

9d00f7a8 <debruijn32.1767>:
9d00f7a8:	02170100 0313181d 0b191b1e 0d040814     ................
9d00f7b8:	121c161f 0c070a1a 06091115 0e0f0510     ................

9d00f7c8 <bin_tab>:
9d00f7c8:	23222120 25252424 27272626 28282828      !"#$$%%&&''((((
9d00f7d8:	29292929 2a2a2a2a 2b2b2b2b 2c2c2c2c     ))))****++++,,,,
9d00f7e8:	2c2c2c2c 2d2d2d2d 2d2d2d2d 2e2e2e2e     ,,,,--------....
9d00f7f8:	2e2e2e2e 2f2f2f2f 2f2f2f2f              ....////////

Disassembly of section .text.__fmt_state:

9d00f804 <__fmt_state>:
9d00f804:	3c069d01 	lui	a2,0x9d01
9d00f808:	00001025 	move	v0,zero
9d00f80c:	24c60450 	addiu	a2,a2,1104
9d00f810:	00021840 	sll	v1,v0,0x1
9d00f814:	00661821 	addu	v1,v1,a2
9d00f818:	80670000 	lb	a3,0(v1)
9d00f81c:	54e00003 	bnezl	a3,9d00f82c <__fmt_state+0x28>
9d00f820:	8c850000 	lw	a1,0(a0)
9d00f824:	03e00008 	jr	ra
9d00f828:	90620001 	lbu	v0,1(v1)
9d00f82c:	24420001 	addiu	v0,v0,1
9d00f830:	80a80000 	lb	t0,0(a1)
9d00f834:	15070004 	bne	t0,a3,9d00f848 <__fmt_state+0x44>
9d00f838:	304200ff 	andi	v0,v0,0xff
9d00f83c:	90620001 	lbu	v0,1(v1)
9d00f840:	24a50001 	addiu	a1,a1,1
9d00f844:	ac850000 	sw	a1,0(a0)
9d00f848:	2c43000b 	sltiu	v1,v0,11
9d00f84c:	1460fff1 	bnez	v1,9d00f814 <__fmt_state+0x10>
9d00f850:	00021840 	sll	v1,v0,0x1
9d00f854:	03e00008 	jr	ra
9d00f858:	00000000 	nop

Disassembly of section .text.adjust_size:

9d00f85c <adjust_size>:
9d00f85c:	3c03a000 	lui	v1,0xa000
9d00f860:	8c660384 	lw	a2,900(v1)
9d00f864:	8c820000 	lw	v0,0(a0)
9d00f868:	3c037fff 	lui	v1,0x7fff
9d00f86c:	3463ffef 	ori	v1,v1,0xffef
9d00f870:	2445ffff 	addiu	a1,v0,-1
9d00f874:	00661823 	subu	v1,v1,a2
9d00f878:	0065182b 	sltu	v1,v1,a1
9d00f87c:	5060000b 	beqzl	v1,9d00f8ac <adjust_size+0x50>
9d00f880:	24420017 	addiu	v0,v0,23
9d00f884:	10400005 	beqz	v0,9d00f89c <adjust_size+0x40>
9d00f888:	2403000c 	li	v1,12
9d00f88c:	3c02a000 	lui	v0,0xa000
9d00f890:	ac4303c8 	sw	v1,968(v0)
9d00f894:	03e00008 	jr	ra
9d00f898:	2402ffff 	li	v0,-1
9d00f89c:	24020010 	li	v0,16
9d00f8a0:	ac820000 	sw	v0,0(a0)
9d00f8a4:	03e00008 	jr	ra
9d00f8a8:	00001025 	move	v0,zero
9d00f8ac:	1000fffc 	b	9d00f8a0 <adjust_size+0x44>
9d00f8b0:	7c021804 	ins	v0,zero,0x0,0x4

Disassembly of section .text.trim:

9d00f8b4 <trim>:
9d00f8b4:	8c820004 	lw	v0,4(a0)
9d00f8b8:	7c020004 	ins	v0,zero,0x0,0x1
9d00f8bc:	00451823 	subu	v1,v0,a1
9d00f8c0:	2c660011 	sltiu	a2,v1,17
9d00f8c4:	14c0000f 	bnez	a2,9d00f904 <trim+0x50>
9d00f8c8:	00853021 	addu	a2,a0,a1
9d00f8cc:	27bdffe8 	addiu	sp,sp,-24
9d00f8d0:	34a50001 	ori	a1,a1,0x1
9d00f8d4:	34630001 	ori	v1,v1,0x1
9d00f8d8:	00821021 	addu	v0,a0,v0
9d00f8dc:	afbf0014 	sw	ra,20(sp)
9d00f8e0:	acc50000 	sw	a1,0(a2)
9d00f8e4:	acc30004 	sw	v1,4(a2)
9d00f8e8:	ac430000 	sw	v1,0(v0)
9d00f8ec:	ac850004 	sw	a1,4(a0)
9d00f8f0:	0f40309d 	jal	9d00c274 <free>
9d00f8f4:	24c40008 	addiu	a0,a2,8
9d00f8f8:	8fbf0014 	lw	ra,20(sp)
9d00f8fc:	03e00008 	jr	ra
9d00f900:	27bd0018 	addiu	sp,sp,24
9d00f904:	03e00008 	jr	ra
9d00f908:	00000000 	nop

Disassembly of section .text.main_entry:

9d00f90c <_main_entry>:
9d00f90c:	3c040000 	lui	a0,0x0
9d00f910:	27bdffe8 	addiu	sp,sp,-24
9d00f914:	24840000 	addiu	a0,a0,0
9d00f918:	10800003 	beqz	a0,9d00f928 <_main_entry+0x1c>
9d00f91c:	afbf0014 	sw	ra,20(sp)
9d00f920:	0080f809 	jalr	a0
9d00f924:	00000000 	nop
9d00f928:	30840000 	andi	a0,a0,0x0
9d00f92c:	30a50000 	andi	a1,a1,0x0
9d00f930:	3c089d01 	lui	t0,0x9d01
9d00f934:	25089e50 	addiu	t0,t0,-25008
9d00f938:	0100f809 	jalr	t0
9d00f93c:	00000000 	nop

9d00f940 <__crt0_exit>:
9d00f940:	3c020000 24420000 10400003 00000000     ...<..B$..@.....
9d00f950:	0040f809 00000000 1000fff9 00000000     ..@.............

Disassembly of section .text.__uflow:

9d00f960 <__uflow>:
9d00f960:	27bdffe0 	addiu	sp,sp,-32
9d00f964:	afb00018 	sw	s0,24(sp)
9d00f968:	afbf001c 	sw	ra,28(sp)
9d00f96c:	0f403abf 	jal	9d00eafc <__toread>
9d00f970:	00808025 	move	s0,a0
9d00f974:	50400006 	beqzl	v0,9d00f990 <__uflow+0x30>
9d00f978:	8e020044 	lw	v0,68(s0)
9d00f97c:	2402ffff 	li	v0,-1
9d00f980:	8fbf001c 	lw	ra,28(sp)
9d00f984:	8fb00018 	lw	s0,24(sp)
9d00f988:	03e00008 	jr	ra
9d00f98c:	27bd0020 	addiu	sp,sp,32
9d00f990:	24060001 	li	a2,1
9d00f994:	27a50010 	addiu	a1,sp,16
9d00f998:	0040f809 	jalr	v0
9d00f99c:	02002025 	move	a0,s0
9d00f9a0:	24030001 	li	v1,1
9d00f9a4:	1443fff5 	bne	v0,v1,9d00f97c <__uflow+0x1c>
9d00f9a8:	93a20010 	lbu	v0,16(sp)
9d00f9ac:	1000fff5 	b	9d00f984 <__uflow+0x24>
9d00f9b0:	8fbf001c 	lw	ra,28(sp)

Disassembly of section .text.__pop_float:

9d00f9b4 <__pop_float>:
9d00f9b4:	28a30080 	slti	v1,a1,128
9d00f9b8:	14600010 	bnez	v1,9d00f9fc <__pop_float+0x48>
9d00f9bc:	00001025 	move	v0,zero
9d00f9c0:	28a30082 	slti	v1,a1,130
9d00f9c4:	14600003 	bnez	v1,9d00f9d4 <__pop_float+0x20>
9d00f9c8:	24030083 	li	v1,131
9d00f9cc:	14a3000b 	bne	a1,v1,9d00f9fc <__pop_float+0x48>
9d00f9d0:	00000000 	nop
9d00f9d4:	8cc20000 	lw	v0,0(a2)
9d00f9d8:	24420007 	addiu	v0,v0,7
9d00f9dc:	7c021004 	ins	v0,zero,0x0,0x3
9d00f9e0:	24430008 	addiu	v1,v0,8
9d00f9e4:	acc30000 	sw	v1,0(a2)
9d00f9e8:	8c430004 	lw	v1,4(v0)
9d00f9ec:	8c420000 	lw	v0,0(v0)
9d00f9f0:	ac830004 	sw	v1,4(a0)
9d00f9f4:	ac820000 	sw	v0,0(a0)
9d00f9f8:	24020001 	li	v0,1
9d00f9fc:	03e00008 	jr	ra
9d00fa00:	00000000 	nop

Disassembly of section .text.__malloc0:

9d00fa04 <__malloc0>:
9d00fa04:	27bdffe8 	addiu	sp,sp,-24
9d00fa08:	afb00010 	sw	s0,16(sp)
9d00fa0c:	afbf0014 	sw	ra,20(sp)
9d00fa10:	0f402e8b 	jal	9d00ba2c <malloc>
9d00fa14:	00808025 	move	s0,a0
9d00fa18:	10400006 	beqz	v0,9d00fa34 <__malloc0+0x30>
9d00fa1c:	26100003 	addiu	s0,s0,3
9d00fa20:	7c100804 	ins	s0,zero,0x0,0x2
9d00fa24:	00508021 	addu	s0,v0,s0
9d00fa28:	00401825 	move	v1,v0
9d00fa2c:	54700005 	bnel	v1,s0,9d00fa44 <__malloc0+0x40>
9d00fa30:	8c640000 	lw	a0,0(v1)
9d00fa34:	8fbf0014 	lw	ra,20(sp)
9d00fa38:	8fb00010 	lw	s0,16(sp)
9d00fa3c:	03e00008 	jr	ra
9d00fa40:	27bd0018 	addiu	sp,sp,24
9d00fa44:	54800001 	bnezl	a0,9d00fa4c <__malloc0+0x48>
9d00fa48:	ac600000 	sw	zero,0(v1)
9d00fa4c:	1000fff7 	b	9d00fa2c <__malloc0+0x28>
9d00fa50:	24630004 	addiu	v1,v1,4

Disassembly of section .text.__stdio_exit:

9d00fa54 <__stdio_exit>:
9d00fa54:	27bdffe8 	addiu	sp,sp,-24
9d00fa58:	afbf0014 	sw	ra,20(sp)
9d00fa5c:	0f404136 	jal	9d0104d8 <__stdio_exit_ofl>
9d00fa60:	00000000 	nop
9d00fa64:	3c02a000 	lui	v0,0xa000
9d00fa68:	8c4403c4 	lw	a0,964(v0)
9d00fa6c:	0f403fc2 	jal	9d00ff08 <__fclose>
9d00fa70:	00002825 	move	a1,zero
9d00fa74:	3c02a000 	lui	v0,0xa000
9d00fa78:	8c4403c4 	lw	a0,964(v0)
9d00fa7c:	0f403fc2 	jal	9d00ff08 <__fclose>
9d00fa80:	00002825 	move	a1,zero
9d00fa84:	3c02a000 	lui	v0,0xa000
9d00fa88:	8c4403c4 	lw	a0,964(v0)
9d00fa8c:	0f403fc2 	jal	9d00ff08 <__fclose>
9d00fa90:	00002825 	move	a1,zero
9d00fa94:	8fbf0014 	lw	ra,20(sp)
9d00fa98:	03e00008 	jr	ra
9d00fa9c:	27bd0018 	addiu	sp,sp,24

Disassembly of section .text.sbrk:

9d00faa0 <sbrk>:
9d00faa0:	27bdffe8 	addiu	sp,sp,-24
9d00faa4:	afb00010 	sw	s0,16(sp)
9d00faa8:	afbf0014 	sw	ra,20(sp)
9d00faac:	0f403970 	jal	9d00e5c0 <_sbrk>
9d00fab0:	00808025 	move	s0,a0
9d00fab4:	1a000008 	blez	s0,9d00fad8 <sbrk+0x38>
9d00fab8:	00401825 	move	v1,v0
9d00fabc:	2402ffff 	li	v0,-1
9d00fac0:	10620005 	beq	v1,v0,9d00fad8 <sbrk+0x38>
9d00fac4:	00602025 	move	a0,v1
9d00fac8:	02003025 	move	a2,s0
9d00facc:	0f404081 	jal	9d010204 <memset>
9d00fad0:	00002825 	move	a1,zero
9d00fad4:	00401825 	move	v1,v0
9d00fad8:	8fbf0014 	lw	ra,20(sp)
9d00fadc:	00601025 	move	v0,v1
9d00fae0:	8fb00010 	lw	s0,16(sp)
9d00fae4:	03e00008 	jr	ra
9d00fae8:	27bd0018 	addiu	sp,sp,24

Disassembly of section .text:

9d00faec <get_mode>:
volatile enum mode_t mode;
volatile int duty = 0;
volatile int dir = 0;

volatile enum mode_t get_mode(void){
	return mode;
9d00faec:	8f828028 	lw	v0,-32728(gp)
}
9d00faf0:	03e00008 	jr	ra
9d00faf4:	00000000 	nop

9d00faf8 <set_mode>:
void set_mode(enum mode_t s){
	mode = s;
9d00faf8:	af848028 	sw	a0,-32728(gp)
}
9d00fafc:	03e00008 	jr	ra
9d00fb00:	00000000 	nop

9d00fb04 <set_PWM>:

void set_PWM(int d){
	duty = d;
9d00fb04:	af848024 	sw	a0,-32732(gp)
}
9d00fb08:	03e00008 	jr	ra
9d00fb0c:	00000000 	nop

9d00fb10 <set_dir>:

void set_dir(int d){
	dir = d;
9d00fb10:	af848020 	sw	a0,-32736(gp)
}
9d00fb14:	03e00008 	jr	ra
9d00fb18:	00000000 	nop

9d00fb1c <get_dir>:

int get_dir(){
	return dir;
9d00fb1c:	8f828020 	lw	v0,-32736(gp)
}
9d00fb20:	03e00008 	jr	ra
9d00fb24:	00000000 	nop

9d00fb28 <get_PWM>:

int get_PWM(){
	return duty;
9d00fb28:	8f828024 	lw	v0,-32732(gp)
}
9d00fb2c:	03e00008 	jr	ra
9d00fb30:	00000000 	nop

Disassembly of section .text._bootstrap_exception_handler:

9d00fb34 <_bootstrap_exception_handler>:
9d00fb34:	3c020000 	lui	v0,0x0
9d00fb38:	24420000 	addiu	v0,v0,0
9d00fb3c:	10400005 	beqz	v0,9d00fb54 <_bootstrap_exception_handler+0x20>
9d00fb40:	3c020000 	lui	v0,0x0
9d00fb44:	24420000 	addiu	v0,v0,0
9d00fb48:	10400003 	beqz	v0,9d00fb58 <_bootstrap_exception_handler+0x24>
9d00fb4c:	3c029d01 	lui	v0,0x9d01
9d00fb50:	7000003f 	sdbbp
9d00fb54:	3c029d01 	lui	v0,0x9d01
9d00fb58:	2442fc9c 	addiu	v0,v0,-868
9d00fb5c:	10400005 	beqz	v0,9d00fb74 <_bootstrap_exception_handler+0x40>
9d00fb60:	00000000 	nop
9d00fb64:	27bdffe8 	addiu	sp,sp,-24
9d00fb68:	afbf0014 	sw	ra,20(sp)
9d00fb6c:	0040f809 	jalr	v0
9d00fb70:	00000000 	nop
9d00fb74:	1000ffff 	b	9d00fb74 <_bootstrap_exception_handler+0x40>
9d00fb78:	00000000 	nop

Disassembly of section .text._general_exception_handler:

9d00fb7c <_general_exception_handler>:
9d00fb7c:	3c020000 	lui	v0,0x0
9d00fb80:	24420000 	addiu	v0,v0,0
9d00fb84:	10400005 	beqz	v0,9d00fb9c <_general_exception_handler+0x20>
9d00fb88:	3c020000 	lui	v0,0x0
9d00fb8c:	24420000 	addiu	v0,v0,0
9d00fb90:	10400003 	beqz	v0,9d00fba0 <_general_exception_handler+0x24>
9d00fb94:	3c029d01 	lui	v0,0x9d01
9d00fb98:	7000003f 	sdbbp
9d00fb9c:	3c029d01 	lui	v0,0x9d01
9d00fba0:	2442fc9c 	addiu	v0,v0,-868
9d00fba4:	10400005 	beqz	v0,9d00fbbc <_general_exception_handler+0x40>
9d00fba8:	00000000 	nop
9d00fbac:	27bdffe8 	addiu	sp,sp,-24
9d00fbb0:	afbf0014 	sw	ra,20(sp)
9d00fbb4:	0040f809 	jalr	v0
9d00fbb8:	00000000 	nop
9d00fbbc:	1000ffff 	b	9d00fbbc <_general_exception_handler+0x40>
9d00fbc0:	00000000 	nop

Disassembly of section .vector_default:

9d00fbc4 <_DefaultInterrupt>:
9d00fbc4:	3c020000 	lui	v0,0x0
9d00fbc8:	24420000 	addiu	v0,v0,0
9d00fbcc:	10400007 	beqz	v0,9d00fbec <_DefaultInterrupt+0x28>
9d00fbd0:	3c020000 	lui	v0,0x0
9d00fbd4:	24420000 	addiu	v0,v0,0
9d00fbd8:	50400005 	beqzl	v0,9d00fbf0 <_DefaultInterrupt+0x2c>
9d00fbdc:	3c029d01 	lui	v0,0x9d01
9d00fbe0:	7000003f 	sdbbp
9d00fbe4:	03e00008 	jr	ra
9d00fbe8:	00000000 	nop
9d00fbec:	3c029d01 	lui	v0,0x9d01
9d00fbf0:	2442fc9c 	addiu	v0,v0,-868
9d00fbf4:	10400003 	beqz	v0,9d00fc04 <_DefaultInterrupt+0x40>
9d00fbf8:	00000000 	nop
9d00fbfc:	0040f809 	jalr	v0
9d00fc00:	00000000 	nop
9d00fc04:	03e00008 	jr	ra
9d00fc08:	00000000 	nop

Disassembly of section .text.__ftello_adj_rw:

9d00fc0c <__ftello_adj_rw>:
9d00fc0c:	8c820004 	lw	v0,4(a0)
9d00fc10:	30460002 	andi	a2,v0,0x2
9d00fc14:	14c00004 	bnez	a2,9d00fc28 <__ftello_adj_rw+0x1c>
9d00fc18:	00001825 	move	v1,zero
9d00fc1c:	8c830040 	lw	v1,64(a0)
9d00fc20:	8c86003c 	lw	a2,60(a0)
9d00fc24:	00661823 	subu	v1,v1,a2
9d00fc28:	8c870014 	lw	a3,20(a0)
9d00fc2c:	8c860018 	lw	a2,24(a0)
9d00fc30:	00e62023 	subu	a0,a3,a2
9d00fc34:	00831821 	addu	v1,a0,v1
9d00fc38:	aca30000 	sw	v1,0(a1)
9d00fc3c:	30430040 	andi	v1,v0,0x40
9d00fc40:	10600002 	beqz	v1,9d00fc4c <__ftello_adj_rw+0x40>
9d00fc44:	00001025 	move	v0,zero
9d00fc48:	00c7102b 	sltu	v0,a2,a3
9d00fc4c:	03e00008 	jr	ra
9d00fc50:	00000000 	nop

Disassembly of section .text.__stdio_seek_unbuffered:

9d00fc54 <__stdio_seek_unbuffered>:
9d00fc54:	27bdffe8 	addiu	sp,sp,-24
9d00fc58:	afb00010 	sw	s0,16(sp)
9d00fc5c:	00808025 	move	s0,a0
9d00fc60:	8c840000 	lw	a0,0(a0)
9d00fc64:	afbf0014 	sw	ra,20(sp)
9d00fc68:	0f404144 	jal	9d010510 <lseek>
9d00fc6c:	00000000 	nop
9d00fc70:	04400005 	bltz	v0,9d00fc88 <__stdio_seek_unbuffered+0x34>
9d00fc74:	2403ffff 	li	v1,-1
9d00fc78:	8e020004 	lw	v0,4(s0)
9d00fc7c:	00001825 	move	v1,zero
9d00fc80:	7c0218c4 	ins	v0,zero,0x3,0x1
9d00fc84:	ae020004 	sw	v0,4(s0)
9d00fc88:	8fbf0014 	lw	ra,20(sp)
9d00fc8c:	00601025 	move	v0,v1
9d00fc90:	8fb00010 	lw	s0,16(sp)
9d00fc94:	03e00008 	jr	ra
9d00fc98:	27bd0018 	addiu	sp,sp,24

Disassembly of section .text:

9d00fc9c <__pic32_software_reset>:
9d00fc9c:	41606000 	di
9d00fca0:	000000c0 	ehb
9d00fca4:	3c03aa99 	lui	v1,0xaa99
9d00fca8:	3c02bf81 	lui	v0,0xbf81
9d00fcac:	24636655 	addiu	v1,v1,26197
9d00fcb0:	ac40f230 	sw	zero,-3536(v0)
9d00fcb4:	ac43f230 	sw	v1,-3536(v0)
9d00fcb8:	3c035566 	lui	v1,0x5566
9d00fcbc:	346399aa 	ori	v1,v1,0x99aa
9d00fcc0:	ac43f230 	sw	v1,-3536(v0)
9d00fcc4:	3c02bf81 	lui	v0,0xbf81
9d00fcc8:	24030001 	li	v1,1
9d00fccc:	ac43f618 	sw	v1,-2536(v0)
9d00fcd0:	3c02bf81 	lui	v0,0xbf81
9d00fcd4:	8c42f610 	lw	v0,-2544(v0)
9d00fcd8:	0b403f29 	j	9d00fca4 <__pic32_software_reset+0x8>
9d00fcdc:	00000000 	nop

Disassembly of section .text.__towrite:

9d00fce0 <__towrite>:
9d00fce0:	27bdffe8 	addiu	sp,sp,-24
9d00fce4:	afb00010 	sw	s0,16(sp)
9d00fce8:	afbf0014 	sw	ra,20(sp)
9d00fcec:	0f403f68 	jal	9d00fda0 <__towrite_rw>
9d00fcf0:	00808025 	move	s0,a0
9d00fcf4:	14400008 	bnez	v0,9d00fd18 <__towrite+0x38>
9d00fcf8:	8fbf0014 	lw	ra,20(sp)
9d00fcfc:	8e030008 	lw	v1,8(s0)
9d00fd00:	8e04000c 	lw	a0,12(s0)
9d00fd04:	ae030018 	sw	v1,24(s0)
9d00fd08:	ae030014 	sw	v1,20(s0)
9d00fd0c:	00641821 	addu	v1,v1,a0
9d00fd10:	ae030028 	sw	v1,40(s0)
9d00fd14:	8fbf0014 	lw	ra,20(sp)
9d00fd18:	8fb00010 	lw	s0,16(sp)
9d00fd1c:	03e00008 	jr	ra
9d00fd20:	27bd0018 	addiu	sp,sp,24

Disassembly of section .text:

9d00fd24 <__floatunsidf>:
9d00fd24:	27bdffe8 	addiu	sp,sp,-24
9d00fd28:	afb00010 	sw	s0,16(sp)
9d00fd2c:	afbf0014 	sw	ra,20(sp)
9d00fd30:	0f403c5a 	jal	9d00f168 <__floatsidf>
9d00fd34:	00808025 	move	s0,a0
9d00fd38:	06010006 	bgez	s0,9d00fd54 <__floatunsidf+0x30>
9d00fd3c:	00602825 	move	a1,v1
9d00fd40:	3c049d00 	lui	a0,0x9d00
9d00fd44:	8c867520 	lw	a2,29984(a0)
9d00fd48:	8c877524 	lw	a3,29988(a0)
9d00fd4c:	0f4028a2 	jal	9d00a288 <__adddf3>
9d00fd50:	00402025 	move	a0,v0
9d00fd54:	8fbf0014 	lw	ra,20(sp)
9d00fd58:	8fb00010 	lw	s0,16(sp)
9d00fd5c:	03e00008 	jr	ra
9d00fd60:	27bd0018 	addiu	sp,sp,24

Disassembly of section .text.__sio_sscanf_doux:

9d00fd64 <__sio_sscanf_doux>:
9d00fd64:	27bdffe8 	addiu	sp,sp,-24
9d00fd68:	afbf0014 	sw	ra,20(sp)
9d00fd6c:	0f403cb2 	jal	9d00f2c8 <__scan_d>
9d00fd70:	00000000 	nop
9d00fd74:	0f4032cf 	jal	9d00cb3c <__scan_o>
9d00fd78:	00000000 	nop
9d00fd7c:	0f403cce 	jal	9d00f338 <__scan_u>
9d00fd80:	00000000 	nop
9d00fd84:	0f402fb1 	jal	9d00bec4 <__scan_x>
9d00fd88:	00000000 	nop
9d00fd8c:	0f403279 	jal	9d00c9e4 <__scan_s>
9d00fd90:	00000000 	nop
9d00fd94:	8fbf0014 	lw	ra,20(sp)
9d00fd98:	03e00008 	jr	ra
9d00fd9c:	27bd0018 	addiu	sp,sp,24

Disassembly of section .text.__towrite_rw:

9d00fda0 <__towrite_rw>:
9d00fda0:	80820048 	lb	v0,72(a0)
9d00fda4:	2443ffff 	addiu	v1,v0,-1
9d00fda8:	00431025 	or	v0,v0,v1
9d00fdac:	a0820048 	sb	v0,72(a0)
9d00fdb0:	8c820004 	lw	v0,4(a0)
9d00fdb4:	30430004 	andi	v1,v0,0x4
9d00fdb8:	50600005 	beqzl	v1,9d00fdd0 <__towrite_rw+0x30>
9d00fdbc:	ac800040 	sw	zero,64(a0)
9d00fdc0:	34420010 	ori	v0,v0,0x10
9d00fdc4:	ac820004 	sw	v0,4(a0)
9d00fdc8:	03e00008 	jr	ra
9d00fdcc:	2402ffff 	li	v0,-1
9d00fdd0:	ac80003c 	sw	zero,60(a0)
9d00fdd4:	03e00008 	jr	ra
9d00fdd8:	00001025 	move	v0,zero

Disassembly of section .text.__vfscanf:

9d00fddc <__vfscanf>:
9d00fddc:	27bdffe0 	addiu	sp,sp,-32
9d00fde0:	afb00018 	sw	s0,24(sp)
9d00fde4:	afa60010 	sw	a2,16(sp)
9d00fde8:	00808025 	move	s0,a0
9d00fdec:	afbf001c 	sw	ra,28(sp)
9d00fdf0:	0f401f98 	jal	9d007e60 <__scanf_core>
9d00fdf4:	27a60010 	addiu	a2,sp,16
9d00fdf8:	8e030004 	lw	v1,4(s0)
9d00fdfc:	8fbf001c 	lw	ra,28(sp)
9d00fe00:	2404ffff 	li	a0,-1
9d00fe04:	30630010 	andi	v1,v1,0x10
9d00fe08:	0083100b 	movn	v0,a0,v1
9d00fe0c:	8fb00018 	lw	s0,24(sp)
9d00fe10:	03e00008 	jr	ra
9d00fe14:	27bd0020 	addiu	sp,sp,32

Disassembly of section .text.__expand_heap:

9d00fe18 <__expand_heap>:
9d00fe18:	8c840000 	lw	a0,0(a0)
9d00fe1c:	04810003 	bgez	a0,9d00fe2c <__expand_heap+0x14>
9d00fe20:	00001025 	move	v0,zero
9d00fe24:	03e00008 	jr	ra
9d00fe28:	00000000 	nop
9d00fe2c:	27bdffe8 	addiu	sp,sp,-24
9d00fe30:	afbf0014 	sw	ra,20(sp)
9d00fe34:	0f403970 	jal	9d00e5c0 <_sbrk>
9d00fe38:	00000000 	nop
9d00fe3c:	2403ffff 	li	v1,-1
9d00fe40:	50430001 	beql	v0,v1,9d00fe48 <__expand_heap+0x30>
9d00fe44:	00001025 	move	v0,zero
9d00fe48:	8fbf0014 	lw	ra,20(sp)
9d00fe4c:	03e00008 	jr	ra
9d00fe50:	27bd0018 	addiu	sp,sp,24

Disassembly of section .text.__vfprintf:

9d00fe54 <__vfprintf>:
9d00fe54:	27bdffe0 	addiu	sp,sp,-32
9d00fe58:	afb00018 	sw	s0,24(sp)
9d00fe5c:	afa60010 	sw	a2,16(sp)
9d00fe60:	00808025 	move	s0,a0
9d00fe64:	afbf001c 	sw	ra,28(sp)
9d00fe68:	0f402506 	jal	9d009418 <__printf_core>
9d00fe6c:	27a60010 	addiu	a2,sp,16
9d00fe70:	8e030004 	lw	v1,4(s0)
9d00fe74:	8fbf001c 	lw	ra,28(sp)
9d00fe78:	2404ffff 	li	a0,-1
9d00fe7c:	30630010 	andi	v1,v1,0x10
9d00fe80:	0083100b 	movn	v0,a0,v1
9d00fe84:	8fb00018 	lw	s0,24(sp)
9d00fe88:	03e00008 	jr	ra
9d00fe8c:	27bd0020 	addiu	sp,sp,32

Disassembly of section .text:

9d00fe90 <__lshrdi3>:
9d00fe90:	10c00008 	beqz	a2,9d00feb4 <__lshrdi3+0x24>
9d00fe94:	00801025 	move	v0,a0
9d00fe98:	24030020 	li	v1,32
9d00fe9c:	00661823 	subu	v1,v1,a2
9d00fea0:	1c600006 	bgtz	v1,9d00febc <__lshrdi3+0x2c>
9d00fea4:	00c52006 	srlv	a0,a1,a2
9d00fea8:	00002025 	move	a0,zero
9d00feac:	00c51006 	srlv	v0,a1,a2
9d00feb0:	00802825 	move	a1,a0
9d00feb4:	03e00008 	jr	ra
9d00feb8:	00a01825 	move	v1,a1
9d00febc:	00c21006 	srlv	v0,v0,a2
9d00fec0:	00652804 	sllv	a1,a1,v1
9d00fec4:	1000fffa 	b	9d00feb0 <__lshrdi3+0x20>
9d00fec8:	00451025 	or	v0,v0,a1

9d00fecc <__ashldi3>:
9d00fecc:	10c00008 	beqz	a2,9d00fef0 <__ashldi3+0x24>
9d00fed0:	00801025 	move	v0,a0
9d00fed4:	24040020 	li	a0,32
9d00fed8:	00862023 	subu	a0,a0,a2
9d00fedc:	5c800006 	bgtzl	a0,9d00fef8 <__ashldi3+0x2c>
9d00fee0:	00c21804 	sllv	v1,v0,a2
9d00fee4:	00001825 	move	v1,zero
9d00fee8:	00c22804 	sllv	a1,v0,a2
9d00feec:	00601025 	move	v0,v1
9d00fef0:	03e00008 	jr	ra
9d00fef4:	00a01825 	move	v1,a1
9d00fef8:	00c52804 	sllv	a1,a1,a2
9d00fefc:	00821006 	srlv	v0,v0,a0
9d00ff00:	1000fffa 	b	9d00feec <__ashldi3+0x20>
9d00ff04:	00a22825 	or	a1,a1,v0

Disassembly of section .text.__fclose:

9d00ff08 <__fclose>:
9d00ff08:	1080000b 	beqz	a0,9d00ff38 <__fclose+0x30>
9d00ff0c:	00001025 	move	v0,zero
9d00ff10:	8c83001c 	lw	v1,28(a0)
9d00ff14:	10600008 	beqz	v1,9d00ff38 <__fclose+0x30>
9d00ff18:	00000000 	nop
9d00ff1c:	27bdffe8 	addiu	sp,sp,-24
9d00ff20:	afbf0014 	sw	ra,20(sp)
9d00ff24:	0060f809 	jalr	v1
9d00ff28:	00000000 	nop
9d00ff2c:	8fbf0014 	lw	ra,20(sp)
9d00ff30:	03e00008 	jr	ra
9d00ff34:	27bd0018 	addiu	sp,sp,24
9d00ff38:	03e00008 	jr	ra
9d00ff3c:	00000000 	nop

Disassembly of section .text.lock_bin:

9d00ff40 <lock_bin>:
9d00ff40:	24840001 	addiu	a0,a0,1
9d00ff44:	000410c0 	sll	v0,a0,0x3
9d00ff48:	3c04a000 	lui	a0,0xa000
9d00ff4c:	24840148 	addiu	a0,a0,328
9d00ff50:	00441821 	addu	v1,v0,a0
9d00ff54:	8c650000 	lw	a1,0(v1)
9d00ff58:	14a00004 	bnez	a1,9d00ff6c <lock_bin+0x2c>
9d00ff5c:	2442fff8 	addiu	v0,v0,-8
9d00ff60:	00822021 	addu	a0,a0,v0
9d00ff64:	ac640004 	sw	a0,4(v1)
9d00ff68:	ac640000 	sw	a0,0(v1)
9d00ff6c:	03e00008 	jr	ra
9d00ff70:	00000000 	nop

Disassembly of section .text.__fwrite:

9d00ff74 <__fwrite>:
9d00ff74:	8c83002c 	lw	v1,44(a0)
9d00ff78:	27bdffe8 	addiu	sp,sp,-24
9d00ff7c:	10600006 	beqz	v1,9d00ff98 <__fwrite+0x24>
9d00ff80:	afbf0014 	sw	ra,20(sp)
9d00ff84:	0060f809 	jalr	v1
9d00ff88:	00000000 	nop
9d00ff8c:	8fbf0014 	lw	ra,20(sp)
9d00ff90:	03e00008 	jr	ra
9d00ff94:	27bd0018 	addiu	sp,sp,24
9d00ff98:	0f403bba 	jal	9d00eee8 <write>
9d00ff9c:	8c840000 	lw	a0,0(a0)
9d00ffa0:	1000fffb 	b	9d00ff90 <__fwrite+0x1c>
9d00ffa4:	8fbf0014 	lw	ra,20(sp)

Disassembly of section .text.memchr:

9d00ffa8 <memchr>:
9d00ffa8:	00801025 	move	v0,a0
9d00ffac:	30a500ff 	andi	a1,a1,0xff
9d00ffb0:	00863021 	addu	a2,a0,a2
9d00ffb4:	54460004 	bnel	v0,a2,9d00ffc8 <memchr+0x20>
9d00ffb8:	90430000 	lbu	v1,0(v0)
9d00ffbc:	00001025 	move	v0,zero
9d00ffc0:	03e00008 	jr	ra
9d00ffc4:	00000000 	nop
9d00ffc8:	1065fffd 	beq	v1,a1,9d00ffc0 <memchr+0x18>
9d00ffcc:	00000000 	nop
9d00ffd0:	1000fff8 	b	9d00ffb4 <memchr+0xc>
9d00ffd4:	24420001 	addiu	v0,v0,1

Disassembly of section .text.strtoull:

9d00ffd8 <strtoull>:
9d00ffd8:	27bdffe0 	addiu	sp,sp,-32
9d00ffdc:	2402ffff 	li	v0,-1
9d00ffe0:	2403ffff 	li	v1,-1
9d00ffe4:	afa20010 	sw	v0,16(sp)
9d00ffe8:	afa30014 	sw	v1,20(sp)
9d00ffec:	afbf001c 	sw	ra,28(sp)
9d00fff0:	0f4038e9 	jal	9d00e3a4 <strtox>
9d00fff4:	00000000 	nop
9d00fff8:	8fbf001c 	lw	ra,28(sp)
9d00fffc:	03e00008 	jr	ra
9d010000:	27bd0020 	addiu	sp,sp,32

Disassembly of section .text.strtoll:

9d010004 <strtoll>:
9d010004:	27bdffe0 	addiu	sp,sp,-32
9d010008:	00001025 	move	v0,zero
9d01000c:	3c038000 	lui	v1,0x8000
9d010010:	afa20010 	sw	v0,16(sp)
9d010014:	afa30014 	sw	v1,20(sp)
9d010018:	afbf001c 	sw	ra,28(sp)
9d01001c:	0f4038e9 	jal	9d00e3a4 <strtox>
9d010020:	00000000 	nop
9d010024:	8fbf001c 	lw	ra,28(sp)
9d010028:	03e00008 	jr	ra
9d01002c:	27bd0020 	addiu	sp,sp,32

Disassembly of section .text.strtoul:

9d010030 <strtoul>:
9d010030:	27bdffe0 	addiu	sp,sp,-32
9d010034:	2402ffff 	li	v0,-1
9d010038:	00001825 	move	v1,zero
9d01003c:	afa20010 	sw	v0,16(sp)
9d010040:	afa30014 	sw	v1,20(sp)
9d010044:	afbf001c 	sw	ra,28(sp)
9d010048:	0f4038e9 	jal	9d00e3a4 <strtox>
9d01004c:	00000000 	nop
9d010050:	8fbf001c 	lw	ra,28(sp)
9d010054:	03e00008 	jr	ra
9d010058:	27bd0020 	addiu	sp,sp,32

Disassembly of section .text.strtol:

9d01005c <strtol>:
9d01005c:	27bdffe0 	addiu	sp,sp,-32
9d010060:	3c028000 	lui	v0,0x8000
9d010064:	00001825 	move	v1,zero
9d010068:	afa20010 	sw	v0,16(sp)
9d01006c:	afa30014 	sw	v1,20(sp)
9d010070:	afbf001c 	sw	ra,28(sp)
9d010074:	0f4038e9 	jal	9d00e3a4 <strtox>
9d010078:	00000000 	nop
9d01007c:	8fbf001c 	lw	ra,28(sp)
9d010080:	03e00008 	jr	ra
9d010084:	27bd0020 	addiu	sp,sp,32

Disassembly of section .text.memcpy:

9d010088 <memcpy>:
9d010088:	00801025 	move	v0,a0
9d01008c:	00001825 	move	v1,zero
9d010090:	14c30003 	bne	a2,v1,9d0100a0 <memcpy+0x18>
9d010094:	00a33821 	addu	a3,a1,v1
9d010098:	03e00008 	jr	ra
9d01009c:	00000000 	nop
9d0100a0:	90e70000 	lbu	a3,0(a3)
9d0100a4:	00432021 	addu	a0,v0,v1
9d0100a8:	24630001 	addiu	v1,v1,1
9d0100ac:	1000fff8 	b	9d010090 <memcpy+0x8>
9d0100b0:	a0870000 	sb	a3,0(a0)

Disassembly of section .text.__shlim:

9d0100b4 <__shlim>:
9d0100b4:	8c830040 	lw	v1,64(a0)
9d0100b8:	8c86003c 	lw	a2,60(a0)
9d0100bc:	ac850050 	sw	a1,80(a0)
9d0100c0:	00661023 	subu	v0,v1,a2
9d0100c4:	10a00004 	beqz	a1,9d0100d8 <__shlim+0x24>
9d0100c8:	ac820054 	sw	v0,84(a0)
9d0100cc:	00a2102a 	slt	v0,a1,v0
9d0100d0:	54400001 	bnezl	v0,9d0100d8 <__shlim+0x24>
9d0100d4:	00c51821 	addu	v1,a2,a1
9d0100d8:	03e00008 	jr	ra
9d0100dc:	ac83004c 	sw	v1,76(a0)

Disassembly of section .text.__dummy:

9d0100e0 <__dummy>:
9d0100e0:	8c870014 	lw	a3,20(a0)
9d0100e4:	8c860018 	lw	a2,24(a0)
9d0100e8:	8c830004 	lw	v1,4(a0)
9d0100ec:	00e61023 	subu	v0,a3,a2
9d0100f0:	30630040 	andi	v1,v1,0x40
9d0100f4:	aca20000 	sw	v0,0(a1)
9d0100f8:	10600002 	beqz	v1,9d010104 <__dummy+0x24>
9d0100fc:	00001025 	move	v0,zero
9d010100:	00c7102b 	sltu	v0,a2,a3
9d010104:	03e00008 	jr	ra
9d010108:	00000000 	nop

Disassembly of section .text.__init_stdio:

9d01010c <__init_stdio>:
9d01010c:	27bdffe8 	addiu	sp,sp,-24
9d010110:	afbf0014 	sw	ra,20(sp)
9d010114:	0f404140 	jal	9d010500 <__init_stderr>
9d010118:	00000000 	nop
9d01011c:	0f404140 	jal	9d010500 <__init_stderr>
9d010120:	00000000 	nop
9d010124:	0f404140 	jal	9d010500 <__init_stderr>
9d010128:	00000000 	nop
9d01012c:	8fbf0014 	lw	ra,20(sp)
9d010130:	03e00008 	jr	ra
9d010134:	27bd0018 	addiu	sp,sp,24

Disassembly of section .text._stub_sbd_memlayout:

9d010138 <_stub_sbd_memlayout>:
9d010138:	3c04a000 	lui	a0,0xa000
9d01013c:	248203a0 	addiu	v0,a0,928
9d010140:	24030001 	li	v1,1
9d010144:	ac430008 	sw	v1,8(v0)
9d010148:	3c03a000 	lui	v1,0xa000
9d01014c:	246303d0 	addiu	v1,v1,976
9d010150:	ac8303a0 	sw	v1,928(a0)
9d010154:	3c030000 	lui	v1,0x0
9d010158:	24630000 	addiu	v1,v1,0
9d01015c:	03e00008 	jr	ra
9d010160:	ac430004 	sw	v1,4(v0)

Disassembly of section .text.__wrap_sprintf:

9d010164 <_dsprintf_cdeEfFgGnopuxX>:
9d010164:	27bdffe0 	addiu	sp,sp,-32
9d010168:	afa60028 	sw	a2,40(sp)
9d01016c:	27a60028 	addiu	a2,sp,40
9d010170:	afbf001c 	sw	ra,28(sp)
9d010174:	afa7002c 	sw	a3,44(sp)
9d010178:	0f404077 	jal	9d0101dc <__vsprintf>
9d01017c:	afa60010 	sw	a2,16(sp)
9d010180:	8fbf001c 	lw	ra,28(sp)
9d010184:	03e00008 	jr	ra
9d010188:	27bd0020 	addiu	sp,sp,32

Disassembly of section .text.__wrap_sscanf:

9d01018c <_dsscanf_cdnopuxX>:
9d01018c:	27bdffe0 	addiu	sp,sp,-32
9d010190:	afa60028 	sw	a2,40(sp)
9d010194:	27a60028 	addiu	a2,sp,40
9d010198:	afbf001c 	sw	ra,28(sp)
9d01019c:	afa7002c 	sw	a3,44(sp)
9d0101a0:	0f403d3e 	jal	9d00f4f8 <__vsscanf>
9d0101a4:	afa60010 	sw	a2,16(sp)
9d0101a8:	8fbf001c 	lw	ra,28(sp)
9d0101ac:	03e00008 	jr	ra
9d0101b0:	27bd0020 	addiu	sp,sp,32

Disassembly of section .text.strcpy:

9d0101b4 <strcpy>:
9d0101b4:	27bdffe8 	addiu	sp,sp,-24
9d0101b8:	afb00010 	sw	s0,16(sp)
9d0101bc:	afbf0014 	sw	ra,20(sp)
9d0101c0:	0f40409b 	jal	9d01026c <stpcpy>
9d0101c4:	00808025 	move	s0,a0
9d0101c8:	8fbf0014 	lw	ra,20(sp)
9d0101cc:	02001025 	move	v0,s0
9d0101d0:	8fb00010 	lw	s0,16(sp)
9d0101d4:	03e00008 	jr	ra
9d0101d8:	27bd0018 	addiu	sp,sp,24

Disassembly of section .text.__vsprintf:

9d0101dc <__vsprintf>:
9d0101dc:	00c03825 	move	a3,a2
9d0101e0:	00a03025 	move	a2,a1
9d0101e4:	3c057fff 	lui	a1,0x7fff
9d0101e8:	27bdffe8 	addiu	sp,sp,-24
9d0101ec:	afbf0014 	sw	ra,20(sp)
9d0101f0:	0f403bfc 	jal	9d00eff0 <__vsnprintf>
9d0101f4:	34a5ffff 	ori	a1,a1,0xffff
9d0101f8:	8fbf0014 	lw	ra,20(sp)
9d0101fc:	03e00008 	jr	ra
9d010200:	27bd0018 	addiu	sp,sp,24

Disassembly of section .text.memset:

9d010204 <memset>:
9d010204:	00801025 	move	v0,a0
9d010208:	00863021 	addu	a2,a0,a2
9d01020c:	00801825 	move	v1,a0
9d010210:	14660003 	bne	v1,a2,9d010220 <memset+0x1c>
9d010214:	24630001 	addiu	v1,v1,1
9d010218:	03e00008 	jr	ra
9d01021c:	00000000 	nop
9d010220:	1000fffb 	b	9d010210 <memset+0xc>
9d010224:	a065ffff 	sb	a1,-1(v1)

Disassembly of section .text.isxdigit:

9d010228 <isxdigit>:
9d010228:	2483ffd0 	addiu	v1,a0,-48
9d01022c:	2c63000a 	sltiu	v1,v1,10
9d010230:	14600004 	bnez	v1,9d010244 <isxdigit+0x1c>
9d010234:	24020001 	li	v0,1
9d010238:	34840020 	ori	a0,a0,0x20
9d01023c:	2482ff9f 	addiu	v0,a0,-97
9d010240:	2c420006 	sltiu	v0,v0,6
9d010244:	03e00008 	jr	ra
9d010248:	00000000 	nop

Disassembly of section .text.dinit.startup:

9d01024c <__pic32_data_init>:
9d01024c:	03e01825 	move	v1,ra
9d010250:	3c089d01 	lui	t0,0x9d01
9d010254:	2508ef70 	addiu	t0,t0,-4240
9d010258:	0100f809 	jalr	t0
9d01025c:	00000000 	nop
9d010260:	0060f825 	move	ra,v1
9d010264:	03e00008 	jr	ra
9d010268:	00000000 	nop

Disassembly of section .text.stpcpy:

9d01026c <stpcpy>:
9d01026c:	24a50001 	addiu	a1,a1,1
9d010270:	80a3ffff 	lb	v1,-1(a1)
9d010274:	00801025 	move	v0,a0
9d010278:	24840001 	addiu	a0,a0,1
9d01027c:	1460fffb 	bnez	v1,9d01026c <stpcpy>
9d010280:	a083ffff 	sb	v1,-1(a0)
9d010284:	03e00008 	jr	ra
9d010288:	00000000 	nop

Disassembly of section .text.__fwrite_min:

9d01028c <__stdio_write>:
9d01028c:	8c840000 	lw	a0,0(a0)
9d010290:	27bdffe8 	addiu	sp,sp,-24
9d010294:	afbf0014 	sw	ra,20(sp)
9d010298:	0f403bba 	jal	9d00eee8 <write>
9d01029c:	00000000 	nop
9d0102a0:	8fbf0014 	lw	ra,20(sp)
9d0102a4:	03e00008 	jr	ra
9d0102a8:	27bd0018 	addiu	sp,sp,24

Disassembly of section .text.__fseeko:

9d0102ac <__fseeko>:
9d0102ac:	8c820030 	lw	v0,48(a0)
9d0102b0:	27bdffe8 	addiu	sp,sp,-24
9d0102b4:	afbf0014 	sw	ra,20(sp)
9d0102b8:	0040f809 	jalr	v0
9d0102bc:	00000000 	nop
9d0102c0:	8fbf0014 	lw	ra,20(sp)
9d0102c4:	03e00008 	jr	ra
9d0102c8:	27bd0018 	addiu	sp,sp,24

Disassembly of section .text.strtoimax:

9d0102cc <strtoimax>:
9d0102cc:	27bdffe8 	addiu	sp,sp,-24
9d0102d0:	afbf0014 	sw	ra,20(sp)
9d0102d4:	0f404001 	jal	9d010004 <strtoll>
9d0102d8:	00000000 	nop
9d0102dc:	8fbf0014 	lw	ra,20(sp)
9d0102e0:	03e00008 	jr	ra
9d0102e4:	27bd0018 	addiu	sp,sp,24

Disassembly of section .text.strtoumax:

9d0102e8 <strtoumax>:
9d0102e8:	27bdffe8 	addiu	sp,sp,-24
9d0102ec:	afbf0014 	sw	ra,20(sp)
9d0102f0:	0f403ff6 	jal	9d00ffd8 <strtoull>
9d0102f4:	00000000 	nop
9d0102f8:	8fbf0014 	lw	ra,20(sp)
9d0102fc:	03e00008 	jr	ra
9d010300:	27bd0018 	addiu	sp,sp,24

Disassembly of section .text.__isxdigit_l:

9d010304 <__isxdigit_l>:
9d010304:	27bdffe8 	addiu	sp,sp,-24
9d010308:	afbf0014 	sw	ra,20(sp)
9d01030c:	0f40408a 	jal	9d010228 <isxdigit>
9d010310:	00000000 	nop
9d010314:	8fbf0014 	lw	ra,20(sp)
9d010318:	03e00008 	jr	ra
9d01031c:	27bd0018 	addiu	sp,sp,24

Disassembly of section .text.tolower:

9d010320 <tolower>:
9d010320:	2483ffbf 	addiu	v1,a0,-65
9d010324:	2c63001a 	sltiu	v1,v1,26
9d010328:	10600002 	beqz	v1,9d010334 <tolower+0x14>
9d01032c:	00801025 	move	v0,a0
9d010330:	34820020 	ori	v0,a0,0x20
9d010334:	03e00008 	jr	ra
9d010338:	00000000 	nop

Disassembly of section .text.__tolower_l:

9d01033c <__tolower_l>:
9d01033c:	27bdffe8 	addiu	sp,sp,-24
9d010340:	afbf0014 	sw	ra,20(sp)
9d010344:	0f4040c8 	jal	9d010320 <tolower>
9d010348:	00000000 	nop
9d01034c:	8fbf0014 	lw	ra,20(sp)
9d010350:	03e00008 	jr	ra
9d010354:	27bd0018 	addiu	sp,sp,24

Disassembly of section .text.toupper:

9d010358 <toupper>:
9d010358:	2483ff9f 	addiu	v1,a0,-97
9d01035c:	2c63001a 	sltiu	v1,v1,26
9d010360:	10600002 	beqz	v1,9d01036c <toupper+0x14>
9d010364:	00801025 	move	v0,a0
9d010368:	3082005f 	andi	v0,a0,0x5f
9d01036c:	03e00008 	jr	ra
9d010370:	00000000 	nop

Disassembly of section .text.__toupper_l:

9d010374 <__toupper_l>:
9d010374:	27bdffe8 	addiu	sp,sp,-24
9d010378:	afbf0014 	sw	ra,20(sp)
9d01037c:	0f4040d6 	jal	9d010358 <toupper>
9d010380:	00000000 	nop
9d010384:	8fbf0014 	lw	ra,20(sp)
9d010388:	03e00008 	jr	ra
9d01038c:	27bd0018 	addiu	sp,sp,24

Disassembly of section .text.do_read:

9d010390 <do_read>:
9d010390:	27bdffe8 	addiu	sp,sp,-24
9d010394:	afbf0014 	sw	ra,20(sp)
9d010398:	0f403a6f 	jal	9d00e9bc <__string_read>
9d01039c:	00000000 	nop
9d0103a0:	8fbf0014 	lw	ra,20(sp)
9d0103a4:	03e00008 	jr	ra
9d0103a8:	27bd0018 	addiu	sp,sp,24

Disassembly of section .text.__toread_needs_stdio_exit:

9d0103ac <__toread_needs_stdio_exit>:
9d0103ac:	27bdffe8 	addiu	sp,sp,-24
9d0103b0:	afbf0014 	sw	ra,20(sp)
9d0103b4:	0f403e95 	jal	9d00fa54 <__stdio_exit>
9d0103b8:	00000000 	nop
9d0103bc:	8fbf0014 	lw	ra,20(sp)
9d0103c0:	03e00008 	jr	ra
9d0103c4:	27bd0018 	addiu	sp,sp,24

Disassembly of section .text.putc:

9d0103c8 <putc>:
9d0103c8:	27bdffe8 	addiu	sp,sp,-24
9d0103cc:	afbf0014 	sw	ra,20(sp)
9d0103d0:	0f403d06 	jal	9d00f418 <__putc>
9d0103d4:	00000000 	nop
9d0103d8:	8fbf0014 	lw	ra,20(sp)
9d0103dc:	03e00008 	jr	ra
9d0103e0:	27bd0018 	addiu	sp,sp,24

Disassembly of section .text.__fopen:

9d0103e4 <__fopen>:
9d0103e4:	27bdffe8 	addiu	sp,sp,-24
9d0103e8:	afbf0014 	sw	ra,20(sp)
9d0103ec:	0f403b98 	jal	9d00ee60 <__fopen_rw>
9d0103f0:	00000000 	nop
9d0103f4:	8fbf0014 	lw	ra,20(sp)
9d0103f8:	03e00008 	jr	ra
9d0103fc:	27bd0018 	addiu	sp,sp,24

Disassembly of section .text.__ftello_adj:

9d010400 <__ftello_adj>:
9d010400:	27bdffe8 	addiu	sp,sp,-24
9d010404:	afbf0014 	sw	ra,20(sp)
9d010408:	0f403f03 	jal	9d00fc0c <__ftello_adj_rw>
9d01040c:	00000000 	nop
9d010410:	8fbf0014 	lw	ra,20(sp)
9d010414:	03e00008 	jr	ra
9d010418:	27bd0018 	addiu	sp,sp,24

Disassembly of section .text:

9d010438 <_nmi_handler>:
9d010438:	401a6000 	mfc0	k0,c0_status
9d01043c:	3c1bffbf 	lui	k1,0xffbf
9d010440:	377bffff 	ori	k1,k1,0xffff
9d010444:	035bd024 	and	k0,k0,k1
9d010448:	409a6000 	mtc0	k0,c0_status
9d01044c:	42000018 	eret

Disassembly of section .rodata:

9d010450 <state_table>:
9d010450:	096c0768 906a834c c07aa074 88688000     h.l.L.j.t.z...h.
9d010460:	826c8400 00008100                       ..l.....

Disassembly of section .text.strlen:

9d010468 <strlen>:
9d010468:	00801025 	move	v0,a0
9d01046c:	80430000 	lb	v1,0(v0)
9d010470:	5460fffe 	bnezl	v1,9d01046c <strlen+0x4>
9d010474:	24420001 	addiu	v0,v0,1
9d010478:	03e00008 	jr	ra
9d01047c:	00441023 	subu	v0,v0,a0

Disassembly of section .text.__get_stderr:

9d010480 <__get_stderr>:
9d010480:	3c02a000 	lui	v0,0xa000
9d010484:	03e00008 	jr	ra
9d010488:	24420080 	addiu	v0,v0,128

Disassembly of section .text.__get_stdout:

9d01048c <__get_stdout>:
9d01048c:	3c02a000 	lui	v0,0xa000
9d010490:	03e00008 	jr	ra
9d010494:	244200e0 	addiu	v0,v0,224

Disassembly of section .text._on_reset:

9d010498 <_on_reset>:
9d010498:	03e00008 	jr	ra
9d01049c:	00000000 	nop

Disassembly of section .text._on_bootstrap:

9d0104a0 <_on_bootstrap>:
9d0104a0:	03e00008 	jr	ra
9d0104a4:	00000000 	nop

Disassembly of section .text.__dummy_fmt3:

9d0104a8 <__dummy_fmt3>:
9d0104a8:	03e00008 	jr	ra
9d0104ac:	00001025 	move	v0,zero

Disassembly of section .text.__dummy_fmt4:

9d0104b0 <__fmt_a>:
9d0104b0:	03e00008 	jr	ra
9d0104b4:	00001025 	move	v0,zero

Disassembly of section .text.__dummy_fmts:

9d0104b8 <__dummy_fmts>:
9d0104b8:	03e00008 	jr	ra
9d0104bc:	00001025 	move	v0,zero

Disassembly of section .text.__dummy_scan:

9d0104c0 <__scan_a>:
9d0104c0:	03e00008 	jr	ra
9d0104c4:	00001025 	move	v0,zero

Disassembly of section .text.__dummy_scan_s:

9d0104c8 <__dummy_scan_s>:
9d0104c8:	03e00008 	jr	ra
9d0104cc:	00001025 	move	v0,zero

Disassembly of section .text.__dummy:

9d0104d0 <__dummy>:
9d0104d0:	03e00008 	jr	ra
9d0104d4:	00000000 	nop

9d0104d8 <__stdio_exit_ofl>:
9d0104d8:	03e00008 	jr	ra
9d0104dc:	00000000 	nop

Disassembly of section .text.__dummy1:

9d0104e0 <__dummy1>:
9d0104e0:	03e00008 	jr	ra
9d0104e4:	00001025 	move	v0,zero

Disassembly of section .text.__dummy:

9d0104e8 <__dummy>:
9d0104e8:	03e00008 	jr	ra
9d0104ec:	00000000 	nop

9d0104f0 <__dummy>:
9d0104f0:	03e00008 	jr	ra
9d0104f4:	00001025 	move	v0,zero

Disassembly of section .text.__dummy:

9d0104f8 <__dummy>:
9d0104f8:	03e00008 	jr	ra
9d0104fc:	00001025 	move	v0,zero

9d010500 <__init_stderr>:
9d010500:	03e00008 	jr	ra
9d010504:	00000000 	nop

Disassembly of section .text.getpagesize:

9d010508 <getpagesize>:
9d010508:	03e00008 	jr	ra
9d01050c:	24020080 	li	v0,128

Disassembly of section .text.lseek:

9d010510 <lseek>:
9d010510:	03e00008 	jr	ra
9d010514:	00001025 	move	v0,zero

Disassembly of section .text.close:

9d010518 <close>:
9d010518:	03e00008 	jr	ra
9d01051c:	00001025 	move	v0,zero
